(lp0
ccopy_reg
_reconstructor
p1
(cschunk_sdh.msg._TactileSensor
TactileSensor
p2
c__builtin__
object
p3
Ntp4
Rp5
(lp6
g1
(cstd_msgs.msg._Header
Header
p7
g3
Ntp8
Rp9
(lp10
I24850
ag1
(cgenpy.rostime
Time
p11
g3
Ntp12
Rp13
(lp14
I1391790472
aI624567255
abaS''
p15
aba(lp16
g1
(cschunk_sdh.msg._TactileMatrix
TactileMatrix
p17
g3
Ntp18
Rp19
(lp20
I0
aI6
aI14
a(I0
I0
I0
I0
I0
I0
I0
I0
I0
I0
I0
I0
I0
I0
I0
I0
I0
I0
I0
I0
I0
I0
I0
I0
I0
I0
I0
I0
I0
I0
I0
I0
I0
I0
I0
I0
I0
I0
I0
I0
I0
I0
I0
I0
I0
I0
I0
I0
I0
I0
I0
I0
I0
I0
I0
I0
I0
I0
I0
I0
I0
I0
I0
I0
I0
I0
I0
I0
I0
I0
I0
I0
I0
I0
I0
I0
I0
I0
I0
I0
I0
I0
I0
I0
tp21
abag1
(g17
g3
Ntp22
Rp23
(lp24
I1
aI6
aI13
a(I0
I0
I0
I0
I0
I0
I0
I0
I0
I0
I0
I0
I0
I0
I0
I0
I0
I0
I0
I0
I0
I0
I0
I0
I0
I0
I0
I0
I0
I0
I0
I0
I0
I0
I0
I0
I0
I0
I0
I0
I0
I0
I0
I0
I0
I0
I0
I0
I0
I0
I0
I0
I0
I0
I0
I0
I0
I0
I0
I0
I0
I0
I0
I0
I0
I0
I0
I0
I0
I0
I0
I0
I0
I0
I0
I0
I0
I0
tp25
abag1
(g17
g3
Ntp26
Rp27
(lp28
I2
aI6
aI14
a(I0
I0
I0
I0
I0
I0
I0
I0
I0
I0
I0
I0
I0
I0
I0
I0
I0
I0
I0
I0
I0
I0
I0
I0
I0
I0
I0
I0
I0
I0
I0
I0
I0
I0
I0
I0
I0
I0
I0
I0
I0
I0
I0
I0
I0
I0
I0
I0
I0
I0
I0
I0
I0
I0
I0
I0
I0
I0
I0
I0
I0
I0
I0
I0
I0
I0
I0
I0
I0
I0
I0
I0
I0
I0
I0
I0
I0
I0
I0
I0
I0
I0
I0
I0
tp29
abag1
(g17
g3
Ntp30
Rp31
(lp32
I3
aI6
aI13
a(I0
I0
I0
I0
I0
I0
I0
I0
I0
I0
I0
I0
I0
I0
I0
I0
I0
I0
I0
I0
I0
I0
I0
I0
I0
I0
I0
I0
I0
I0
I0
I0
I0
I0
I0
I0
I0
I0
I0
I0
I0
I0
I0
I0
I0
I0
I0
I0
I0
I0
I0
I0
I0
I0
I0
I0
I0
I0
I0
I0
I0
I0
I0
I0
I0
I0
I0
I0
I0
I0
I0
I0
I0
I0
I0
I0
I0
I0
tp33
abag1
(g17
g3
Ntp34
Rp35
(lp36
I4
aI6
aI14
a(I0
I0
I0
I0
I0
I0
I0
I0
I0
I0
I0
I0
I0
I0
I0
I0
I0
I0
I0
I0
I0
I0
I0
I0
I0
I0
I0
I0
I0
I0
I0
I0
I0
I0
I0
I0
I0
I0
I0
I0
I0
I0
I0
I0
I0
I0
I0
I0
I0
I0
I0
I0
I0
I0
I0
I0
I0
I0
I0
I0
I0
I0
I0
I0
I0
I0
I0
I0
I0
I0
I0
I0
I0
I0
I0
I0
I0
I0
I0
I0
I0
I0
I0
I0
tp37
abag1
(g17
g3
Ntp38
Rp39
(lp40
I5
aI6
aI13
a(I0
I0
I0
I0
I0
I0
I0
I0
I0
I0
I0
I0
I0
I0
I0
I0
I0
I0
I0
I0
I0
I0
I0
I0
I0
I0
I0
I0
I0
I0
I0
I0
I0
I0
I0
I0
I0
I0
I0
I0
I0
I0
I0
I0
I0
I0
I0
I0
I0
I0
I0
I0
I0
I0
I0
I0
I0
I0
I0
I0
I0
I0
I0
I0
I0
I0
I0
I0
I0
I0
I0
I0
I0
I0
I0
I0
I0
I0
tp41
abaabag1
(g2
g3
Ntp42
Rp43
(lp44
g1
(g7
g3
Ntp45
Rp46
(lp47
I24851
ag1
(g11
g3
Ntp48
Rp49
(lp50
I1391790472
aI844291117
abag15
aba(lp51
g1
(g17
g3
Ntp52
Rp53
(lp54
I0
aI6
aI14
a(I0
I0
I0
I0
I0
I0
I0
I0
I0
I0
I0
I0
I0
I0
I0
I0
I0
I0
I0
I0
I0
I0
I0
I0
I0
I0
I0
I0
I0
I0
I0
I0
I0
I0
I0
I0
I0
I0
I0
I0
I0
I0
I0
I0
I0
I0
I0
I0
I0
I0
I0
I0
I0
I0
I0
I0
I0
I0
I0
I0
I0
I0
I0
I0
I0
I0
I0
I0
I0
I0
I0
I0
I0
I0
I0
I0
I0
I0
I0
I0
I0
I0
I0
I0
tp55
abag1
(g17
g3
Ntp56
Rp57
(lp58
I1
aI6
aI13
a(I0
I0
I0
I0
I0
I0
I0
I0
I0
I0
I0
I0
I0
I0
I0
I0
I0
I0
I0
I0
I0
I0
I0
I0
I0
I0
I0
I0
I0
I0
I0
I0
I0
I0
I0
I0
I0
I0
I0
I0
I0
I0
I0
I0
I0
I0
I0
I0
I0
I0
I0
I0
I0
I0
I0
I0
I0
I0
I0
I0
I0
I0
I0
I0
I0
I0
I0
I0
I0
I0
I0
I0
I0
I0
I0
I0
I0
I0
tp59
abag1
(g17
g3
Ntp60
Rp61
(lp62
I2
aI6
aI14
a(I0
I0
I0
I0
I0
I0
I0
I0
I0
I0
I0
I0
I0
I0
I0
I0
I0
I0
I0
I0
I0
I0
I0
I0
I0
I0
I0
I0
I0
I0
I0
I0
I0
I0
I0
I0
I0
I0
I0
I0
I0
I0
I0
I0
I0
I0
I0
I0
I0
I0
I0
I0
I0
I0
I0
I0
I0
I0
I0
I0
I0
I0
I0
I0
I0
I0
I0
I0
I0
I0
I0
I0
I0
I0
I0
I0
I0
I0
I0
I0
I0
I0
I0
I0
tp63
abag1
(g17
g3
Ntp64
Rp65
(lp66
I3
aI6
aI13
a(I0
I0
I0
I0
I0
I0
I0
I0
I0
I0
I0
I0
I0
I0
I0
I0
I0
I0
I0
I0
I0
I0
I0
I0
I0
I0
I0
I0
I0
I0
I0
I0
I0
I0
I0
I0
I0
I0
I0
I0
I0
I0
I0
I0
I0
I0
I0
I0
I0
I0
I0
I0
I0
I0
I0
I0
I0
I0
I0
I0
I0
I0
I0
I0
I0
I0
I0
I0
I0
I0
I0
I0
I0
I0
I0
I0
I0
I0
tp67
abag1
(g17
g3
Ntp68
Rp69
(lp70
I4
aI6
aI14
a(I0
I0
I0
I0
I0
I0
I0
I0
I0
I0
I0
I0
I0
I0
I0
I0
I0
I0
I0
I0
I0
I0
I0
I0
I0
I0
I0
I0
I0
I0
I0
I0
I0
I0
I0
I0
I0
I0
I0
I0
I0
I0
I0
I0
I0
I0
I0
I0
I0
I0
I0
I0
I0
I0
I0
I0
I0
I0
I0
I0
I0
I0
I0
I0
I0
I0
I0
I0
I0
I0
I0
I0
I0
I0
I0
I0
I0
I0
I0
I0
I0
I0
I0
I0
tp71
abag1
(g17
g3
Ntp72
Rp73
(lp74
I5
aI6
aI13
a(I0
I0
I0
I0
I0
I0
I0
I0
I0
I0
I0
I0
I0
I0
I0
I0
I0
I0
I0
I0
I0
I0
I0
I0
I0
I0
I0
I0
I0
I0
I0
I0
I0
I0
I0
I0
I0
I0
I0
I0
I0
I0
I0
I0
I0
I0
I0
I0
I0
I0
I0
I0
I0
I0
I0
I0
I0
I0
I0
I0
I0
I0
I0
I0
I0
I0
I0
I0
I0
I0
I0
I0
I0
I0
I0
I0
I0
I0
tp75
abaabag1
(g2
g3
Ntp76
Rp77
(lp78
g1
(g7
g3
Ntp79
Rp80
(lp81
I24852
ag1
(g11
g3
Ntp82
Rp83
(lp84
I1391790473
aI64236923
abag15
aba(lp85
g1
(g17
g3
Ntp86
Rp87
(lp88
I0
aI6
aI14
a(I0
I0
I0
I0
I0
I0
I0
I0
I0
I0
I0
I0
I0
I0
I0
I0
I0
I0
I0
I0
I0
I0
I0
I0
I0
I0
I0
I0
I0
I0
I0
I0
I0
I0
I0
I0
I0
I0
I0
I0
I0
I0
I0
I0
I0
I0
I0
I0
I0
I0
I0
I0
I0
I0
I0
I0
I0
I0
I0
I0
I0
I0
I0
I0
I0
I0
I0
I0
I0
I0
I0
I0
I0
I0
I0
I0
I0
I0
I0
I0
I0
I0
I0
I0
tp89
abag1
(g17
g3
Ntp90
Rp91
(lp92
I1
aI6
aI13
a(I0
I0
I0
I0
I0
I0
I0
I0
I0
I0
I0
I0
I0
I0
I0
I0
I0
I0
I0
I0
I0
I0
I0
I0
I0
I0
I0
I0
I0
I0
I0
I0
I0
I0
I0
I0
I0
I0
I0
I0
I0
I0
I0
I0
I0
I0
I0
I0
I0
I0
I0
I0
I0
I0
I0
I0
I0
I0
I0
I0
I0
I0
I0
I0
I0
I0
I0
I0
I0
I0
I0
I0
I0
I0
I0
I0
I0
I0
tp93
abag1
(g17
g3
Ntp94
Rp95
(lp96
I2
aI6
aI14
a(I0
I0
I0
I0
I0
I0
I0
I0
I0
I0
I0
I0
I0
I0
I0
I0
I0
I0
I0
I0
I0
I0
I0
I0
I0
I0
I0
I0
I0
I0
I0
I0
I0
I0
I0
I0
I0
I0
I0
I0
I0
I0
I0
I0
I0
I0
I0
I0
I0
I0
I0
I0
I0
I0
I0
I0
I0
I0
I0
I0
I0
I0
I0
I0
I0
I0
I0
I0
I0
I0
I0
I0
I0
I0
I0
I0
I0
I0
I0
I0
I0
I0
I0
I0
tp97
abag1
(g17
g3
Ntp98
Rp99
(lp100
I3
aI6
aI13
a(I0
I0
I0
I0
I0
I0
I0
I0
I0
I0
I0
I0
I0
I0
I0
I0
I0
I0
I0
I0
I0
I0
I0
I0
I0
I0
I0
I0
I0
I0
I0
I0
I0
I0
I0
I0
I0
I0
I0
I0
I0
I0
I0
I0
I0
I0
I0
I0
I0
I0
I0
I0
I0
I0
I0
I0
I0
I0
I0
I0
I0
I0
I0
I0
I0
I0
I0
I0
I0
I0
I0
I0
I0
I0
I0
I0
I0
I0
tp101
abag1
(g17
g3
Ntp102
Rp103
(lp104
I4
aI6
aI14
a(I0
I0
I0
I0
I0
I0
I0
I0
I0
I0
I0
I0
I0
I0
I0
I0
I0
I0
I0
I0
I0
I0
I0
I0
I0
I0
I0
I0
I0
I0
I0
I0
I0
I0
I0
I0
I0
I0
I0
I0
I0
I0
I0
I0
I0
I0
I0
I0
I0
I0
I0
I0
I0
I0
I0
I0
I0
I0
I0
I0
I0
I0
I0
I0
I0
I0
I0
I0
I0
I0
I0
I0
I0
I0
I0
I0
I0
I0
I0
I0
I0
I0
I0
I0
tp105
abag1
(g17
g3
Ntp106
Rp107
(lp108
I5
aI6
aI13
a(I0
I0
I0
I0
I0
I0
I0
I0
I0
I0
I0
I0
I0
I0
I0
I0
I0
I0
I0
I0
I0
I0
I0
I0
I0
I0
I0
I0
I0
I0
I0
I0
I0
I0
I0
I0
I0
I0
I0
I0
I0
I0
I0
I0
I0
I0
I0
I0
I0
I0
I0
I0
I0
I0
I0
I0
I0
I0
I0
I0
I0
I0
I0
I0
I0
I0
I0
I0
I0
I0
I0
I0
I0
I0
I0
I0
I0
I0
tp109
abaabag1
(g2
g3
Ntp110
Rp111
(lp112
g1
(g7
g3
Ntp113
Rp114
(lp115
I24853
ag1
(g11
g3
Ntp116
Rp117
(lp118
I1391790473
aI284446893
abag15
aba(lp119
g1
(g17
g3
Ntp120
Rp121
(lp122
I0
aI6
aI14
a(I0
I0
I0
I0
I0
I0
I0
I0
I0
I0
I0
I0
I0
I0
I0
I0
I0
I0
I0
I0
I0
I0
I0
I0
I0
I0
I0
I0
I0
I0
I0
I0
I0
I0
I0
I0
I0
I0
I0
I0
I0
I0
I0
I0
I0
I0
I0
I0
I0
I0
I0
I0
I0
I0
I0
I0
I0
I0
I0
I0
I0
I0
I0
I0
I0
I0
I0
I0
I0
I0
I0
I0
I0
I0
I0
I0
I0
I0
I0
I0
I0
I0
I0
I0
tp123
abag1
(g17
g3
Ntp124
Rp125
(lp126
I1
aI6
aI13
a(I0
I0
I0
I0
I0
I0
I0
I0
I0
I0
I0
I0
I0
I0
I0
I0
I0
I0
I0
I0
I0
I0
I0
I0
I0
I0
I0
I0
I0
I0
I0
I0
I0
I0
I0
I0
I0
I0
I0
I0
I0
I0
I0
I0
I0
I0
I0
I0
I0
I0
I0
I0
I0
I0
I0
I0
I0
I0
I0
I0
I0
I0
I0
I0
I0
I0
I0
I0
I0
I0
I0
I0
I0
I0
I0
I0
I0
I0
tp127
abag1
(g17
g3
Ntp128
Rp129
(lp130
I2
aI6
aI14
a(I0
I0
I0
I0
I0
I0
I0
I0
I0
I0
I0
I0
I0
I0
I0
I0
I0
I0
I0
I0
I0
I0
I0
I0
I0
I0
I0
I0
I0
I0
I0
I0
I0
I0
I0
I0
I0
I0
I0
I0
I0
I0
I0
I0
I0
I0
I0
I0
I0
I0
I0
I0
I0
I0
I0
I0
I0
I0
I0
I0
I0
I0
I0
I0
I0
I0
I0
I0
I0
I0
I0
I0
I0
I0
I0
I0
I0
I0
I0
I0
I0
I0
I0
I0
tp131
abag1
(g17
g3
Ntp132
Rp133
(lp134
I3
aI6
aI13
a(I0
I0
I0
I0
I0
I0
I0
I0
I0
I0
I0
I0
I0
I0
I0
I0
I0
I0
I0
I0
I0
I0
I0
I0
I0
I0
I0
I0
I0
I0
I0
I0
I0
I0
I0
I0
I0
I0
I0
I0
I0
I0
I0
I0
I0
I0
I0
I0
I0
I0
I0
I0
I0
I0
I0
I0
I0
I0
I0
I0
I0
I0
I0
I0
I0
I0
I0
I0
I0
I0
I0
I0
I0
I0
I0
I0
I0
I0
tp135
abag1
(g17
g3
Ntp136
Rp137
(lp138
I4
aI6
aI14
a(I0
I0
I0
I0
I0
I0
I0
I0
I0
I0
I0
I0
I0
I0
I0
I0
I0
I0
I0
I0
I0
I0
I0
I0
I0
I0
I0
I0
I0
I0
I0
I0
I0
I0
I0
I0
I0
I0
I0
I0
I0
I0
I0
I0
I0
I0
I0
I0
I0
I0
I0
I0
I0
I0
I0
I0
I0
I0
I0
I0
I0
I0
I0
I0
I0
I0
I0
I0
I0
I0
I0
I0
I0
I0
I0
I0
I0
I0
I0
I0
I0
I0
I0
I0
tp139
abag1
(g17
g3
Ntp140
Rp141
(lp142
I5
aI6
aI13
a(I0
I0
I0
I0
I0
I0
I0
I0
I0
I0
I0
I0
I0
I0
I0
I0
I0
I0
I0
I0
I0
I0
I0
I0
I0
I0
I0
I0
I0
I0
I0
I0
I0
I0
I0
I0
I0
I0
I0
I0
I0
I0
I0
I0
I0
I0
I0
I0
I0
I0
I0
I0
I0
I0
I0
I0
I0
I0
I0
I0
I0
I0
I0
I0
I0
I0
I0
I0
I0
I0
I0
I0
I0
I0
I0
I0
I0
I0
tp143
abaabag1
(g2
g3
Ntp144
Rp145
(lp146
g1
(g7
g3
Ntp147
Rp148
(lp149
I24854
ag1
(g11
g3
Ntp150
Rp151
(lp152
I1391790473
aI504590611
abag15
aba(lp153
g1
(g17
g3
Ntp154
Rp155
(lp156
I0
aI6
aI14
a(I0
I0
I0
I0
I0
I0
I0
I0
I0
I0
I0
I0
I0
I0
I0
I0
I0
I0
I0
I0
I0
I0
I0
I0
I0
I0
I0
I0
I0
I0
I0
I0
I0
I0
I0
I0
I0
I0
I0
I0
I0
I0
I0
I0
I0
I0
I0
I0
I0
I0
I0
I0
I0
I0
I0
I0
I0
I0
I0
I0
I0
I0
I0
I0
I0
I0
I0
I0
I0
I0
I0
I0
I0
I0
I0
I0
I0
I0
I0
I0
I0
I0
I0
I0
tp157
abag1
(g17
g3
Ntp158
Rp159
(lp160
I1
aI6
aI13
a(I0
I0
I0
I0
I0
I0
I0
I0
I0
I0
I0
I0
I0
I0
I0
I0
I0
I0
I0
I0
I0
I0
I0
I0
I0
I0
I0
I0
I0
I0
I0
I0
I0
I0
I0
I0
I0
I0
I0
I0
I0
I0
I0
I0
I0
I0
I0
I0
I0
I0
I0
I0
I0
I0
I0
I0
I0
I0
I0
I0
I0
I0
I0
I0
I0
I0
I0
I0
I0
I0
I0
I0
I0
I0
I0
I0
I0
I0
tp161
abag1
(g17
g3
Ntp162
Rp163
(lp164
I2
aI6
aI14
a(I0
I0
I0
I0
I0
I0
I0
I0
I0
I0
I0
I0
I0
I0
I0
I0
I0
I0
I0
I0
I0
I0
I0
I0
I0
I0
I0
I0
I0
I0
I0
I0
I0
I0
I0
I0
I0
I0
I0
I0
I0
I0
I0
I0
I0
I0
I0
I0
I0
I0
I0
I0
I0
I0
I0
I0
I0
I0
I0
I0
I0
I0
I0
I0
I0
I0
I0
I0
I0
I0
I0
I0
I0
I0
I0
I0
I0
I0
I0
I0
I0
I0
I0
I0
tp165
abag1
(g17
g3
Ntp166
Rp167
(lp168
I3
aI6
aI13
a(I0
I0
I0
I0
I0
I0
I0
I0
I0
I0
I0
I0
I0
I0
I0
I0
I0
I0
I0
I0
I0
I0
I0
I0
I0
I0
I0
I0
I0
I0
I0
I0
I0
I0
I0
I0
I0
I0
I0
I0
I0
I0
I0
I0
I0
I0
I0
I0
I0
I0
I0
I0
I0
I0
I0
I0
I0
I0
I0
I0
I0
I0
I0
I0
I0
I0
I0
I0
I0
I0
I0
I0
I0
I0
I0
I0
I0
I0
tp169
abag1
(g17
g3
Ntp170
Rp171
(lp172
I4
aI6
aI14
a(I0
I0
I0
I0
I0
I0
I0
I0
I0
I0
I0
I0
I0
I0
I0
I0
I0
I0
I0
I0
I0
I0
I0
I0
I0
I0
I0
I0
I0
I0
I0
I0
I0
I0
I0
I0
I0
I0
I0
I0
I0
I0
I0
I0
I0
I0
I0
I0
I0
I0
I0
I0
I0
I0
I0
I0
I0
I0
I0
I0
I0
I0
I0
I0
I0
I0
I0
I0
I0
I0
I0
I0
I0
I0
I0
I0
I0
I0
I0
I0
I0
I0
I0
I0
tp173
abag1
(g17
g3
Ntp174
Rp175
(lp176
I5
aI6
aI13
a(I0
I0
I0
I0
I0
I0
I0
I0
I0
I0
I0
I0
I0
I0
I0
I0
I0
I0
I0
I0
I0
I0
I0
I0
I0
I0
I0
I0
I0
I0
I0
I0
I0
I0
I0
I0
I0
I0
I0
I0
I0
I0
I0
I0
I0
I0
I0
I0
I0
I0
I0
I0
I0
I0
I0
I0
I0
I0
I0
I0
I0
I0
I0
I0
I0
I0
I0
I0
I0
I0
I0
I0
I0
I0
I0
I0
I0
I0
tp177
abaabag1
(g2
g3
Ntp178
Rp179
(lp180
g1
(g7
g3
Ntp181
Rp182
(lp183
I24855
ag1
(g11
g3
Ntp184
Rp185
(lp186
I1391790473
aI724377636
abag15
aba(lp187
g1
(g17
g3
Ntp188
Rp189
(lp190
I0
aI6
aI14
a(I0
I0
I0
I0
I0
I0
I0
I0
I0
I0
I0
I0
I0
I0
I0
I0
I0
I0
I0
I0
I0
I0
I0
I0
I0
I0
I0
I0
I0
I0
I0
I0
I0
I0
I0
I0
I0
I0
I0
I0
I0
I0
I0
I0
I0
I0
I0
I0
I0
I0
I0
I0
I0
I0
I0
I0
I0
I0
I0
I0
I0
I0
I0
I0
I0
I0
I0
I0
I0
I0
I0
I0
I0
I0
I0
I0
I0
I0
I0
I0
I0
I0
I0
I0
tp191
abag1
(g17
g3
Ntp192
Rp193
(lp194
I1
aI6
aI13
a(I0
I0
I0
I0
I0
I0
I0
I0
I0
I0
I0
I0
I0
I0
I0
I0
I0
I0
I0
I0
I0
I0
I0
I0
I0
I0
I0
I0
I0
I0
I0
I0
I0
I0
I0
I0
I0
I0
I0
I0
I0
I0
I0
I0
I0
I0
I0
I0
I0
I0
I0
I0
I0
I0
I0
I0
I0
I0
I0
I0
I0
I0
I0
I0
I0
I0
I0
I0
I0
I0
I0
I0
I0
I0
I0
I0
I0
I0
tp195
abag1
(g17
g3
Ntp196
Rp197
(lp198
I2
aI6
aI14
a(I0
I0
I0
I0
I0
I0
I0
I0
I0
I0
I0
I0
I0
I0
I0
I0
I0
I0
I0
I0
I0
I0
I0
I0
I0
I0
I0
I0
I0
I0
I0
I0
I0
I0
I0
I0
I0
I0
I0
I0
I0
I0
I0
I0
I0
I0
I0
I0
I0
I0
I0
I0
I0
I0
I0
I0
I0
I0
I0
I0
I0
I0
I0
I0
I0
I0
I0
I0
I0
I0
I0
I0
I0
I0
I0
I0
I0
I0
I0
I0
I0
I0
I0
I0
tp199
abag1
(g17
g3
Ntp200
Rp201
(lp202
I3
aI6
aI13
a(I0
I0
I0
I0
I0
I0
I0
I0
I0
I0
I0
I0
I0
I0
I0
I0
I0
I0
I0
I0
I0
I0
I0
I0
I0
I0
I0
I0
I0
I0
I0
I0
I0
I0
I0
I0
I0
I0
I0
I0
I0
I0
I0
I0
I0
I0
I0
I0
I0
I0
I0
I0
I0
I0
I0
I0
I0
I0
I0
I0
I0
I0
I0
I0
I0
I0
I0
I0
I0
I0
I0
I0
I0
I0
I0
I0
I0
I0
tp203
abag1
(g17
g3
Ntp204
Rp205
(lp206
I4
aI6
aI14
a(I0
I0
I0
I0
I0
I0
I0
I0
I0
I0
I0
I0
I0
I0
I0
I0
I0
I0
I0
I0
I0
I0
I0
I0
I0
I0
I0
I0
I0
I0
I0
I0
I0
I0
I0
I0
I0
I0
I0
I0
I0
I0
I0
I0
I0
I0
I0
I0
I0
I0
I0
I0
I0
I0
I0
I0
I0
I0
I0
I0
I0
I0
I0
I0
I0
I0
I0
I0
I0
I0
I0
I0
I0
I0
I0
I0
I0
I0
I0
I0
I0
I0
I0
I0
tp207
abag1
(g17
g3
Ntp208
Rp209
(lp210
I5
aI6
aI13
a(I0
I0
I0
I0
I0
I0
I0
I0
I0
I0
I0
I0
I0
I0
I0
I0
I0
I0
I0
I0
I0
I0
I0
I0
I0
I0
I0
I0
I0
I0
I0
I0
I0
I0
I0
I0
I0
I0
I0
I0
I0
I0
I0
I0
I0
I0
I0
I0
I0
I0
I0
I0
I0
I0
I0
I0
I0
I0
I0
I0
I0
I0
I0
I0
I0
I0
I0
I0
I0
I0
I0
I0
I0
I0
I0
I0
I0
I0
tp211
abaabag1
(g2
g3
Ntp212
Rp213
(lp214
g1
(g7
g3
Ntp215
Rp216
(lp217
I24856
ag1
(g11
g3
Ntp218
Rp219
(lp220
I1391790473
aI944372980
abag15
aba(lp221
g1
(g17
g3
Ntp222
Rp223
(lp224
I0
aI6
aI14
a(I0
I0
I0
I0
I0
I0
I0
I0
I0
I0
I0
I0
I0
I0
I0
I0
I0
I0
I0
I0
I0
I0
I0
I0
I0
I0
I0
I0
I0
I0
I0
I0
I0
I0
I0
I0
I0
I0
I0
I0
I0
I0
I0
I0
I0
I0
I0
I0
I0
I0
I0
I0
I0
I0
I0
I0
I0
I0
I0
I0
I0
I0
I0
I0
I0
I0
I0
I0
I0
I0
I0
I0
I0
I0
I0
I0
I0
I0
I0
I0
I0
I0
I0
I0
tp225
abag1
(g17
g3
Ntp226
Rp227
(lp228
I1
aI6
aI13
a(I0
I0
I0
I0
I0
I0
I0
I0
I0
I0
I0
I0
I0
I0
I0
I0
I0
I0
I0
I0
I0
I0
I0
I0
I0
I0
I0
I0
I0
I0
I0
I0
I0
I0
I0
I0
I0
I0
I0
I0
I0
I0
I0
I0
I0
I0
I0
I0
I0
I0
I0
I0
I0
I0
I0
I0
I0
I0
I0
I0
I0
I0
I0
I0
I0
I0
I0
I0
I0
I0
I0
I0
I0
I0
I0
I0
I0
I0
tp229
abag1
(g17
g3
Ntp230
Rp231
(lp232
I2
aI6
aI14
a(I0
I0
I0
I0
I0
I0
I0
I0
I0
I0
I0
I0
I0
I0
I0
I0
I0
I0
I0
I0
I0
I0
I0
I0
I0
I0
I0
I0
I0
I0
I0
I0
I0
I0
I0
I0
I0
I0
I0
I0
I0
I0
I0
I0
I0
I0
I0
I0
I0
I0
I0
I0
I0
I0
I0
I0
I0
I0
I0
I0
I0
I0
I0
I0
I0
I0
I0
I0
I0
I0
I0
I0
I0
I0
I0
I0
I0
I0
I0
I0
I0
I0
I0
I0
tp233
abag1
(g17
g3
Ntp234
Rp235
(lp236
I3
aI6
aI13
a(I0
I0
I0
I0
I0
I0
I0
I0
I0
I0
I0
I0
I0
I0
I0
I0
I0
I0
I0
I0
I0
I0
I0
I0
I0
I0
I0
I0
I0
I0
I0
I0
I0
I0
I0
I0
I0
I0
I0
I0
I0
I0
I0
I0
I0
I0
I0
I0
I0
I0
I0
I0
I0
I0
I0
I0
I0
I0
I0
I0
I0
I0
I0
I0
I0
I0
I0
I0
I0
I0
I0
I0
I0
I0
I0
I0
I0
I0
tp237
abag1
(g17
g3
Ntp238
Rp239
(lp240
I4
aI6
aI14
a(I0
I0
I0
I0
I0
I0
I0
I0
I0
I0
I0
I0
I0
I0
I0
I0
I0
I0
I0
I0
I0
I0
I0
I0
I0
I0
I0
I0
I0
I0
I0
I0
I0
I0
I0
I0
I0
I0
I0
I0
I0
I0
I0
I0
I0
I0
I0
I0
I0
I0
I0
I0
I0
I0
I0
I0
I0
I0
I0
I0
I0
I0
I0
I0
I0
I0
I0
I0
I0
I0
I0
I0
I0
I0
I0
I0
I0
I0
I0
I0
I0
I0
I0
I0
tp241
abag1
(g17
g3
Ntp242
Rp243
(lp244
I5
aI6
aI13
a(I0
I0
I0
I0
I0
I0
I0
I0
I0
I0
I0
I0
I0
I0
I0
I0
I0
I0
I0
I0
I0
I0
I0
I0
I0
I0
I0
I0
I0
I0
I0
I0
I0
I0
I0
I0
I0
I0
I0
I0
I0
I0
I0
I0
I0
I0
I0
I0
I0
I0
I0
I0
I0
I0
I0
I0
I0
I0
I0
I0
I0
I0
I0
I0
I0
I0
I0
I0
I0
I0
I0
I0
I0
I0
I0
I0
I0
I0
tp245
abaabag1
(g2
g3
Ntp246
Rp247
(lp248
g1
(g7
g3
Ntp249
Rp250
(lp251
I24857
ag1
(g11
g3
Ntp252
Rp253
(lp254
I1391790474
aI164334290
abag15
aba(lp255
g1
(g17
g3
Ntp256
Rp257
(lp258
I0
aI6
aI14
a(I0
I0
I0
I0
I0
I0
I0
I0
I0
I0
I0
I0
I0
I0
I0
I0
I0
I0
I0
I0
I0
I0
I0
I0
I0
I0
I0
I0
I0
I0
I0
I0
I0
I0
I0
I0
I0
I0
I0
I0
I0
I0
I0
I0
I0
I0
I0
I0
I0
I0
I0
I0
I0
I0
I0
I0
I0
I0
I0
I0
I0
I0
I0
I0
I0
I0
I0
I0
I0
I0
I0
I0
I0
I0
I0
I0
I0
I0
I0
I0
I0
I0
I0
I0
tp259
abag1
(g17
g3
Ntp260
Rp261
(lp262
I1
aI6
aI13
a(I0
I0
I0
I0
I0
I0
I0
I0
I0
I0
I0
I0
I0
I0
I0
I0
I0
I0
I0
I0
I0
I0
I0
I0
I0
I0
I0
I0
I0
I0
I0
I0
I0
I0
I0
I0
I0
I0
I0
I0
I0
I0
I0
I0
I0
I0
I0
I0
I0
I0
I0
I0
I0
I0
I0
I0
I0
I0
I0
I0
I0
I0
I0
I0
I0
I0
I0
I0
I0
I0
I0
I0
I0
I0
I0
I0
I0
I0
tp263
abag1
(g17
g3
Ntp264
Rp265
(lp266
I2
aI6
aI14
a(I0
I0
I0
I0
I0
I0
I0
I0
I0
I0
I0
I0
I0
I0
I0
I0
I0
I0
I0
I0
I0
I0
I0
I0
I0
I0
I0
I0
I0
I0
I0
I0
I0
I0
I0
I0
I0
I0
I0
I0
I0
I0
I0
I0
I0
I0
I0
I0
I0
I0
I0
I0
I0
I0
I0
I0
I0
I0
I0
I0
I0
I0
I0
I0
I0
I0
I0
I0
I0
I0
I0
I0
I0
I0
I0
I0
I0
I0
I0
I0
I0
I0
I0
I0
tp267
abag1
(g17
g3
Ntp268
Rp269
(lp270
I3
aI6
aI13
a(I0
I0
I0
I0
I0
I0
I0
I0
I0
I0
I0
I0
I0
I0
I0
I0
I0
I0
I0
I0
I0
I0
I0
I0
I0
I0
I0
I0
I0
I0
I0
I0
I0
I0
I0
I0
I0
I0
I0
I0
I0
I0
I0
I0
I0
I0
I0
I0
I0
I0
I0
I0
I0
I0
I0
I0
I0
I0
I0
I0
I0
I0
I0
I0
I0
I0
I0
I0
I0
I0
I0
I0
I0
I0
I0
I0
I0
I0
tp271
abag1
(g17
g3
Ntp272
Rp273
(lp274
I4
aI6
aI14
a(I0
I0
I0
I0
I0
I0
I0
I0
I0
I0
I0
I0
I0
I0
I0
I0
I0
I0
I0
I0
I0
I0
I0
I0
I0
I0
I0
I0
I0
I0
I0
I0
I0
I0
I0
I0
I0
I0
I0
I0
I0
I0
I0
I0
I0
I0
I0
I0
I0
I0
I0
I0
I0
I0
I0
I0
I0
I0
I0
I0
I0
I0
I0
I0
I0
I0
I0
I0
I0
I0
I0
I0
I0
I0
I0
I0
I0
I0
I0
I0
I0
I0
I0
I0
tp275
abag1
(g17
g3
Ntp276
Rp277
(lp278
I5
aI6
aI13
a(I0
I0
I0
I0
I0
I0
I0
I0
I0
I0
I0
I0
I0
I0
I0
I0
I0
I0
I0
I0
I0
I0
I0
I0
I0
I0
I0
I0
I0
I0
I0
I0
I0
I0
I0
I0
I0
I0
I0
I0
I0
I0
I0
I0
I0
I0
I0
I0
I0
I0
I0
I0
I0
I0
I0
I0
I0
I0
I0
I0
I0
I0
I0
I0
I0
I0
I0
I0
I0
I0
I0
I0
I0
I0
I0
I0
I0
I0
tp279
abaabag1
(g2
g3
Ntp280
Rp281
(lp282
g1
(g7
g3
Ntp283
Rp284
(lp285
I24858
ag1
(g11
g3
Ntp286
Rp287
(lp288
I1391790474
aI384398615
abag15
aba(lp289
g1
(g17
g3
Ntp290
Rp291
(lp292
I0
aI6
aI14
a(I0
I0
I0
I0
I0
I0
I0
I0
I0
I0
I0
I0
I0
I0
I0
I0
I0
I0
I0
I0
I0
I0
I0
I0
I0
I0
I0
I0
I0
I0
I0
I0
I0
I0
I0
I0
I0
I0
I0
I0
I0
I0
I0
I0
I0
I0
I0
I0
I0
I0
I0
I0
I0
I0
I0
I0
I0
I0
I0
I0
I0
I0
I0
I0
I0
I0
I0
I0
I0
I0
I0
I0
I0
I0
I0
I0
I0
I0
I0
I0
I0
I0
I0
I0
tp293
abag1
(g17
g3
Ntp294
Rp295
(lp296
I1
aI6
aI13
a(I0
I0
I0
I0
I0
I0
I0
I0
I0
I0
I0
I0
I0
I0
I0
I0
I0
I0
I0
I0
I0
I0
I0
I0
I0
I0
I0
I0
I0
I0
I0
I0
I0
I0
I0
I0
I0
I0
I0
I0
I0
I0
I0
I0
I0
I0
I0
I0
I0
I0
I0
I0
I0
I0
I0
I0
I0
I0
I0
I0
I0
I0
I0
I0
I0
I0
I0
I0
I0
I0
I0
I0
I0
I0
I0
I0
I0
I0
tp297
abag1
(g17
g3
Ntp298
Rp299
(lp300
I2
aI6
aI14
a(I0
I0
I0
I0
I0
I0
I0
I0
I0
I0
I0
I0
I0
I0
I0
I0
I0
I0
I0
I0
I0
I0
I0
I0
I0
I0
I0
I0
I0
I0
I0
I0
I0
I0
I0
I0
I0
I0
I0
I0
I0
I0
I0
I0
I0
I0
I0
I0
I0
I0
I0
I0
I0
I0
I0
I0
I0
I0
I0
I0
I0
I0
I0
I0
I0
I0
I0
I0
I0
I0
I0
I0
I0
I0
I0
I0
I0
I0
I0
I0
I0
I0
I0
I0
tp301
abag1
(g17
g3
Ntp302
Rp303
(lp304
I3
aI6
aI13
a(I0
I0
I0
I0
I0
I0
I0
I0
I0
I0
I0
I0
I0
I0
I0
I0
I0
I0
I0
I0
I0
I0
I0
I0
I0
I0
I0
I0
I0
I0
I0
I0
I0
I0
I0
I0
I0
I0
I0
I0
I0
I0
I0
I0
I0
I0
I0
I0
I0
I0
I0
I0
I0
I0
I0
I0
I0
I0
I0
I0
I0
I0
I0
I0
I0
I0
I0
I0
I0
I0
I0
I0
I0
I0
I0
I0
I0
I0
tp305
abag1
(g17
g3
Ntp306
Rp307
(lp308
I4
aI6
aI14
a(I0
I0
I0
I0
I0
I0
I0
I0
I0
I0
I0
I0
I0
I0
I0
I0
I0
I0
I0
I0
I0
I0
I0
I0
I0
I0
I0
I0
I0
I0
I0
I0
I0
I0
I0
I0
I0
I0
I0
I0
I0
I0
I0
I0
I0
I0
I0
I0
I0
I0
I0
I0
I0
I0
I0
I0
I0
I0
I0
I0
I0
I0
I0
I0
I0
I0
I0
I0
I0
I0
I0
I0
I0
I0
I0
I0
I0
I0
I0
I0
I0
I0
I0
I0
tp309
abag1
(g17
g3
Ntp310
Rp311
(lp312
I5
aI6
aI13
a(I0
I0
I0
I0
I0
I0
I0
I0
I0
I0
I0
I0
I0
I0
I0
I0
I0
I0
I0
I0
I0
I0
I0
I0
I0
I0
I0
I0
I0
I0
I0
I0
I0
I0
I0
I0
I0
I0
I0
I0
I0
I0
I0
I0
I0
I0
I0
I0
I0
I0
I0
I0
I0
I0
I0
I0
I0
I0
I0
I0
I0
I0
I0
I0
I0
I0
I0
I0
I0
I0
I0
I0
I0
I0
I0
I0
I0
I0
tp313
abaabag1
(g2
g3
Ntp314
Rp315
(lp316
g1
(g7
g3
Ntp317
Rp318
(lp319
I24859
ag1
(g11
g3
Ntp320
Rp321
(lp322
I1391790474
aI604683466
abag15
aba(lp323
g1
(g17
g3
Ntp324
Rp325
(lp326
I0
aI6
aI14
a(I0
I0
I0
I0
I0
I0
I0
I0
I0
I0
I0
I0
I0
I0
I0
I0
I0
I0
I0
I0
I0
I0
I0
I0
I0
I0
I0
I0
I0
I0
I0
I0
I0
I0
I0
I0
I0
I0
I0
I0
I0
I0
I0
I0
I0
I0
I0
I0
I0
I0
I0
I0
I0
I0
I0
I0
I0
I0
I0
I0
I0
I0
I0
I0
I0
I0
I0
I0
I0
I0
I0
I0
I0
I0
I0
I0
I0
I0
I0
I0
I0
I0
I0
I0
tp327
abag1
(g17
g3
Ntp328
Rp329
(lp330
I1
aI6
aI13
a(I0
I0
I0
I0
I0
I0
I0
I0
I0
I0
I0
I0
I0
I0
I0
I0
I0
I0
I0
I0
I0
I0
I0
I0
I0
I0
I0
I0
I0
I0
I0
I0
I0
I0
I0
I0
I0
I0
I0
I0
I0
I0
I0
I0
I0
I0
I0
I0
I0
I0
I0
I0
I0
I0
I0
I0
I0
I0
I0
I0
I0
I0
I0
I0
I0
I0
I0
I0
I0
I0
I0
I0
I0
I0
I0
I0
I0
I0
tp331
abag1
(g17
g3
Ntp332
Rp333
(lp334
I2
aI6
aI14
a(I0
I0
I0
I0
I0
I0
I0
I0
I0
I0
I0
I0
I0
I0
I0
I0
I0
I0
I0
I0
I0
I0
I0
I0
I0
I0
I0
I0
I0
I0
I0
I0
I0
I0
I0
I0
I0
I0
I0
I0
I0
I0
I0
I0
I0
I0
I0
I0
I0
I0
I0
I0
I0
I0
I0
I0
I0
I0
I0
I0
I0
I0
I0
I0
I0
I0
I0
I0
I0
I0
I0
I0
I0
I0
I0
I0
I0
I0
I0
I0
I0
I0
I0
I0
tp335
abag1
(g17
g3
Ntp336
Rp337
(lp338
I3
aI6
aI13
a(I0
I0
I0
I0
I0
I0
I0
I0
I0
I0
I0
I0
I0
I0
I0
I0
I0
I0
I0
I0
I0
I0
I0
I0
I0
I0
I0
I0
I0
I0
I0
I0
I0
I0
I0
I0
I0
I0
I0
I0
I0
I0
I0
I0
I0
I0
I0
I0
I0
I0
I0
I0
I0
I0
I0
I0
I0
I0
I0
I0
I0
I0
I0
I0
I0
I0
I0
I0
I0
I0
I0
I0
I0
I0
I0
I0
I0
I0
tp339
abag1
(g17
g3
Ntp340
Rp341
(lp342
I4
aI6
aI14
a(I0
I0
I0
I0
I0
I0
I0
I0
I0
I0
I0
I0
I0
I0
I0
I0
I0
I0
I0
I0
I0
I0
I0
I0
I0
I0
I0
I0
I0
I0
I0
I0
I0
I0
I0
I0
I0
I0
I0
I0
I0
I0
I0
I0
I0
I0
I0
I0
I0
I0
I0
I0
I0
I0
I0
I0
I0
I0
I0
I0
I0
I0
I0
I0
I0
I0
I0
I0
I0
I0
I0
I0
I0
I0
I0
I0
I0
I0
I0
I0
I0
I0
I0
I0
tp343
abag1
(g17
g3
Ntp344
Rp345
(lp346
I5
aI6
aI13
a(I0
I0
I0
I0
I0
I0
I0
I0
I0
I0
I0
I0
I0
I0
I0
I0
I0
I0
I0
I0
I0
I0
I0
I0
I0
I0
I0
I0
I0
I0
I0
I0
I0
I0
I0
I0
I0
I0
I0
I0
I0
I0
I0
I0
I0
I0
I0
I0
I0
I0
I0
I0
I0
I0
I0
I0
I0
I0
I0
I0
I0
I0
I0
I0
I0
I0
I0
I0
I0
I0
I0
I0
I0
I0
I0
I0
I0
I0
tp347
abaabag1
(g2
g3
Ntp348
Rp349
(lp350
g1
(g7
g3
Ntp351
Rp352
(lp353
I24860
ag1
(g11
g3
Ntp354
Rp355
(lp356
I1391790474
aI824442440
abag15
aba(lp357
g1
(g17
g3
Ntp358
Rp359
(lp360
I0
aI6
aI14
a(I0
I0
I0
I0
I0
I0
I0
I0
I0
I0
I0
I0
I0
I0
I0
I0
I0
I0
I0
I0
I0
I0
I0
I0
I0
I0
I0
I0
I0
I0
I0
I0
I0
I0
I0
I0
I0
I0
I0
I0
I0
I0
I0
I0
I0
I0
I0
I0
I0
I0
I0
I0
I0
I0
I0
I0
I0
I0
I0
I0
I0
I0
I0
I0
I0
I0
I0
I0
I0
I0
I0
I0
I0
I0
I0
I0
I0
I0
I0
I0
I0
I0
I0
I0
tp361
abag1
(g17
g3
Ntp362
Rp363
(lp364
I1
aI6
aI13
a(I0
I0
I0
I0
I0
I0
I0
I0
I0
I0
I0
I0
I0
I0
I0
I0
I0
I0
I0
I0
I0
I0
I0
I0
I0
I0
I0
I0
I0
I0
I0
I0
I0
I0
I0
I0
I0
I0
I0
I0
I0
I0
I0
I0
I0
I0
I0
I0
I0
I0
I0
I0
I0
I0
I0
I0
I0
I0
I0
I0
I0
I0
I0
I0
I0
I0
I0
I0
I0
I0
I0
I0
I0
I0
I0
I0
I0
I0
tp365
abag1
(g17
g3
Ntp366
Rp367
(lp368
I2
aI6
aI14
a(I0
I0
I0
I0
I0
I0
I0
I0
I0
I0
I0
I0
I0
I0
I0
I0
I0
I0
I0
I0
I0
I0
I0
I0
I0
I0
I0
I0
I0
I0
I0
I0
I0
I0
I0
I0
I0
I0
I0
I0
I0
I0
I0
I0
I0
I0
I0
I0
I0
I0
I0
I0
I0
I0
I0
I0
I0
I0
I0
I0
I0
I0
I0
I0
I0
I0
I0
I0
I0
I0
I0
I0
I0
I0
I0
I0
I0
I0
I0
I0
I0
I0
I0
I0
tp369
abag1
(g17
g3
Ntp370
Rp371
(lp372
I3
aI6
aI13
a(I0
I0
I0
I0
I0
I0
I0
I0
I0
I0
I0
I0
I0
I0
I0
I0
I0
I0
I0
I0
I0
I0
I0
I0
I0
I0
I0
I0
I0
I0
I0
I0
I0
I0
I0
I0
I0
I0
I0
I0
I0
I0
I0
I0
I0
I0
I0
I0
I0
I0
I0
I0
I0
I0
I0
I0
I0
I0
I0
I0
I0
I0
I0
I0
I0
I0
I0
I0
I0
I0
I0
I0
I0
I0
I0
I0
I0
I0
tp373
abag1
(g17
g3
Ntp374
Rp375
(lp376
I4
aI6
aI14
a(I0
I0
I0
I0
I0
I0
I0
I0
I0
I0
I0
I0
I0
I0
I0
I0
I0
I0
I0
I0
I0
I0
I0
I0
I0
I0
I0
I0
I0
I0
I0
I0
I0
I0
I0
I0
I0
I0
I0
I0
I0
I0
I0
I0
I0
I0
I0
I0
I0
I0
I0
I0
I0
I0
I0
I0
I0
I0
I0
I0
I0
I0
I0
I0
I0
I0
I0
I0
I0
I0
I0
I0
I0
I0
I0
I0
I0
I0
I0
I0
I0
I0
I0
I0
tp377
abag1
(g17
g3
Ntp378
Rp379
(lp380
I5
aI6
aI13
a(I0
I0
I0
I0
I0
I0
I0
I0
I0
I0
I0
I0
I0
I0
I0
I0
I0
I0
I0
I0
I0
I0
I0
I0
I0
I0
I0
I0
I0
I0
I0
I0
I0
I0
I0
I0
I0
I0
I0
I0
I0
I0
I0
I0
I0
I0
I0
I0
I0
I0
I0
I0
I0
I0
I0
I0
I0
I0
I0
I0
I0
I0
I0
I0
I0
I0
I0
I0
I0
I0
I0
I0
I0
I0
I0
I0
I0
I0
tp381
abaaba.