(lp0
(lp1
F31.089601516723633
aF204.91485595703125
aF-110.65187072753906
aa(lp2
F31.665664672851562
aF204.88693237304688
aF-110.50086212158203
aa(lp3
F32.1306037902832
aF204.86575317382812
aF-110.38758850097656
aa(lp4
F32.46657180786133
aF204.85411071777344
aF-110.33139038085938
aa(lp5
F32.74093246459961
aF204.84181213378906
aF-110.266357421875
aa(lp6
F32.93962860107422
aF204.83432006835938
aF-110.21967315673828
aa(lp7
F33.09675598144531
aF204.8284912109375
aF-110.19856262207031
aa(lp8
F33.235252380371094
aF204.82699584960938
aF-110.16847229003906
aa(lp9
F33.345558166503906
aF204.8202362060547
aF-110.14990997314453
aa(lp10
F33.42831039428711
aF204.81414794921875
aF-110.138671875
aa(lp11
F33.49369812011719
aF204.8130645751953
aF-110.13571166992188
aa(lp12
F33.544090270996094
aF204.8090057373047
aF-110.12548065185547
aa(lp13
F33.58162307739258
aF204.8048858642578
aF-110.10315704345703
aa(lp14
F33.612159729003906
aF204.80284118652344
aF-110.09475708007812
aa(lp15
F33.63755798339844
aF204.80406188964844
aF-110.07019805908203
aa(lp16
F33.656898498535156
aF204.8044891357422
aF-110.06166076660156
aa(lp17
F33.67220687866211
aF204.8059844970703
aF-110.05200958251953
aa(lp18
F33.68443298339844
aF204.80435180664062
aF-110.05834197998047
aa(lp19
F33.69286346435547
aF204.80538940429688
aF-110.06099700927734
aa(lp20
F33.7000732421875
aF204.80386352539062
aF-110.04354858398438
aa(lp21
F33.70621871948242
aF204.80575561523438
aF-110.03284454345703
aa(lp22
F33.710853576660156
aF204.807861328125
aF-110.04212188720703
aa(lp23
F33.71338653564453
aF204.8033447265625
aF-110.04727935791016
aa(lp24
F33.7154426574707
aF204.80535888671875
aF-110.0712661743164
aa(lp25
F33.7154541015625
aF204.800048828125
aF-110.06707763671875
aa(lp26
F33.716548919677734
aF204.8014678955078
aF-110.0651626586914
aa(lp27
F33.71934127807617
aF204.8023681640625
aF-110.05419921875
aa(lp28
F33.72151565551758
aF204.8099822998047
aF-110.06326293945312
aa(lp29
F33.72185134887695
aF204.8116912841797
aF-110.06189727783203
aa(lp30
F33.721839904785156
aF204.80941772460938
aF-110.07018280029297
aa(lp31
F33.72162628173828
aF204.8079833984375
aF-110.06935119628906
aa(lp32
F33.72093200683594
aF204.8052520751953
aF-110.07218933105469
aa(lp33
F33.72224044799805
aF204.80712890625
aF-110.0621109008789
aa(lp34
F33.72193145751953
aF204.80470275878906
aF-110.06639099121094
aa(lp35
F33.722869873046875
aF204.80279541015625
aF-110.06757354736328
aa(lp36
F33.72292709350586
aF204.79942321777344
aF-110.08024597167969
aa.