(lp0
(lp1
F36.558441162109375
aF180.82838439941406
aF-46.15044021606445
aa(lp2
F36.588321685791016
aF180.82608032226562
aF-46.772132873535156
aa(lp3
F36.62622833251953
aF180.82505798339844
aF-47.5433464050293
aa(lp4
F36.661598205566406
aF180.81344604492188
aF-47.97896194458008
aa(lp5
F36.70052719116211
aF180.80706787109375
aF-48.51057434082031
aa(lp6
F36.72587585449219
aF180.80093383789062
aF-48.734962463378906
aa(lp7
F36.74956130981445
aF180.80470275878906
aF-48.9597053527832
aa(lp8
F37.04176712036133
aF180.88534545898438
aF-49.36403274536133
aa(lp9
F37.160682678222656
aF180.9795684814453
aF-49.53422164916992
aa(lp10
F37.316856384277344
aF181.0352325439453
aF-49.67427444458008
aa(lp11
F37.46282196044922
aF181.08282470703125
aF-49.79991912841797
aa(lp12
F37.533546447753906
aF181.09986877441406
aF-49.8618278503418
aa(lp13
F37.588443756103516
aF181.13111877441406
aF-49.921287536621094
aa(lp14
F37.686161041259766
aF181.15452575683594
aF-50.0151481628418
aa(lp15
F37.70623779296875
aF181.18963623046875
aF-50.057655334472656
aa(lp16
F37.69810104370117
aF181.2144012451172
aF-50.0937614440918
aa(lp17
F37.705108642578125
aF181.24844360351562
aF-50.14372634887695
aa(lp18
F37.74309539794922
aF181.25009155273438
aF-50.15591812133789
aa(lp19
F37.778038024902344
aF181.261962890625
aF-50.16670608520508
aa(lp20
F37.7944450378418
aF181.27127075195312
aF-50.19709777832031
aa(lp21
F37.8227653503418
aF181.2734375
aF-50.207054138183594
aa(lp22
F37.83413314819336
aF181.27496337890625
aF-50.204132080078125
aa(lp23
F37.8547477722168
aF181.28146362304688
aF-50.21091842651367
aa(lp24
F37.837059020996094
aF181.27940368652344
aF-50.21971893310547
aa(lp25
F37.8022346496582
aF181.297607421875
aF-50.227901458740234
aa(lp26
F37.83383560180664
aF181.29653930664062
aF-50.223873138427734
aa(lp27
F37.837215423583984
aF181.30413818359375
aF-50.23501968383789
aa(lp28
F37.838111877441406
aF181.31288146972656
aF-50.235137939453125
aa(lp29
F37.85572814941406
aF181.298095703125
aF-50.237449645996094
aa(lp30
F37.81449508666992
aF181.3114013671875
aF-50.23643493652344
aa(lp31
F37.823951721191406
aF181.3113250732422
aF-50.23677062988281
aa(lp32
F37.816444396972656
aF181.30441284179688
aF-50.23454284667969
aa(lp33
F37.82495880126953
aF181.31253051757812
aF-50.23866271972656
aa(lp34
F37.80883026123047
aF181.29879760742188
aF-50.23469161987305
aa(lp35
F37.785133361816406
aF181.2999725341797
aF-50.23415756225586
aa(lp36
F37.76005554199219
aF181.31332397460938
aF-50.2393684387207
aa(lp37
F37.75346374511719
aF181.33102416992188
aF-50.25468826293945
aa(lp38
F37.76512145996094
aF181.3212890625
aF-50.247867584228516
aa(lp39
F37.79039764404297
aF181.3112335205078
aF-50.24386978149414
aa(lp40
F37.798309326171875
aF181.3096466064453
aF-50.24722671508789
aa(lp41
F37.87956619262695
aF181.28326416015625
aF-50.23277282714844
aa(lp42
F37.89876174926758
aF181.2725372314453
aF-50.22384262084961
aa(lp43
F37.873600006103516
aF181.2802276611328
aF-50.22173309326172
aa.