(lp0
(lp1
F33.88526916503906
aF207.69781494140625
aF-107.56253814697266
aa(lp2
F33.86089324951172
aF207.69772338867188
aF-107.58917236328125
aa(lp3
F33.84311294555664
aF207.70726013183594
aF-107.61111450195312
aa(lp4
F33.83836364746094
aF207.72288513183594
aF-107.63768768310547
aa(lp5
F33.830589294433594
aF207.7201385498047
aF-107.65007781982422
aa(lp6
F33.82660675048828
aF207.72622680664062
aF-107.6586685180664
aa(lp7
F33.821781158447266
aF207.7279510498047
aF-107.66765594482422
aa(lp8
F33.819942474365234
aF207.73416137695312
aF-107.67252349853516
aa(lp9
F33.81399154663086
aF207.7252960205078
aF-107.66950988769531
aa(lp10
F33.80875778198242
aF207.72813415527344
aF-107.6688461303711
aa(lp11
F33.80878829956055
aF207.7321319580078
aF-107.67172241210938
aa(lp12
F33.809486389160156
aF207.7302703857422
aF-107.67234802246094
aa(lp13
F33.80482482910156
aF207.7355194091797
aF-107.67391967773438
aa(lp14
F33.80764389038086
aF207.7438201904297
aF-107.67980194091797
aa(lp15
F33.809852600097656
aF207.74501037597656
aF-107.68217468261719
aa(lp16
F33.80876541137695
aF207.7412567138672
aF-107.67829132080078
aa(lp17
F33.80912780761719
aF207.7464599609375
aF-107.68462371826172
aa(lp18
F33.811065673828125
aF207.74716186523438
aF-107.68775177001953
aa(lp19
F33.81117630004883
aF207.74855041503906
aF-107.68598937988281
aa(lp20
F33.80802536010742
aF207.75157165527344
aF-107.68400573730469
aa(lp21
F33.81309509277344
aF207.7567138671875
aF-107.6919174194336
aa(lp22
F33.809486389160156
aF207.75326538085938
aF-107.68766021728516
aa(lp23
F33.811946868896484
aF207.751953125
aF-107.6922607421875
aa(lp24
F33.8072624206543
aF207.747802734375
aF-107.69205474853516
aa(lp25
F33.812225341796875
aF207.7530517578125
aF-107.69503021240234
aa(lp26
F33.811866760253906
aF207.7546844482422
aF-107.69551086425781
aa(lp27
F33.813377380371094
aF207.7610626220703
aF-107.69996643066406
aa(lp28
F33.810882568359375
aF207.7579803466797
aF-107.6975326538086
aa(lp29
F33.811885833740234
aF207.75698852539062
aF-107.69636535644531
aa(lp30
F33.81135177612305
aF207.75038146972656
aF-107.69284057617188
aa(lp31
F33.809776306152344
aF207.7469482421875
aF-107.68832397460938
aa(lp32
F33.80820846557617
aF207.74288940429688
aF-107.68622589111328
aa.