(lp0
(lp1
F39.259185791015625
aF197.5829620361328
aF15.706551551818848
aa(lp2
F39.259185791015625
aF197.5829620361328
aF15.706551551818848
aa(lp3
F39.259185791015625
aF197.5829620361328
aF15.706551551818848
aa(lp4
F39.259185791015625
aF197.5829620361328
aF15.706551551818848
aa(lp5
F39.259185791015625
aF197.5829620361328
aF15.706551551818848
aa(lp6
F39.259185791015625
aF197.5829620361328
aF15.706551551818848
aa(lp7
F39.259185791015625
aF197.5829620361328
aF15.706551551818848
aa(lp8
F39.259185791015625
aF197.5829620361328
aF15.706551551818848
aa(lp9
F39.259185791015625
aF197.5829620361328
aF15.706551551818848
aa(lp10
F39.259185791015625
aF197.5829620361328
aF15.706551551818848
aa(lp11
F39.259185791015625
aF197.5829620361328
aF15.706551551818848
aa(lp12
F39.259185791015625
aF197.5829620361328
aF15.706551551818848
aa(lp13
F39.259185791015625
aF197.5829620361328
aF15.706551551818848
aa(lp14
F39.259185791015625
aF197.5829620361328
aF15.706551551818848
aa(lp15
F39.259185791015625
aF197.5829620361328
aF15.706551551818848
aa(lp16
F39.259185791015625
aF197.5829620361328
aF15.706551551818848
aa(lp17
F39.259185791015625
aF197.5829620361328
aF15.706551551818848
aa(lp18
F39.259185791015625
aF197.5829620361328
aF15.706551551818848
aa(lp19
F39.259185791015625
aF197.5829620361328
aF15.706551551818848
aa(lp20
F39.259185791015625
aF197.5829620361328
aF15.706551551818848
aa(lp21
F39.259185791015625
aF197.5829620361328
aF15.706551551818848
aa(lp22
F39.259185791015625
aF197.5829620361328
aF15.706551551818848
aa(lp23
F39.259185791015625
aF197.5829620361328
aF15.706551551818848
aa(lp24
F39.259185791015625
aF197.5829620361328
aF15.706551551818848
aa(lp25
F39.259185791015625
aF197.5829620361328
aF15.706551551818848
aa(lp26
F39.259185791015625
aF197.5829620361328
aF15.706551551818848
aa(lp27
F39.259185791015625
aF197.5829620361328
aF15.706551551818848
aa(lp28
F39.259185791015625
aF197.5829620361328
aF15.706551551818848
aa(lp29
F39.259185791015625
aF197.5829620361328
aF15.706551551818848
aa(lp30
F39.259185791015625
aF197.5829620361328
aF15.706551551818848
aa(lp31
F39.259185791015625
aF197.5829620361328
aF15.706551551818848
aa(lp32
F39.259185791015625
aF197.5829620361328
aF15.706551551818848
aa(lp33
F39.259185791015625
aF197.5829620361328
aF15.706551551818848
aa(lp34
F39.259185791015625
aF197.5829620361328
aF15.706551551818848
aa(lp35
F39.259185791015625
aF197.5829620361328
aF15.706551551818848
aa(lp36
F39.259185791015625
aF197.5829620361328
aF15.706551551818848
aa(lp37
F39.259185791015625
aF197.5829620361328
aF15.706551551818848
aa(lp38
F39.259185791015625
aF197.5829620361328
aF15.706551551818848
aa(lp39
F39.259185791015625
aF197.5829620361328
aF15.706551551818848
aa(lp40
F39.259185791015625
aF197.5829620361328
aF15.706551551818848
aa(lp41
F39.259185791015625
aF197.5829620361328
aF15.706551551818848
aa(lp42
F39.259185791015625
aF197.5829620361328
aF15.706551551818848
aa(lp43
F39.259185791015625
aF197.5829620361328
aF15.706551551818848
aa(lp44
F39.259185791015625
aF197.5829620361328
aF15.706551551818848
aa(lp45
F39.259185791015625
aF197.5829620361328
aF15.706551551818848
aa(lp46
F39.259185791015625
aF197.5829620361328
aF15.706551551818848
aa(lp47
F39.259185791015625
aF197.5829620361328
aF15.706551551818848
aa(lp48
F39.259185791015625
aF197.5829620361328
aF15.706551551818848
aa(lp49
F39.259185791015625
aF197.5829620361328
aF15.706551551818848
aa(lp50
F39.259185791015625
aF197.5829620361328
aF15.706551551818848
aa(lp51
F39.259185791015625
aF197.5829620361328
aF15.706551551818848
aa(lp52
F39.259185791015625
aF197.5829620361328
aF15.706551551818848
aa(lp53
F39.259185791015625
aF197.5829620361328
aF15.706551551818848
aa(lp54
F39.259185791015625
aF197.5829620361328
aF15.706551551818848
aa(lp55
F39.259185791015625
aF197.5829620361328
aF15.706551551818848
aa(lp56
F39.259185791015625
aF197.5829620361328
aF15.706551551818848
aa(lp57
F39.259185791015625
aF197.5829620361328
aF15.706551551818848
aa(lp58
F39.259185791015625
aF197.5829620361328
aF15.706551551818848
aa(lp59
F39.259185791015625
aF197.5829620361328
aF15.706551551818848
aa(lp60
F39.259185791015625
aF197.5829620361328
aF15.706551551818848
aa(lp61
F39.259185791015625
aF197.5829620361328
aF15.706551551818848
aa(lp62
F39.259185791015625
aF197.5829620361328
aF15.706551551818848
aa(lp63
F39.259185791015625
aF197.5829620361328
aF15.706551551818848
aa(lp64
F39.259185791015625
aF197.5829620361328
aF15.706551551818848
aa(lp65
F39.259185791015625
aF197.5829620361328
aF15.706551551818848
aa(lp66
F39.259185791015625
aF197.5829620361328
aF15.706551551818848
aa(lp67
F39.259185791015625
aF197.5829620361328
aF15.706551551818848
aa(lp68
F39.259185791015625
aF197.5829620361328
aF15.706551551818848
aa(lp69
F39.259185791015625
aF197.5829620361328
aF15.706551551818848
aa(lp70
F39.259185791015625
aF197.5829620361328
aF15.706551551818848
aa(lp71
F39.259185791015625
aF197.5829620361328
aF15.706551551818848
aa(lp72
F39.259185791015625
aF197.5829620361328
aF15.706551551818848
aa(lp73
F39.259185791015625
aF197.5829620361328
aF15.706551551818848
aa(lp74
F39.259185791015625
aF197.5829620361328
aF15.706551551818848
aa(lp75
F39.259185791015625
aF197.5829620361328
aF15.706551551818848
aa(lp76
F39.259185791015625
aF197.5829620361328
aF15.706551551818848
aa(lp77
F39.259185791015625
aF197.5829620361328
aF15.706551551818848
aa(lp78
F39.259185791015625
aF197.5829620361328
aF15.706551551818848
aa(lp79
F39.259185791015625
aF197.5829620361328
aF15.706551551818848
aa(lp80
F39.259185791015625
aF197.5829620361328
aF15.706551551818848
aa(lp81
F39.259185791015625
aF197.5829620361328
aF15.706551551818848
aa(lp82
F39.259185791015625
aF197.5829620361328
aF15.706551551818848
aa(lp83
F39.259185791015625
aF197.5829620361328
aF15.706551551818848
aa(lp84
F39.259185791015625
aF197.5829620361328
aF15.706551551818848
aa(lp85
F39.259185791015625
aF197.5829620361328
aF15.706551551818848
aa(lp86
F39.259185791015625
aF197.5829620361328
aF15.706551551818848
aa(lp87
F39.259185791015625
aF197.5829620361328
aF15.706551551818848
aa(lp88
F39.259185791015625
aF197.5829620361328
aF15.706551551818848
aa(lp89
F39.259185791015625
aF197.5829620361328
aF15.706551551818848
aa(lp90
F39.259185791015625
aF197.5829620361328
aF15.706551551818848
aa(lp91
F39.259185791015625
aF197.5829620361328
aF15.706551551818848
aa(lp92
F39.259185791015625
aF197.5829620361328
aF15.706551551818848
aa(lp93
F39.259185791015625
aF197.5829620361328
aF15.706551551818848
aa(lp94
F39.259185791015625
aF197.5829620361328
aF15.706551551818848
aa(lp95
F39.259185791015625
aF197.5829620361328
aF15.706551551818848
aa(lp96
F39.259185791015625
aF197.5829620361328
aF15.706551551818848
aa(lp97
F39.259185791015625
aF197.5829620361328
aF15.706551551818848
aa(lp98
F39.259185791015625
aF197.5829620361328
aF15.706551551818848
aa(lp99
F39.259185791015625
aF197.5829620361328
aF15.706551551818848
aa(lp100
F39.259185791015625
aF197.5829620361328
aF15.706551551818848
aa(lp101
F39.259185791015625
aF197.5829620361328
aF15.706551551818848
aa(lp102
F39.259185791015625
aF197.5829620361328
aF15.706551551818848
aa(lp103
F39.259185791015625
aF197.5829620361328
aF15.706551551818848
aa(lp104
F39.259185791015625
aF197.5829620361328
aF15.706551551818848
aa(lp105
F39.259185791015625
aF197.5829620361328
aF15.706551551818848
aa(lp106
F39.259185791015625
aF197.5829620361328
aF15.706551551818848
aa(lp107
F39.259185791015625
aF197.5829620361328
aF15.706551551818848
aa(lp108
F39.259185791015625
aF197.5829620361328
aF15.706551551818848
aa(lp109
F39.259185791015625
aF197.5829620361328
aF15.706551551818848
aa(lp110
F39.259185791015625
aF197.5829620361328
aF15.706551551818848
aa(lp111
F39.259185791015625
aF197.5829620361328
aF15.706551551818848
aa(lp112
F39.259185791015625
aF197.5829620361328
aF15.706551551818848
aa(lp113
F39.259185791015625
aF197.5829620361328
aF15.706551551818848
aa(lp114
F39.259185791015625
aF197.5829620361328
aF15.706551551818848
aa(lp115
F39.259185791015625
aF197.5829620361328
aF15.706551551818848
aa(lp116
F39.259185791015625
aF197.5829620361328
aF15.706551551818848
aa(lp117
F39.259185791015625
aF197.5829620361328
aF15.706551551818848
aa(lp118
F39.259185791015625
aF197.5829620361328
aF15.706551551818848
aa(lp119
F39.259185791015625
aF197.5829620361328
aF15.706551551818848
aa(lp120
F39.259185791015625
aF197.5829620361328
aF15.706551551818848
aa(lp121
F39.259185791015625
aF197.5829620361328
aF15.706551551818848
aa(lp122
F39.259185791015625
aF197.5829620361328
aF15.706551551818848
aa(lp123
F39.259185791015625
aF197.5829620361328
aF15.706551551818848
aa(lp124
F39.259185791015625
aF197.5829620361328
aF15.706551551818848
aa(lp125
F39.259185791015625
aF197.5829620361328
aF15.706551551818848
aa(lp126
F39.259185791015625
aF197.5829620361328
aF15.706551551818848
aa(lp127
F39.259185791015625
aF197.5829620361328
aF15.706551551818848
aa(lp128
F39.259185791015625
aF197.5829620361328
aF15.706551551818848
aa(lp129
F39.259185791015625
aF197.5829620361328
aF15.706551551818848
aa(lp130
F39.25917434692383
aF197.5829620361328
aF15.70654010772705
aa(lp131
F39.2591552734375
aF197.5829620361328
aF15.706521987915039
aa(lp132
F39.25908279418945
aF197.58299255371094
aF15.70645809173584
aa(lp133
F39.259010314941406
aF197.58302307128906
aF15.706390380859375
aa(lp134
F39.25889205932617
aF197.58306884765625
aF15.706280708312988
aa(lp135
F39.25874710083008
aF197.5831298828125
aF15.706151008605957
aa(lp136
F39.258602142333984
aF197.58319091796875
aF15.706016540527344
aa(lp137
F39.25836944580078
aF197.5832977294922
aF15.705804824829102
aa(lp138
F39.25813293457031
aF197.58338928222656
aF15.705591201782227
aa(lp139
F39.25790023803711
aF197.58348083496094
aF15.705376625061035
aa(lp140
F39.25763702392578
aF197.58360290527344
aF15.7051362991333
aa(lp141
F39.25736618041992
aF197.58370971679688
aF15.704888343811035
aa(lp142
F39.2569465637207
aF197.58387756347656
aF15.704509735107422
aa(lp143
F39.2556037902832
aF197.58441162109375
aF15.703293800354004
aa(lp144
F39.25514602661133
aF197.5845947265625
aF15.702876091003418
aa(lp145
F39.254669189453125
aF197.5847930908203
aF15.702441215515137
aa(lp146
F39.254188537597656
aF197.58499145507812
aF15.702000617980957
aa(lp147
F39.253665924072266
aF197.585205078125
aF15.701522827148438
aa(lp148
F39.25313949584961
aF197.58541870117188
aF15.701042175292969
aa(lp149
F39.25257873535156
aF197.58563232421875
aF15.700531005859375
aa(lp150
F39.25191879272461
aF197.58590698242188
aF15.699929237365723
aa(lp151
F39.25122833251953
aF197.586181640625
aF15.699297904968262
aa(lp152
F39.25054168701172
aF197.58645629882812
aF15.698668479919434
aa(lp153
F39.249786376953125
aF197.58676147460938
aF15.697980880737305
aa(lp154
F39.249019622802734
aF197.5870819091797
aF15.697278022766113
aa(lp155
F39.248260498046875
aF197.58738708496094
aF15.696584701538086
aa(lp156
F39.24736404418945
aF197.58775329589844
aF15.695762634277344
aa(lp157
F39.24641418457031
aF197.588134765625
aF15.69489574432373
aa(lp158
F39.24545669555664
aF197.58853149414062
aF15.69402027130127
aa(lp159
F39.24444580078125
aF197.58892822265625
aF15.693100929260254
aa(lp160
F39.24344253540039
aF197.58932495117188
aF15.692185401916504
aa(lp161
F39.24240493774414
aF197.58975219726562
aF15.691237449645996
aa(lp162
F39.24136734008789
aF197.5901641845703
aF15.690291404724121
aa(lp163
F39.240333557128906
aF197.59059143066406
aF15.68934154510498
aa(lp164
F39.23929977416992
aF197.5910186767578
aF15.688394546508789
aa(lp165
F39.23827362060547
aF197.5914306640625
aF15.687456130981445
aa(lp166
F39.23725891113281
aF197.5918426513672
aF15.686527252197266
aa(lp167
F39.23625183105469
aF197.59226989746094
aF15.6856050491333
aa(lp168
F39.2352409362793
aF197.59268188476562
aF15.684679985046387
aa(lp169
F39.234230041503906
aF197.5930938720703
aF15.683752059936523
aa(lp170
F39.233150482177734
aF197.59353637695312
aF15.682765007019043
aa(lp171
F39.23203659057617
aF197.593994140625
aF15.681744575500488
aa(lp172
F39.23088836669922
aF197.59446716308594
aF15.680694580078125
aa(lp173
F39.22975158691406
aF197.59494018554688
aF15.679654121398926
aa(lp174
F39.22860336303711
aF197.5954132080078
aF15.678606986999512
aa(lp175
F39.22745895385742
aF197.59588623046875
aF15.677556991577148
aa(lp176
F39.226314544677734
aF197.59634399414062
aF15.676512718200684
aa(lp177
F39.225120544433594
aF197.59683227539062
aF15.67542839050293
aa(lp178
F39.223907470703125
aF197.59730529785156
aF15.674322128295898
aa(lp179
F39.22268295288086
aF197.59779357910156
aF15.673208236694336
aa(lp180
F39.22136688232422
aF197.5983428955078
aF15.672001838684082
aa(lp181
F39.220027923583984
aF197.598876953125
aF15.67077922821045
aa(lp182
F39.21868896484375
aF197.5994110107422
aF15.669554710388184
aa(lp183
F39.21735382080078
aF197.59994506835938
aF15.66833209991455
aa(lp184
F39.21601104736328
aF197.60049438476562
aF15.667102813720703
aa(lp185
F39.21464920043945
aF197.60104370117188
aF15.665863037109375
aa(lp186
F39.213287353515625
aF197.60159301757812
aF15.664617538452148
aa(lp187
F39.21192932128906
aF197.60214233398438
aF15.66337776184082
aa(lp188
F39.210567474365234
aF197.60267639160156
aF15.66213321685791
aa(lp189
F39.20920181274414
aF197.6032257080078
aF15.660882949829102
aa(lp190
F39.20783233642578
aF197.60377502441406
aF15.659634590148926
aa(lp191
F39.20637893676758
aF197.60438537597656
aF15.658305168151855
aa(lp192
F39.20491409301758
aF197.60498046875
aF15.656967163085938
aa(lp193
F39.203392028808594
aF197.60560607910156
aF15.655573844909668
aa(lp194
F39.2015380859375
aF197.60635375976562
aF15.653873443603516
aa(lp195
F39.19965744018555
aF197.60708618164062
aF15.652151107788086
aa(lp196
F39.19770050048828
aF197.60787963867188
aF15.650359153747559
aa(lp197
F39.195777893066406
aF197.608642578125
aF15.648590087890625
aa(lp198
F39.19386291503906
aF197.6094207763672
aF15.64684009552002
aa(lp199
F39.19186782836914
aF197.6102294921875
aF15.645012855529785
aa(lp200
F39.18986892700195
aF197.6110382080078
aF15.643187522888184
aa(lp201
F39.18785858154297
aF197.6118621826172
aF15.641345977783203
aa(lp202
F39.18582534790039
aF197.61268615722656
aF15.639486312866211
aa(lp203
F39.183712005615234
aF197.61355590820312
aF15.637553215026855
aa(lp204
F39.181602478027344
aF197.6144256591797
aF15.635622024536133
aa(lp205
F39.17939758300781
aF197.6153106689453
aF15.633614540100098
aa(lp206
F39.177146911621094
aF197.61622619628906
aF15.63156509399414
aa(lp207
F39.1749153137207
aF197.6171417236328
aF15.629524230957031
aa(lp208
F39.17264175415039
aF197.61807250976562
aF15.627449989318848
aa(lp209
F39.17036437988281
aF197.61898803710938
aF15.625370025634766
aa(lp210
F39.168060302734375
aF197.6199188232422
aF15.62326717376709
aa(lp211
F39.16577911376953
aF197.620849609375
aF15.621183395385742
aa(lp212
F39.163516998291016
aF197.6217803955078
aF15.61911392211914
aa(lp213
F39.16122817993164
aF197.62269592285156
aF15.617021560668945
aa(lp214
F39.1589241027832
aF197.62362670898438
aF15.614923477172852
aa(lp215
F39.15655517578125
aF197.6245880126953
aF15.612771987915039
aa(lp216
F39.15412139892578
aF197.6255645751953
aF15.610554695129395
aa(lp217
F39.15161895751953
aF197.6265869140625
aF15.608280181884766
aa(lp218
F39.14915466308594
aF197.62759399414062
aF15.606040000915527
aa(lp219
F39.146671295166016
aF197.6285858154297
aF15.603785514831543
aa(lp220
F39.144203186035156
aF197.62957763671875
aF15.60153865814209
aa(lp221
F39.14176940917969
aF197.63055419921875
aF15.59931755065918
aa(lp222
F39.13935470581055
aF197.63153076171875
aF15.597115516662598
aa(lp223
F39.1368408203125
aF197.632568359375
aF15.594822883605957
aa(lp224
F39.13430404663086
aF197.6335906982422
aF15.592510223388672
aa(lp225
F39.13178634643555
aF197.63462829589844
aF15.590213775634766
aa(lp226
F39.12925338745117
aF197.63565063476562
aF15.587906837463379
aa(lp227
F39.12671661376953
aF197.6366729736328
aF15.58558464050293
aa(lp228
F39.12419128417969
aF197.63771057128906
aF15.583277702331543
aa(lp229
F39.121646881103516
aF197.6387481689453
aF15.580958366394043
aa(lp230
F39.11909103393555
aF197.63978576660156
aF15.578634262084961
aa(lp231
F39.11653137207031
aF197.6408233642578
aF15.576297760009766
aa(lp232
F39.114009857177734
aF197.64186096191406
aF15.573994636535645
aa(lp233
F39.11147689819336
aF197.64288330078125
aF15.57168197631836
aa(lp234
F39.10894775390625
aF197.6439208984375
aF15.569368362426758
aa(lp235
F39.106502532958984
aF197.64491271972656
aF15.567140579223633
aa(lp236
F39.104068756103516
aF197.64590454101562
aF15.564916610717773
aa(lp237
F39.101654052734375
aF197.64688110351562
aF15.562719345092773
aa(lp238
F39.09919357299805
aF197.64788818359375
aF15.56047248840332
aa(lp239
F39.096622467041016
aF197.64891052246094
aF15.558127403259277
aa(lp240
F39.09408950805664
aF197.64993286132812
aF15.555810928344727
aa(lp241
F39.091548919677734
aF197.6509552001953
aF15.553488731384277
aa(lp242
F39.08901596069336
aF197.6519775390625
aF15.551168441772461
aa(lp243
F39.08647155761719
aF197.65301513671875
aF15.548835754394531
aa(lp244
F39.08397674560547
aF197.65402221679688
aF15.546558380126953
aa(lp245
F39.08147048950195
aF197.655029296875
aF15.544272422790527
aa(lp246
F39.07898712158203
aF197.65603637695312
aF15.542007446289062
aa(lp247
F39.076480865478516
aF197.65704345703125
aF15.539718627929688
aa(lp248
F39.07390594482422
aF197.65809631347656
aF15.537362098693848
aa(lp249
F39.07133865356445
aF197.65914916992188
aF15.535008430480957
aa(lp250
F39.068782806396484
aF197.66018676757812
aF15.53266716003418
aa(lp251
F39.066226959228516
aF197.66122436523438
aF15.53033447265625
aa(lp252
F39.06367874145508
aF197.6622772216797
aF15.528002738952637
aa(lp253
F39.06113815307617
aF197.66331481933594
aF15.52568244934082
aa(lp254
F39.05846405029297
aF197.6643829345703
aF15.523244857788086
aa(lp255
F39.05577850341797
aF197.66546630859375
aF15.520803451538086
aa(lp256
F39.05313491821289
aF197.66651916503906
aF15.518399238586426
aa(lp257
F39.05046844482422
aF197.66758728027344
aF15.515971183776855
aa(lp258
F39.04783248901367
aF197.6686248779297
aF15.513568878173828
aa(lp259
F39.04518508911133
aF197.66966247558594
aF15.511155128479004
aa(lp260
F39.04256057739258
aF197.6707000732422
aF15.508761405944824
aa(lp261
F39.039886474609375
aF197.6717529296875
aF15.506321907043457
aa(lp262
F39.03703308105469
aF197.67291259765625
aF15.5037202835083
aa(lp263
F39.03417205810547
aF197.67405700683594
aF15.501103401184082
aa(lp264
F39.03129577636719
aF197.6752166748047
aF15.498468399047852
aa(lp265
F39.02836227416992
aF197.6764373779297
aF15.49577808380127
aa(lp266
F39.025428771972656
aF197.67762756347656
aF15.493091583251953
aa(lp267
F39.022499084472656
aF197.6788330078125
aF15.490405082702637
aa(lp268
F39.01364517211914
aF197.68247985839844
aF15.48228645324707
aa(lp269
F39.010684967041016
aF197.68368530273438
aF15.479570388793945
aa(lp270
F39.007686614990234
aF197.6848907470703
aF15.476821899414062
aa(lp271
F39.00467300415039
aF197.68609619140625
aF15.474068641662598
aa(lp272
F39.001678466796875
aF197.6873016357422
aF15.471332550048828
aa(lp273
F38.99862289428711
aF197.6885223388672
aF15.468547821044922
aa(lp274
F38.99555206298828
aF197.6897430419922
aF15.465752601623535
aa(lp275
F38.992496490478516
aF197.69097900390625
aF15.462963104248047
aa(lp276
F38.98945617675781
aF197.69219970703125
aF15.460186958312988
aa(lp277
F38.98641586303711
aF197.69342041015625
aF15.457414627075195
aa(lp278
F38.98343276977539
aF197.69464111328125
aF15.454695701599121
aa(lp279
F38.98046112060547
aF197.69583129882812
aF15.451981544494629
aa(lp280
F38.97745895385742
aF197.69703674316406
aF15.449244499206543
aa(lp281
F38.97441101074219
aF197.69825744628906
aF15.446475982666016
aa(lp282
F38.97130584716797
aF197.6995086669922
aF15.44364070892334
aa(lp283
F38.96818161010742
aF197.70074462890625
aF15.440791130065918
aa(lp284
F38.965065002441406
aF197.70199584960938
aF15.437950134277344
aa(lp285
F38.96196746826172
aF197.70323181152344
aF15.435127258300781
aa(lp286
F38.95888137817383
aF197.7044677734375
aF15.432307243347168
aa(lp287
F38.95581817626953
aF197.7056884765625
aF15.429511070251465
aa(lp288
F38.95275115966797
aF197.70692443847656
aF15.426713943481445
aa(lp289
F38.9496955871582
aF197.70816040039062
aF15.42392635345459
aa(lp290
F38.94662857055664
aF197.7093963623047
aF15.421130180358887
aa(lp291
F38.94352340698242
aF197.71063232421875
aF15.418298721313477
aa(lp292
F38.94041061401367
aF197.71188354492188
aF15.415452003479004
aa(lp293
F38.93731689453125
aF197.713134765625
aF15.412626266479492
aa(lp294
F38.934242248535156
aF197.71438598632812
aF15.40981388092041
aa(lp295
F38.93095779418945
aF197.7156982421875
aF15.406817436218262
aa(lp296
F38.927642822265625
aF197.71702575683594
aF15.40379524230957
aa(lp297
F38.924320220947266
aF197.71835327148438
aF15.400775909423828
aa(lp298
F38.92098617553711
aF197.71969604492188
aF15.39772891998291
aa(lp299
F38.917640686035156
aF197.72105407714844
aF15.394658088684082
aa(lp300
F38.91420364379883
aF197.72242736816406
aF15.391498565673828
aa(lp301
F38.910804748535156
aF197.7237548828125
aF15.388372421264648
aa(lp302
F38.90738296508789
aF197.72511291503906
aF15.385237693786621
aa(lp303
F38.90397644042969
aF197.7264404296875
aF15.382134437561035
aa(lp304
F38.900577545166016
aF197.727783203125
aF15.379044532775879
aa(lp305
F38.897029876708984
aF197.72923278808594
aF15.375810623168945
aa(lp306
F38.89344024658203
aF197.7306671142578
aF15.372540473937988
aa(lp307
F38.889892578125
aF197.73211669921875
aF15.369308471679688
aa(lp308
F38.886314392089844
aF197.7335662841797
aF15.36603832244873
aa(lp309
F38.882728576660156
aF197.73501586914062
aF15.36276626586914
aa(lp310
F38.879154205322266
aF197.73646545410156
aF15.359492301940918
aa(lp311
F38.87553787231445
aF197.73794555664062
aF15.356179237365723
aa(lp312
F38.87194061279297
aF197.73944091796875
aF15.352875709533691
aa(lp313
F38.86817932128906
aF197.74095153808594
aF15.349431037902832
aa(lp314
F38.86448287963867
aF197.74244689941406
aF15.346053123474121
aa(lp315
F38.86072540283203
aF197.74398803710938
aF15.34261703491211
aa(lp316
F38.856956481933594
aF197.74554443359375
aF15.339163780212402
aa(lp317
F38.85315704345703
aF197.74713134765625
aF15.335687637329102
aa(lp318
F38.84934997558594
aF197.7487030029297
aF15.332220077514648
aa(lp319
F38.84539794921875
aF197.75030517578125
aF15.328617095947266
aa(lp320
F38.84142303466797
aF197.7519073486328
aF15.324987411499023
aa(lp321
F38.837486267089844
aF197.75347900390625
aF15.321389198303223
aa(lp322
F38.83339309692383
aF197.75515747070312
aF15.317644119262695
aa(lp323
F38.829349517822266
aF197.75680541992188
aF15.313949584960938
aa(lp324
F38.825260162353516
aF197.7584686279297
aF15.31023120880127
aa(lp325
F38.821189880371094
aF197.76010131835938
aF15.3065185546875
aa(lp326
F38.81712341308594
aF197.7617645263672
aF15.302802085876465
aa(lp327
F38.812957763671875
aF197.763427734375
aF15.29900074005127
aa(lp328
F38.808753967285156
aF197.76512145996094
aF15.295165061950684
aa(lp329
F38.80445098876953
aF197.76690673828125
aF15.29122543334961
aa(lp330
F38.80010223388672
aF197.76869201660156
aF15.287251472473145
aa(lp331
F38.795719146728516
aF197.7705078125
aF15.283241271972656
aa(lp332
F38.79128646850586
aF197.77230834960938
aF15.279186248779297
aa(lp333
F38.7868766784668
aF197.7740936279297
aF15.27515983581543
aa(lp334
F38.78240203857422
aF197.7759246826172
aF15.271076202392578
aa(lp335
F38.77777862548828
aF197.7777862548828
aF15.266864776611328
aa(lp336
F38.77295684814453
aF197.77978515625
aF15.262469291687012
aa(lp337
F38.768184661865234
aF197.78175354003906
aF15.258126258850098
aa(lp338
F38.76337814331055
aF197.7837371826172
aF15.253738403320312
aa(lp339
F38.75852966308594
aF197.7856903076172
aF15.24930191040039
aa(lp340
F38.75362777709961
aF197.78770446777344
aF15.244819641113281
aa(lp341
F38.748802185058594
aF197.78965759277344
aF15.240426063537598
aa(lp342
F38.74403381347656
aF197.79161071777344
aF15.23608112335205
aa(lp343
F38.739234924316406
aF197.79356384277344
aF15.23169994354248
aa(lp344
F38.73442077636719
aF197.7955322265625
aF15.227302551269531
aa(lp345
F38.72958755493164
aF197.7975311279297
aF15.222888946533203
aa(lp346
F38.7248649597168
aF197.7994842529297
aF15.21855640411377
aa(lp347
F38.72014236450195
aF197.8014373779297
aF15.214235305786133
aa(lp348
F38.71541976928711
aF197.80340576171875
aF15.209908485412598
aa(lp349
F38.71071243286133
aF197.80532836914062
aF15.205595970153809
aa(lp350
F38.70592498779297
aF197.80734252929688
aF15.201214790344238
aa(lp351
F38.701148986816406
aF197.80934143066406
aF15.196845054626465
aa(lp352
F38.696353912353516
aF197.8113250732422
aF15.192464828491211
aa(lp353
F38.69156265258789
aF197.81332397460938
aF15.188075065612793
aa(lp354
F38.68667984008789
aF197.8153076171875
aF15.18361759185791
aa(lp355
F38.681793212890625
aF197.81729125976562
aF15.179150581359863
aa(lp356
F38.67695236206055
aF197.8192596435547
aF15.174705505371094
aa(lp357
F38.672122955322266
aF197.8212127685547
aF15.170275688171387
aa(lp358
F38.6672477722168
aF197.82321166992188
aF15.165817260742188
aa(lp359
F38.662410736083984
aF197.8251953125
aF15.161396980285645
aa(lp360
F38.65760803222656
aF197.82716369628906
aF15.157010078430176
aa(lp361
F38.65281295776367
aF197.8291473388672
aF15.152621269226074
aa(lp362
F38.64792251586914
aF197.83119201660156
aF15.148147583007812
aa(lp363
F38.643062591552734
aF197.8332061767578
aF15.14370346069336
aa(lp364
F38.638153076171875
aF197.83523559570312
aF15.139220237731934
aa(lp365
F38.63328552246094
aF197.8372344970703
aF15.134783744812012
aa(lp366
F38.628395080566406
aF197.83924865722656
aF15.13029670715332
aa(lp367
F38.62345886230469
aF197.84124755859375
aF15.12576961517334
aa(lp368
F38.618492126464844
aF197.84324645996094
aF15.12121868133545
aa(lp369
F38.61353302001953
aF197.8452606201172
aF15.116677284240723
aa(lp370
F38.60851287841797
aF197.84725952148438
aF15.112096786499023
aa(lp371
F38.60350799560547
aF197.84925842285156
aF15.107535362243652
aa(lp372
F38.598533630371094
aF197.8512420654297
aF15.103014945983887
aa(lp373
F38.59361267089844
aF197.85321044921875
aF15.098538398742676
aa(lp374
F38.588626861572266
aF197.855224609375
aF15.093997955322266
aa(lp375
F38.583641052246094
aF197.85728454589844
aF15.089439392089844
aa(lp376
F38.578712463378906
aF197.8593292236328
aF15.08492374420166
aa(lp377
F38.57398223876953
aF197.86129760742188
aF15.080595970153809
aa(lp378
F38.56918716430664
aF197.86325073242188
aF15.076216697692871
aa(lp379
F38.56441116333008
aF197.86520385742188
aF15.071860313415527
aa(lp380
F38.559566497802734
aF197.8671417236328
aF15.06744384765625
aa(lp381
F38.554622650146484
aF197.8690948486328
aF15.062922477722168
aa(lp382
F38.5495491027832
aF197.87110900878906
aF15.058279037475586
aa(lp383
F38.54448699951172
aF197.8731231689453
aF15.053625106811523
aa(lp384
F38.539371490478516
aF197.87518310546875
aF15.048932075500488
aa(lp385
F38.53431701660156
aF197.87722778320312
aF15.044286727905273
aa(lp386
F38.5292854309082
aF197.87924194335938
aF15.03967571258545
aa(lp387
F38.52418518066406
aF197.88131713867188
aF15.034988403320312
aa(lp388
F38.51911926269531
aF197.8833770751953
aF15.030343055725098
aa(lp389
F38.51404571533203
aF197.8854522705078
aF15.0256929397583
aa(lp390
F38.50897979736328
aF197.88751220703125
aF15.021039962768555
aa(lp391
F38.503929138183594
aF197.8896026611328
aF15.016397476196289
aa(lp392
F38.49885177612305
aF197.89169311523438
aF15.01173210144043
aa(lp393
F38.48392868041992
aF197.8977813720703
aF14.998059272766113
aa(lp394
F38.47894287109375
aF197.8997802734375
aF14.993497848510742
aa(lp395
F38.47391128540039
aF197.90184020996094
aF14.988887786865234
aa(lp396
F38.4688720703125
aF197.9038848876953
aF14.984254837036133
aa(lp397
F38.463722229003906
aF197.9059295654297
aF14.979535102844238
aa(lp398
F38.45856475830078
aF197.907958984375
aF14.974824905395508
aa(lp399
F38.45310592651367
aF197.91018676757812
aF14.96983528137207
aa(lp400
F38.447608947753906
aF197.91241455078125
aF14.964832305908203
aa(lp401
F38.44211959838867
aF197.91461181640625
aF14.95982551574707
aa(lp402
F38.43668746948242
aF197.91677856445312
aF14.954876899719238
aa(lp403
F38.43122100830078
aF197.9189910888672
aF14.949901580810547
aa(lp404
F38.425594329833984
aF197.92132568359375
aF14.944782257080078
aa(lp405
F38.419898986816406
aF197.9237060546875
aF14.939603805541992
aa(lp406
F38.41417694091797
aF197.92605590820312
aF14.93440055847168
aa(lp407
F38.40846252441406
aF197.9283905029297
aF14.929201126098633
aa(lp408
F38.402793884277344
aF197.93067932128906
aF14.924010276794434
aa(lp409
F38.397193908691406
aF197.93295288085938
aF14.918898582458496
aa(lp410
F38.39147186279297
aF197.93531799316406
aF14.913661003112793
aa(lp411
F38.385780334472656
aF197.9376983642578
aF14.908458709716797
aa(lp412
F38.38001251220703
aF197.9400634765625
aF14.903191566467285
aa(lp413
F38.37423324584961
aF197.94241333007812
aF14.897903442382812
aa(lp414
F38.36846923828125
aF197.9447479248047
aF14.892644882202148
aa(lp415
F38.362728118896484
aF197.9470672607422
aF14.887411117553711
aa(lp416
F38.35697555541992
aF197.94937133789062
aF14.882169723510742
aa(lp417
F38.35126876831055
aF197.95167541503906
aF14.876964569091797
aa(lp418
F38.34558868408203
aF197.95396423339844
aF14.871771812438965
aa(lp419
F38.339927673339844
aF197.9562225341797
aF14.866595268249512
aa(lp420
F38.3343505859375
aF197.95848083496094
aF14.861495971679688
aa(lp421
F38.3288459777832
aF197.960693359375
aF14.85645580291748
aa(lp422
F38.32332992553711
aF197.96292114257812
aF14.851415634155273
aa(lp423
F38.31785583496094
aF197.96514892578125
aF14.846417427062988
aa(lp424
F38.312355041503906
aF197.96739196777344
aF14.841386795043945
aa(lp425
F38.30685043334961
aF197.96963500976562
aF14.836347579956055
aa(lp426
F38.30133056640625
aF197.97190856933594
aF14.831297874450684
aa(lp427
F38.29582595825195
aF197.97418212890625
aF14.826251983642578
aa(lp428
F38.290283203125
aF197.9764404296875
aF14.821178436279297
aa(lp429
F38.28463363647461
aF197.97879028320312
aF14.815993309020996
aa(lp430
F38.279029846191406
aF197.98114013671875
aF14.810855865478516
aa(lp431
F38.27338790893555
aF197.9834747314453
aF14.805672645568848
aa(lp432
F38.26770782470703
aF197.98585510253906
aF14.800457954406738
aa(lp433
F38.26201629638672
aF197.98818969726562
aF14.795241355895996
aa(lp434
F38.256343841552734
aF197.99053955078125
aF14.790034294128418
aa(lp435
F38.25064468383789
aF197.99290466308594
aF14.784805297851562
aa(lp436
F38.244956970214844
aF197.9952392578125
aF14.779598236083984
aa(lp437
F38.23899459838867
aF197.9976043701172
aF14.774137496948242
aa(lp438
F38.23290252685547
aF198.00009155273438
aF14.768542289733887
aa(lp439
F38.22665786743164
aF198.00259399414062
aF14.762826919555664
aa(lp440
F38.2205810546875
aF198.0050506591797
aF14.757264137268066
aa(lp441
F38.214447021484375
aF198.0074920654297
aF14.751666069030762
aa(lp442
F38.20833969116211
aF198.0099639892578
aF14.74608325958252
aa(lp443
F38.20220947265625
aF198.01246643066406
aF14.740476608276367
aa(lp444
F38.19609451293945
aF198.0149688720703
aF14.734886169433594
aa(lp445
F38.190067291259766
aF198.01739501953125
aF14.729381561279297
aa(lp446
F38.18405532836914
aF198.01983642578125
aF14.723875045776367
aa(lp447
F38.17806625366211
aF198.0222930908203
aF14.71838665008545
aa(lp448
F38.1721076965332
aF198.0247344970703
aF14.712932586669922
aa(lp449
F38.166038513183594
aF198.0272674560547
aF14.707392692565918
aa(lp450
F38.159969329833984
aF198.02976989746094
aF14.701859474182129
aa(lp451
F38.153892517089844
aF198.03224182128906
aF14.696325302124023
aa(lp452
F38.1478385925293
aF198.03468322753906
aF14.690805435180664
aa(lp453
F38.14180374145508
aF198.03709411621094
aF14.685296058654785
aa(lp454
F38.13566970825195
aF198.03948974609375
aF14.679699897766113
aa(lp455
F38.129432678222656
aF198.04200744628906
aF14.673982620239258
aa(lp456
F38.12319564819336
aF198.04449462890625
aF14.668272972106934
aa(lp457
F38.11663818359375
aF198.0471954345703
aF14.662275314331055
aa(lp458
F38.110130310058594
aF198.04991149902344
aF14.656326293945312
aa(lp459
F38.103633880615234
aF198.05262756347656
aF14.650381088256836
aa(lp460
F38.09709167480469
aF198.0553436279297
aF14.64439868927002
aa(lp461
F38.090641021728516
aF198.0580291748047
aF14.638505935668945
aa(lp462
F38.08408737182617
aF198.0607452392578
aF14.632509231567383
aa(lp463
F38.07759475708008
aF198.06341552734375
aF14.626582145690918
aa(lp464
F38.07095718383789
aF198.06610107421875
aF14.620515823364258
aa(lp465
F38.06437301635742
aF198.06875610351562
aF14.614493370056152
aa(lp466
F38.05779266357422
aF198.0714111328125
aF14.60847282409668
aa(lp467
F38.05122756958008
aF198.07408142089844
aF14.602468490600586
aa(lp468
F38.044647216796875
aF198.0767822265625
aF14.596436500549316
aa(lp469
F38.03809356689453
aF198.0794677734375
aF14.590428352355957
aa(lp470
F38.031558990478516
aF198.08213806152344
aF14.584454536437988
aa(lp471
F38.02507400512695
aF198.08477783203125
aF14.578532218933105
aa(lp472
F38.01860809326172
aF198.0874481201172
aF14.572629928588867
aa(lp473
F38.01179885864258
aF198.09014892578125
aF14.566469192504883
aa(lp474
F38.00503158569336
aF198.09288024902344
aF14.560328483581543
aa(lp475
F37.99821472167969
aF198.09568786621094
aF14.554121017456055
aa(lp476
F37.99139404296875
aF198.09848022460938
aF14.547895431518555
aa(lp477
F37.9846305847168
aF198.1012420654297
aF14.541739463806152
aa(lp478
F37.97788619995117
aF198.1039276123047
aF14.535618782043457
aa(lp479
F37.971256256103516
aF198.10662841796875
aF14.529573440551758
aa(lp480
F37.964698791503906
aF198.1092529296875
aF14.523576736450195
aa(lp481
F37.95811462402344
aF198.1119384765625
aF14.517555236816406
aa(lp482
F37.951560974121094
aF198.11463928222656
aF14.511558532714844
aa(lp483
F37.94468688964844
aF198.11734008789062
aF14.505290985107422
aa(lp484
F37.937774658203125
aF198.1200408935547
aF14.49897575378418
aa(lp485
F37.930870056152344
aF198.12271118164062
aF14.492654800415039
aa(lp486
F37.923667907714844
aF198.12559509277344
aF14.486042976379395
aa(lp487
F37.91647720336914
aF198.1284637451172
aF14.47945499420166
aa(lp488
F37.90931701660156
aF198.13128662109375
aF14.472898483276367
aa(lp489
F37.902122497558594
aF198.1341094970703
aF14.466344833374023
aa(lp490
F37.895023345947266
aF198.13690185546875
aF14.459871292114258
aa(lp491
F37.887908935546875
aF198.13973999023438
aF14.453386306762695
aa(lp492
F37.88082504272461
aF198.14254760742188
aF14.446918487548828
aa(lp493
F37.87375259399414
aF198.14535522460938
aF14.440465927124023
aa(lp494
F37.86663055419922
aF198.1482391357422
aF14.433954238891602
aa(lp495
F37.85955047607422
aF198.15109252929688
aF14.427485466003418
aa(lp496
F37.85260009765625
aF198.15390014648438
aF14.421120643615723
aa(lp497
F37.84560775756836
aF198.15676879882812
aF14.414714813232422
aa(lp498
F37.83881378173828
aF198.1595458984375
aF14.408490180969238
aa(lp499
F37.83194351196289
aF198.16232299804688
aF14.40220832824707
aa(lp500
F37.82509231567383
aF198.1650848388672
aF14.395952224731445
aa(lp501
F37.81828308105469
aF198.1678466796875
aF14.389721870422363
aa(lp502
F37.81144714355469
aF198.1706085205078
aF14.383487701416016
aa(lp503
F37.80459213256836
aF198.17333984375
aF14.37725830078125
aa(lp504
F37.79769515991211
aF198.1761016845703
aF14.370973587036133
aa(lp505
F37.790889739990234
aF198.17884826660156
aF14.36477279663086
aa(lp506
F37.784053802490234
aF198.1815948486328
aF14.358522415161133
aa(lp507
F37.77717208862305
aF198.184326171875
aF14.352264404296875
aa(lp508
F37.770355224609375
aF198.18704223632812
aF14.346047401428223
aa(lp509
F37.76347351074219
aF198.1897735595703
aF14.339771270751953
aa(lp510
F37.75642776489258
aF198.19264221191406
aF14.333325386047363
aa(lp511
F37.74932098388672
aF198.1954803466797
aF14.32685375213623
aa(lp512
F37.74217224121094
aF198.19830322265625
aF14.320341110229492
aa(lp513
F37.734920501708984
aF198.20126342773438
aF14.31370735168457
aa(lp514
F37.72787094116211
aF198.20413208007812
aF14.307258605957031
aa(lp515
F37.72084045410156
aF198.20697021484375
aF14.30082893371582
aa(lp516
F37.71381378173828
aF198.2097625732422
aF14.294414520263672
aa(lp517
F37.70680618286133
aF198.2125701904297
aF14.288006782531738
aa(lp518
F37.68575668334961
aF198.22132873535156
aF14.268780708312988
aa(lp519
F37.678672790527344
aF198.22421264648438
aF14.262320518493652
aa(lp520
F37.67157745361328
aF198.22711181640625
aF14.255842208862305
aa(lp521
F37.664459228515625
aF198.23001098632812
aF14.249340057373047
aa(lp522
F37.657630920410156
aF198.2327880859375
aF14.243111610412598
aa(lp523
F37.65083312988281
aF198.2355499267578
aF14.236909866333008
aa(lp524
F37.64405059814453
aF198.2383270263672
aF14.230711936950684
aa(lp525
F37.63749313354492
aF198.24099731445312
aF14.224716186523438
aa(lp526
F37.63093948364258
aF198.24371337890625
aF14.218705177307129
aa(lp527
F37.624366760253906
aF198.2464141845703
aF14.212696075439453
aa(lp528
F37.61776351928711
aF198.2490997314453
aF14.206668853759766
aa(lp529
F37.61119079589844
aF198.2517547607422
aF14.200658798217773
aa(lp530
F37.6046142578125
aF198.25439453125
aF14.194644927978516
aa(lp531
F37.5980339050293
aF198.25701904296875
aF14.18860912322998
aa(lp532
F37.591487884521484
aF198.25962829589844
aF14.182621002197266
aa(lp533
F37.584896087646484
aF198.26229858398438
aF14.176594734191895
aa(lp534
F37.57823181152344
aF198.2649688720703
aF14.170513153076172
aa(lp535
F37.57157516479492
aF198.26760864257812
aF14.164409637451172
aa(lp536
F37.564979553222656
aF198.27023315429688
aF14.158384323120117
aa(lp537
F37.558380126953125
aF198.2728729248047
aF14.152359962463379
aa(lp538
F37.5517692565918
aF198.27548217773438
aF14.146297454833984
aa(lp539
F37.54499816894531
aF198.27822875976562
aF14.140106201171875
aa(lp540
F37.5381965637207
aF198.28102111816406
aF14.13388442993164
aa(lp541
F37.53144836425781
aF198.28378295898438
aF14.127708435058594
aa(lp542
F37.52470397949219
aF198.28651428222656
aF14.121541023254395
aa(lp543
F37.517845153808594
aF198.2892303466797
aF14.115288734436035
aa(lp544
F37.510833740234375
aF198.29209899902344
aF14.10887336730957
aa(lp545
F37.50373840332031
aF198.29493713378906
aF14.102401733398438
aa(lp546
F37.496604919433594
aF198.2977294921875
aF14.09589958190918
aa(lp547
F37.4893798828125
aF198.30062866210938
aF14.089326858520508
aa(lp548
F37.48224639892578
aF198.30348205566406
aF14.082806587219238
aa(lp549
F37.47514343261719
aF198.306396484375
aF14.076274871826172
aa(lp550
F37.46798324584961
aF198.30938720703125
aF14.069698333740234
aa(lp551
F37.46092987060547
aF198.31231689453125
aF14.063230514526367
aa(lp552
F37.45394515991211
aF198.31521606445312
aF14.056842803955078
aa(lp553
F37.446388244628906
aF198.31820678710938
aF14.04996109008789
aa(lp554
F37.438907623291016
aF198.3211669921875
aF14.043152809143066
aa(lp555
F37.43134307861328
aF198.32423400878906
aF14.036239624023438
aa(lp556
F37.42350387573242
aF198.32752990722656
aF14.029074668884277
aa(lp557
F37.41554641723633
aF198.330810546875
aF14.02172565460205
aa(lp558
F37.40764236450195
aF198.3340606689453
aF14.014469146728516
aa(lp559
F37.39971923828125
aF198.3373260498047
aF14.007237434387207
aa(lp560
F37.391944885253906
aF198.34054565429688
aF14.000134468078613
aa(lp561
F37.38420486450195
aF198.34375
aF13.993070602416992
aa(lp562
F37.376468658447266
aF198.34695434570312
aF13.985980987548828
aa(lp563
F37.368743896484375
aF198.3501739501953
aF13.978922843933105
aa(lp564
F37.36104202270508
aF198.35340881347656
aF13.971866607666016
aa(lp565
F37.352909088134766
aF198.35667419433594
aF13.964408874511719
aa(lp566
F37.34481430053711
aF198.35995483398438
aF13.956989288330078
aa(lp567
F37.336753845214844
aF198.36322021484375
aF13.94963550567627
aa(lp568
F37.32865524291992
aF198.366455078125
aF13.94222354888916
aa(lp569
F37.32048416137695
aF198.36965942382812
aF13.934764862060547
aa(lp570
F37.312137603759766
aF198.37301635742188
aF13.927155494689941
aa(lp571
F37.30387878417969
aF198.37635803222656
aF13.919617652893066
aa(lp572
F37.29557418823242
aF198.37977600097656
aF13.912022590637207
aa(lp573
F37.28725814819336
aF198.38320922851562
aF13.904413223266602
aa(lp574
F37.27891159057617
aF198.38658142089844
aF13.896810531616211
aa(lp575
F37.2705192565918
aF198.389892578125
aF13.889188766479492
aa(lp576
F37.262088775634766
aF198.39324951171875
aF13.881519317626953
aa(lp577
F37.25356674194336
aF198.39674377441406
aF13.873736381530762
aa(lp578
F37.244911193847656
aF198.40036010742188
aF13.86583423614502
aa(lp579
F37.23631286621094
aF198.4039306640625
aF13.857993125915527
aa(lp580
F37.227874755859375
aF198.4073944091797
aF13.850276947021484
aa(lp581
F37.21946716308594
aF198.4108428955078
aF13.842573165893555
aa(lp582
F37.211055755615234
aF198.41433715820312
aF13.834859848022461
aa(lp583
F37.20263671875
aF198.41783142089844
aF13.82716178894043
aa(lp584
F37.19426345825195
aF198.4213409423828
aF13.819490432739258
aa(lp585
F37.1859130859375
aF198.4249267578125
aF13.811826705932617
aa(lp586
F37.17765808105469
aF198.428466796875
aF13.804298400878906
aa(lp587
F37.16935729980469
aF198.4319610595703
aF13.796712875366211
aa(lp588
F37.161041259765625
aF198.43539428710938
aF13.789113998413086
aa(lp589
F37.15263366699219
aF198.43881225585938
aF13.781437873840332
aa(lp590
F37.144290924072266
aF198.4422607421875
aF13.773787498474121
aa(lp591
F37.13602066040039
aF198.4457244873047
aF13.766196250915527
aa(lp592
F37.12761688232422
aF198.44915771484375
aF13.7584810256958
aa(lp593
F37.119232177734375
aF198.45254516601562
aF13.750811576843262
aa(lp594
F37.11099624633789
aF198.4559783935547
aF13.743270874023438
aa(lp595
F37.1026611328125
aF198.45936584472656
aF13.735650062561035
aa(lp596
F37.09445571899414
aF198.46267700195312
aF13.728139877319336
aa(lp597
F37.086429595947266
aF198.46597290039062
aF13.720785140991211
aa(lp598
F37.0784912109375
aF198.4691619873047
aF13.713531494140625
aa(lp599
F37.07057189941406
aF198.4723663330078
aF13.706286430358887
aa(lp600
F37.062740325927734
aF198.47555541992188
aF13.699126243591309
aa(lp601
F37.05487060546875
aF198.47874450683594
aF13.69189739227295
aa(lp602
F37.04692077636719
aF198.48193359375
aF13.6846342086792
aa(lp603
F37.03900909423828
aF198.485107421875
aF13.677385330200195
aa(lp604
F37.03105926513672
aF198.48834228515625
aF13.670108795166016
aa(lp605
F37.02309799194336
aF198.49159240722656
aF13.662843704223633
aa(lp606
F37.01545333862305
aF198.4947052001953
aF13.65585994720459
aa(lp607
F37.007835388183594
aF198.49778747558594
aF13.648940086364746
aa(lp608
F37.000244140625
aF198.50088500976562
aF13.642054557800293
aa(lp609
F36.99250411987305
aF198.50396728515625
aF13.635004997253418
aa(lp610
F36.98485565185547
aF198.50701904296875
aF13.628049850463867
aa(lp611
F36.97734832763672
aF198.5100555419922
aF13.621224403381348
aa(lp612
F36.96982192993164
aF198.51304626464844
aF13.614407539367676
aa(lp613
F36.96233367919922
aF198.5160675048828
aF13.607593536376953
aa(lp614
F36.95442581176758
aF198.5191192626953
aF13.60041618347168
aa(lp615
F36.94660186767578
aF198.522216796875
aF13.593289375305176
aa(lp616
F36.93879699707031
aF198.52528381347656
aF13.586216926574707
aa(lp617
F36.93096160888672
aF198.52845764160156
aF13.579073905944824
aa(lp618
F36.923248291015625
aF198.53158569335938
aF13.572017669677734
aa(lp619
F36.91558837890625
aF198.53475952148438
aF13.565001487731934
aa(lp620
F36.907833099365234
aF198.53790283203125
aF13.557889938354492
aa(lp621
F36.90009307861328
aF198.54107666015625
aF13.550803184509277
aa(lp622
F36.892242431640625
aF198.54420471191406
aF13.543652534484863
aa(lp623
F36.884361267089844
aF198.54730224609375
aF13.536462783813477
aa(lp624
F36.876426696777344
aF198.5504608154297
aF13.529210090637207
aa(lp625
F36.8685302734375
aF198.55360412597656
aF13.522002220153809
aa(lp626
F36.86027526855469
aF198.5570526123047
aF13.514458656311035
aa(lp627
F36.851863861083984
aF198.56048583984375
aF13.5067777633667
aa(lp628
F36.84344482421875
aF198.5638427734375
aF13.499099731445312
aa(lp629
F36.835121154785156
aF198.56719970703125
aF13.491530418395996
aa(lp630
F36.826759338378906
aF198.5705108642578
aF13.483917236328125
aa(lp631
F36.8183479309082
aF198.57394409179688
aF13.476261138916016
aa(lp632
F36.80994415283203
aF198.5773468017578
aF13.468597412109375
aa(lp633
F36.80169677734375
aF198.5806884765625
aF13.461060523986816
aa(lp634
F36.79338836669922
aF198.5840606689453
aF13.453451156616211
aa(lp635
F36.78526306152344
aF198.58734130859375
aF13.446009635925293
aa(lp636
F36.77718734741211
aF198.5906219482422
aF13.438621520996094
aa(lp637
F36.76923751831055
aF198.5938720703125
aF13.431342124938965
aa(lp638
F36.761146545410156
aF198.59725952148438
aF13.423943519592285
aa(lp639
F36.753150939941406
aF198.60057067871094
aF13.416613578796387
aa(lp640
F36.745094299316406
aF198.6039581298828
aF13.409232139587402
aa(lp641
F36.73705291748047
aF198.60733032226562
aF13.401864051818848
aa(lp642
F36.72906494140625
aF198.6106719970703
aF13.394569396972656
aa(lp643
F36.70511245727539
aF198.6206512451172
aF13.37271499633789
aa(lp644
F36.69703674316406
aF198.6240692138672
aF13.365324974060059
aa(lp645
F36.6890754699707
aF198.62744140625
aF13.357988357543945
aa(lp646
F36.68103790283203
aF198.6307830810547
aF13.35060977935791
aa(lp647
F36.673004150390625
aF198.63414001464844
aF13.34325885772705
aa(lp648
F36.66476058959961
aF198.63746643066406
aF13.335716247558594
aa(lp649
F36.65642547607422
aF198.64076232910156
aF13.32812213897705
aa(lp650
F36.64816665649414
aF198.6439971923828
aF13.320576667785645
aa(lp651
F36.639930725097656
aF198.64723205566406
aF13.31308364868164
aa(lp652
F36.6313591003418
aF198.6507568359375
aF13.305261611938477
aa(lp653
F36.62305450439453
aF198.65423583984375
aF13.297647476196289
aa(lp654
F36.61469268798828
aF198.6576385498047
aF13.289993286132812
aa(lp655
F36.60625076293945
aF198.66116333007812
aF13.282275199890137
aa(lp656
F36.59785461425781
aF198.66468811035156
aF13.274620056152344
aa(lp657
F36.58946990966797
aF198.66818237304688
aF13.2669677734375
aa(lp658
F36.58100128173828
aF198.67161560058594
aF13.259242057800293
aa(lp659
F36.572452545166016
aF198.6751708984375
aF13.25143051147461
aa(lp660
F36.56387710571289
aF198.6787109375
aF13.243563652038574
aa(lp661
F36.555355072021484
aF198.68214416503906
aF13.235819816589355
aa(lp662
F36.54684066772461
aF198.68553161621094
aF13.2280855178833
aa(lp663
F36.538414001464844
aF198.68893432617188
aF13.22041130065918
aa(lp664
F36.52994918823242
aF198.69236755371094
aF13.212708473205566
aa(lp665
F36.521888732910156
aF198.6956787109375
aF13.205351829528809
aa(lp666
F36.513919830322266
aF198.69894409179688
aF13.198060989379883
aa(lp667
F36.506011962890625
aF198.70211791992188
aF13.190848350524902
aa(lp668
F36.498016357421875
aF198.70538330078125
aF13.183540344238281
aa(lp669
F36.48990249633789
aF198.70858764648438
aF13.176172256469727
aa(lp670
F36.48181915283203
aF198.71176147460938
aF13.16882610321045
aa(lp671
F36.47374725341797
aF198.7150115966797
aF13.161458969116211
aa(lp672
F36.46556854248047
aF198.7183837890625
aF13.15399169921875
aa(lp673
F36.45746612548828
aF198.72171020507812
aF13.146580696105957
aa(lp674
F36.449363708496094
aF198.72500610351562
aF13.139202117919922
aa(lp675
F36.44124221801758
aF198.7283172607422
aF13.131768226623535
aa(lp676
F36.43289566040039
aF198.7315673828125
aF13.124159812927246
aa(lp677
F36.42429733276367
aF198.7350616455078
aF13.116251945495605
aa(lp678
F36.41571807861328
aF198.73854064941406
aF13.108366966247559
aa(lp679
F36.40713882446289
aF198.74197387695312
aF13.100518226623535
aa(lp680
F36.39855194091797
aF198.74537658691406
aF13.092637062072754
aa(lp681
F36.38992691040039
aF198.7487335205078
aF13.084731101989746
aa(lp682
F36.3812370300293
aF198.7522430419922
aF13.076751708984375
aa(lp683
F36.372581481933594
aF198.7557373046875
aF13.06885814666748
aa(lp684
F36.363731384277344
aF198.75917053222656
aF13.06079387664795
aa(lp685
F36.35486602783203
aF198.76271057128906
aF13.052729606628418
aa(lp686
F36.34602355957031
aF198.76626586914062
aF13.044679641723633
aa(lp687
F36.33720397949219
aF198.76979064941406
aF13.036680221557617
aa(lp688
F36.32841873168945
aF198.7733612060547
aF13.0286865234375
aa(lp689
F36.31985092163086
aF198.77688598632812
aF13.020846366882324
aa(lp690
F36.3112678527832
aF198.7803497314453
aF13.01301097869873
aa(lp691
F36.30262756347656
aF198.7837677001953
aF13.005169868469238
aa(lp692
F36.2939453125
aF198.78729248046875
aF12.997264862060547
aa(lp693
F36.285526275634766
aF198.79075622558594
aF12.989562034606934
aa(lp694
F36.27711486816406
aF198.79417419433594
aF12.981886863708496
aa(lp695
F36.26876449584961
aF198.797607421875
aF12.974236488342285
aa(lp696
F36.26051330566406
aF198.80096435546875
aF12.966675758361816
aa(lp697
F36.25230026245117
aF198.8042449951172
aF12.959147453308105
aa(lp698
F36.243770599365234
aF198.8077850341797
aF12.951342582702637
aa(lp699
F36.2353515625
aF198.81124877929688
aF12.9436674118042
aa(lp700
F36.22710418701172
aF198.81463623046875
aF12.936137199401855
aa(lp701
F36.218875885009766
aF198.8180389404297
aF12.928607940673828
aa(lp702
F36.21064758300781
aF198.8213653564453
aF12.921079635620117
aa(lp703
F36.20240783691406
aF198.82472229003906
aF12.913555145263672
aa(lp704
F36.19411087036133
aF198.82803344726562
aF12.905990600585938
aa(lp705
F36.1857795715332
aF198.83140563964844
aF12.898372650146484
aa(lp706
F36.177330017089844
aF198.83468627929688
aF12.890667915344238
aa(lp707
F36.16881561279297
aF198.8379364013672
aF12.88288402557373
aa(lp708
F36.16035842895508
aF198.84121704101562
aF12.875197410583496
aa(lp709
F36.15190124511719
aF198.84449768066406
aF12.86752700805664
aa(lp710
F36.14347839355469
aF198.84786987304688
aF12.85986614227295
aa(lp711
F36.1351318359375
aF198.85122680664062
aF12.85224723815918
aa(lp712
F36.12666702270508
aF198.85452270507812
aF12.844550132751465
aa(lp713
F36.11826705932617
aF198.85777282714844
aF12.836918830871582
aa(lp714
F36.10966491699219
aF198.86123657226562
aF12.82906723022461
aa(lp715
F36.1010627746582
aF198.86476135253906
aF12.821224212646484
aa(lp716
F36.0924186706543
aF198.86825561523438
aF12.813346862792969
aa(lp717
F36.08401107788086
aF198.8716583251953
aF12.80569839477539
aa(lp718
F36.07579803466797
aF198.87496948242188
aF12.798237800598145
aa(lp719
F36.06761169433594
aF198.8782501220703
aF12.79073715209961
aa(lp720
F36.05949020385742
aF198.88148498535156
aF12.7833251953125
aa(lp721
F36.051246643066406
aF198.88470458984375
aF12.775834083557129
aa(lp722
F36.04301071166992
aF198.88792419433594
aF12.768383026123047
aa(lp723
F36.034915924072266
aF198.89114379882812
aF12.761025428771973
aa(lp724
F36.02684020996094
aF198.89439392089844
aF12.753695487976074
aa(lp725
F36.01888656616211
aF198.8975830078125
aF12.746458053588867
aa(lp726
F36.01095962524414
aF198.90077209472656
aF12.73922061920166
aa(lp727
F36.00305938720703
aF198.90403747558594
aF12.731999397277832
aa(lp728
F35.99491882324219
aF198.90725708007812
aF12.724574089050293
aa(lp729
F35.98672866821289
aF198.9105987548828
aF12.717062950134277
aa(lp730
F35.97847366333008
aF198.9138641357422
aF12.709519386291504
aa(lp731
F35.97024917602539
aF198.9171600341797
aF12.701971054077148
aa(lp732
F35.96208572387695
aF198.92041015625
aF12.69450569152832
aa(lp733
F35.954017639160156
aF198.92361450195312
aF12.687141418457031
aa(lp734
F35.94587326049805
aF198.92691040039062
aF12.679722785949707
aa(lp735
F35.93781280517578
aF198.93020629882812
aF12.672351837158203
aa(lp736
F35.92978286743164
aF198.9335174560547
aF12.66500473022461
aa(lp737
F35.92177963256836
aF198.93682861328125
aF12.657700538635254
aa(lp738
F35.91373062133789
aF198.94009399414062
aF12.650357246398926
aa(lp739
F35.9058952331543
aF198.94326782226562
aF12.643187522888184
aa(lp740
F35.89809799194336
aF198.94642639160156
aF12.636048316955566
aa(lp741
F35.890167236328125
aF198.94976806640625
aF12.628777503967285
aa(lp742
F35.88207244873047
aF198.95306396484375
aF12.621336936950684
aa(lp743
F35.873931884765625
aF198.9564666748047
aF12.61389446258545
aa(lp744
F35.86581039428711
aF198.95982360839844
aF12.606486320495605
aa(lp745
F35.85770797729492
aF198.963134765625
aF12.599138259887695
aa(lp746
F35.849700927734375
aF198.96640014648438
aF12.591854095458984
aa(lp747
F35.841819763183594
aF198.96961975097656
aF12.584640502929688
aa(lp748
F35.834022521972656
aF198.9728240966797
aF12.577515602111816
aa(lp749
F35.82619094848633
aF198.9759979248047
aF12.570343971252441
aa(lp750
F35.818382263183594
aF198.97918701171875
aF12.563188552856445
aa(lp751
F35.81065368652344
aF198.98228454589844
aF12.556129455566406
aa(lp752
F35.802947998046875
aF198.98536682128906
aF12.549093246459961
aa(lp753
F35.79521179199219
aF198.9884033203125
aF12.542037010192871
aa(lp754
F35.78761672973633
aF198.99142456054688
aF12.535089492797852
aa(lp755
F35.78010940551758
aF198.994384765625
aF12.528193473815918
aa(lp756
F35.77263641357422
aF198.9973907470703
aF12.521333694458008
aa(lp757
F35.76516342163086
aF199.00038146972656
aF12.514508247375488
aa(lp758
F35.75761413574219
aF199.0034942626953
aF12.507588386535645
aa(lp759
F35.750091552734375
aF199.00656127929688
aF12.50074291229248
aa(lp760
F35.742576599121094
aF199.0095672607422
aF12.49387264251709
aa(lp761
F35.735015869140625
aF199.01255798339844
aF12.48701286315918
aa(lp762
F35.72743225097656
aF199.01564025878906
aF12.480130195617676
aa(lp763
F35.719764709472656
aF199.0186767578125
aF12.473167419433594
aa(lp764
F35.712120056152344
aF199.0216522216797
aF12.466197967529297
aa(lp765
F35.704246520996094
aF199.0248565673828
aF12.459006309509277
aa(lp766
F35.69630813598633
aF199.02821350097656
aF12.45175552368164
aa(lp767
F35.68812561035156
aF199.03152465820312
aF12.444293975830078
aa(lp768
F35.66440200805664
aF199.04129028320312
aF12.422476768493652
aa(lp769
F35.65646743774414
aF199.04454040527344
aF12.415193557739258
aa(lp770
F35.64860534667969
aF199.0478057861328
aF12.40799617767334
aa(lp771
F35.640682220458984
aF199.05104064941406
aF12.400753021240234
aa(lp772
F35.63279724121094
aF199.05435180664062
aF12.393518447875977
aa(lp773
F35.62490463256836
aF199.0576171875
aF12.386271476745605
aa(lp774
F35.61707305908203
aF199.0608367919922
aF12.379087448120117
aa(lp775
F35.60920715332031
aF199.06407165527344
aF12.371832847595215
aa(lp776
F35.60127258300781
aF199.0672607421875
aF12.364547729492188
aa(lp777
F35.59330368041992
aF199.0706024169922
aF12.357239723205566
aa(lp778
F35.58523178100586
aF199.07395935058594
aF12.34984016418457
aa(lp779
F35.57722091674805
aF199.07725524902344
aF12.342493057250977
aa(lp780
F35.569332122802734
aF199.08050537109375
aF12.33528995513916
aa(lp781
F35.561580657958984
aF199.08367919921875
aF12.328228950500488
aa(lp782
F35.55384063720703
aF199.08676147460938
aF12.32115650177002
aa(lp783
F35.54608154296875
aF199.08984375
aF12.314062118530273
aa(lp784
F35.53839874267578
aF199.09292602539062
aF12.307035446166992
aa(lp785
F35.53059387207031
aF199.09619140625
aF12.299837112426758
aa(lp786
F35.52278518676758
aF199.0994110107422
aF12.292665481567383
aa(lp787
F35.51493453979492
aF199.10263061523438
aF12.285470008850098
aa(lp788
F35.507171630859375
aF199.1058349609375
aF12.278359413146973
aa(lp789
F35.4993782043457
aF199.1090545654297
aF12.271208763122559
aa(lp790
F35.49165725708008
aF199.11228942871094
aF12.26409912109375
aa(lp791
F35.483951568603516
aF199.11553955078125
aF12.25698184967041
aa(lp792
F35.476295471191406
aF199.1188201904297
aF12.249910354614258
aa(lp793
F35.468605041503906
aF199.1221923828125
aF12.24279499053955
aa(lp794
F35.46078872680664
aF199.12548828125
aF12.235589981079102
aa(lp795
F35.45285415649414
aF199.1287078857422
aF12.228306770324707
aa(lp796
F35.44488525390625
aF199.13186645507812
aF12.220990180969238
aa(lp797
F35.436954498291016
aF199.13507080078125
aF12.21370792388916
aa(lp798
F35.42902374267578
aF199.13827514648438
aF12.20644474029541
aa(lp799
F35.42063903808594
aF199.1414337158203
aF12.198807716369629
aa(lp800
F35.41189956665039
aF199.1449432373047
aF12.19084644317627
aa(lp801
F35.40325927734375
aF199.14845275878906
aF12.182965278625488
aa(lp802
F35.39471435546875
aF199.15187072753906
aF12.175140380859375
aa(lp803
F35.386192321777344
aF199.15525817871094
aF12.167303085327148
aa(lp804
F35.377838134765625
aF199.15866088867188
aF12.159647941589355
aa(lp805
F35.369598388671875
aF199.16192626953125
aF12.152084350585938
aa(lp806
F35.36146926879883
aF199.1652069091797
aF12.144560813903809
aa(lp807
F35.353397369384766
aF199.16848754882812
aF12.13713550567627
aa(lp808
F35.34535217285156
aF199.17176818847656
aF12.129765510559082
aa(lp809
F35.33732604980469
aF199.1749725341797
aF12.122414588928223
aa(lp810
F35.32939910888672
aF199.17813110351562
aF12.115137100219727
aa(lp811
F35.32141876220703
aF199.18142700195312
aF12.107791900634766
aa(lp812
F35.31341552734375
aF199.1846923828125
aF12.100448608398438
aa(lp813
F35.305416107177734
aF199.1880340576172
aF12.093087196350098
aa(lp814
F35.29705047607422
aF199.19129943847656
aF12.085444450378418
aa(lp815
F35.288482666015625
aF199.19483947753906
aF12.077617645263672
aa(lp816
F35.27969741821289
aF199.1982879638672
aF12.069619178771973
aa(lp817
F35.270904541015625
aF199.2017822265625
aF12.061553001403809
aa(lp818
F35.26234817504883
aF199.20516967773438
aF12.05371379852295
aa(lp819
F35.253780364990234
aF199.20864868164062
aF12.045866966247559
aa(lp820
F35.245174407958984
aF199.2120819091797
aF12.037984848022461
aa(lp821
F35.23646545410156
aF199.21543884277344
aF12.030065536499023
aa(lp822
F35.22776412963867
aF199.21884155273438
aF12.022149085998535
aa(lp823
F35.21908187866211
aF199.22215270996094
aF12.014274597167969
aa(lp824
F35.21038055419922
aF199.2254638671875
aF12.006389617919922
aa(lp825
F35.20167541503906
aF199.2288818359375
aF11.998446464538574
aa(lp826
F35.193084716796875
aF199.23220825195312
aF11.990629196166992
aa(lp827
F35.184505462646484
aF199.23565673828125
aF11.982765197753906
aa(lp828
F35.175899505615234
aF199.23915100097656
aF11.974873542785645
aa(lp829
F35.167259216308594
aF199.24266052246094
aF11.966943740844727
aa(lp830
F35.1586799621582
aF199.24610900878906
aF11.959068298339844
aa(lp831
F35.15011215209961
aF199.24952697753906
aF11.951251029968262
aa(lp832
F35.141563415527344
aF199.2530517578125
aF11.94340991973877
aa(lp833
F35.13301467895508
aF199.25653076171875
aF11.935577392578125
aa(lp834
F35.12450408935547
aF199.2600860595703
aF11.927774429321289
aa(lp835
F35.11612319946289
aF199.26356506347656
aF11.920166969299316
aa(lp836
F35.10776138305664
aF199.2671661376953
aF11.91252326965332
aa(lp837
F35.09933090209961
aF199.27066040039062
aF11.904836654663086
aa(lp838
F35.09071731567383
aF199.27406311035156
aF11.89698600769043
aa(lp839
F35.08216857910156
aF199.2775421142578
aF11.889177322387695
aa(lp840
F35.073909759521484
aF199.28097534179688
aF11.88159465789795
aa(lp841
F35.065956115722656
aF199.28436279296875
aF11.874296188354492
aa(lp842
F35.05805206298828
aF199.2876739501953
aF11.867006301879883
aa(lp843
F35.050048828125
aF199.2909393310547
aF11.859647750854492
aa(lp844
F35.04203796386719
aF199.2941436767578
aF11.852252006530762
aa(lp845
F35.03408432006836
aF199.2974090576172
aF11.844938278198242
aa(lp846
F35.02605438232422
aF199.3006134033203
aF11.837568283081055
aa(lp847
F35.01805877685547
aF199.3038787841797
aF11.830238342285156
aa(lp848
F35.00992202758789
aF199.30706787109375
aF11.822826385498047
aa(lp849
F35.00182342529297
aF199.31027221679688
aF11.815478324890137
aa(lp850
F34.99370574951172
aF199.3135223388672
aF11.808090209960938
aa(lp851
F34.98562240600586
aF199.31689453125
aF11.800682067871094
aa(lp852
F34.97761535644531
aF199.32025146484375
aF11.793350219726562
aa(lp853
F34.969581604003906
aF199.32362365722656
aF11.785987854003906
aa(lp854
F34.96167755126953
aF199.32687377929688
aF11.778685569763184
aa(lp855
F34.95397186279297
aF199.3300018310547
aF11.771581649780273
aa(lp856
F34.946502685546875
aF199.33302307128906
aF11.7647066116333
aa(lp857
F34.939231872558594
aF199.33596801757812
aF11.7579984664917
aa(lp858
F34.93198013305664
aF199.3389434814453
aF11.751313209533691
aa(lp859
F34.9246826171875
aF199.34185791015625
aF11.744582176208496
aa(lp860
F34.91740036010742
aF199.34471130371094
aF11.737914085388184
aa(lp861
F34.91001892089844
aF199.34774780273438
aF11.7311429977417
aa(lp862
F34.90260314941406
aF199.35067749023438
aF11.724348068237305
aa(lp863
F34.895233154296875
aF199.3536376953125
aF11.717607498168945
aa(lp864
F34.88789367675781
aF199.35659790039062
aF11.710882186889648
aa(lp865
F34.88058090209961
aF199.3595428466797
aF11.704197883605957
aa(lp866
F34.873287200927734
aF199.36251831054688
aF11.697487831115723
aa(lp867
F34.86605453491211
aF199.36546325683594
aF11.690866470336914
aa(lp868
F34.8587760925293
aF199.3683319091797
aF11.684225082397461
aa(lp869
F34.85146713256836
aF199.371337890625
aF11.677544593811035
aa(lp870
F34.8441047668457
aF199.37432861328125
aF11.67080307006836
aa(lp871
F34.836708068847656
aF199.37722778320312
aF11.664055824279785
aa(lp872
F34.829139709472656
aF199.38035583496094
aF11.657113075256348
aa(lp873
F34.82157516479492
aF199.3834228515625
aF11.650242805480957
aa(lp874
F34.814064025878906
aF199.38650512695312
aF11.643349647521973
aa(lp875
F34.80659484863281
aF199.3896484375
aF11.636484146118164
aa(lp876
F34.79902267456055
aF199.39273071289062
aF11.629536628723145
aa(lp877
F34.7915153503418
aF199.3958282470703
aF11.62265396118164
aa(lp878
F34.78401565551758
aF199.39883422851562
aF11.61585521697998
aa(lp879
F34.776615142822266
aF199.40187072753906
aF11.609129905700684
aa(lp880
F34.76924514770508
aF199.40484619140625
aF11.602435111999512
aa(lp881
F34.76192092895508
aF199.40785217285156
aF11.595768928527832
aa(lp882
F34.754695892333984
aF199.4108123779297
aF11.589188575744629
aa(lp883
F34.74744415283203
aF199.41372680664062
aF11.582592964172363
aa(lp884
F34.74026870727539
aF199.41668701171875
aF11.576033592224121
aa(lp885
F34.733123779296875
aF199.4196319580078
aF11.569551467895508
aa(lp886
F34.72597122192383
aF199.42254638671875
aF11.563003540039062
aa(lp887
F34.71889114379883
aF199.42550659179688
aF11.556534767150879
aa(lp888
F34.711814880371094
aF199.42849731445312
aF11.550073623657227
aa(lp889
F34.70462417602539
aF199.43136596679688
aF11.543514251708984
aa(lp890
F34.697391510009766
aF199.43421936035156
aF11.536924362182617
aa(lp891
F34.69021224975586
aF199.43702697753906
aF11.530397415161133
aa(lp892
F34.683135986328125
aF199.43978881835938
aF11.52391242980957
aa(lp893
F34.66189193725586
aF199.4483642578125
aF11.504355430603027
aa(lp894
F34.65481185913086
aF199.45115661621094
aF11.497838020324707
aa(lp895
F34.64768981933594
aF199.4539337158203
aF11.491312980651855
aa(lp896
F34.64057159423828
aF199.4567108154297
aF11.484809875488281
aa(lp897
F34.633365631103516
aF199.45968627929688
aF11.478196144104004
aa(lp898
F34.62615203857422
aF199.46261596679688
aF11.471592903137207
aa(lp899
F34.61894989013672
aF199.46556091308594
aF11.465004920959473
aa(lp900
F34.61186981201172
aF199.468505859375
aF11.458508491516113
aa(lp901
F34.60479736328125
aF199.47134399414062
aF11.452047348022461
aa(lp902
F34.597389221191406
aF199.47409057617188
aF11.445335388183594
aa(lp903
F34.589942932128906
aF199.47679138183594
aF11.438604354858398
aa(lp904
F34.58238220214844
aF199.47967529296875
aF11.431720733642578
aa(lp905
F34.574928283691406
aF199.4825439453125
aF11.4249267578125
aa(lp906
F34.56745910644531
aF199.48541259765625
aF11.41817569732666
aa(lp907
F34.55998992919922
aF199.4884490966797
aF11.41121768951416
aa(lp908
F34.55251693725586
aF199.4916229248047
aF11.404297828674316
aa(lp909
F34.545066833496094
aF199.4947509765625
aF11.397455215454102
aa(lp910
F34.53766632080078
aF199.49783325195312
aF11.390690803527832
aa(lp911
F34.5304069519043
aF199.5009002685547
aF11.384049415588379
aa(lp912
F34.523277282714844
aF199.50392150878906
aF11.377551078796387
aa(lp913
F34.51570129394531
aF199.50686645507812
aF11.37061595916748
aa(lp914
F34.50813293457031
aF199.50990295410156
aF11.363716125488281
aa(lp915
F34.50068283081055
aF199.5128936767578
aF11.35694408416748
aa(lp916
F34.493228912353516
aF199.51588439941406
aF11.350141525268555
aa(lp917
F34.485809326171875
aF199.51878356933594
aF11.343393325805664
aa(lp918
F34.47838592529297
aF199.52174377441406
aF11.336636543273926
aa(lp919
F34.47087860107422
aF199.52464294433594
aF11.329832077026367
aa(lp920
F34.46335220336914
aF199.5276336669922
aF11.322955131530762
aa(lp921
F34.45576858520508
aF199.53054809570312
aF11.316030502319336
aa(lp922
F34.448211669921875
aF199.53355407714844
aF11.309130668640137
aa(lp923
F34.440711975097656
aF199.53659057617188
aF11.302245140075684
aa(lp924
F34.43312454223633
aF199.53965759277344
aF11.295331954956055
aa(lp925
F34.42562484741211
aF199.54270935058594
aF11.288520812988281
aa(lp926
F34.41820526123047
aF199.54579162597656
aF11.2817964553833
aa(lp927
F34.41080856323242
aF199.5488739013672
aF11.275068283081055
aa(lp928
F34.40359115600586
aF199.55181884765625
aF11.268510818481445
aa(lp929
F34.39634704589844
aF199.55484008789062
aF11.261877059936523
aa(lp930
F34.389163970947266
aF199.557861328125
aF11.255311012268066
aa(lp931
F34.3818359375
aF199.56077575683594
aF11.248510360717773
aa(lp932
F34.374507904052734
aF199.56370544433594
aF11.241748809814453
aa(lp933
F34.36725997924805
aF199.5666046142578
aF11.235114097595215
aa(lp934
F34.36001205444336
aF199.56956481933594
aF11.228508949279785
aa(lp935
F34.35283279418945
aF199.5724639892578
aF11.221972465515137
aa(lp936
F34.34567642211914
aF199.575439453125
aF11.215412139892578
aa(lp937
F34.338523864746094
aF199.57847595214844
aF11.208856582641602
aa(lp938
F34.33144760131836
aF199.58139038085938
aF11.202392578125
aa(lp939
F34.32429504394531
aF199.58421325683594
aF11.195866584777832
aa(lp940
F34.31705856323242
aF199.5872039794922
aF11.18925952911377
aa(lp941
F34.30982971191406
aF199.590087890625
aF11.182671546936035
aa(lp942
F34.3026237487793
aF199.59298706054688
aF11.176122665405273
aa(lp943
F34.29570770263672
aF199.595703125
aF11.169797897338867
aa(lp944
F34.28883361816406
aF199.59837341308594
aF11.163506507873535
aa(lp945
F34.28203201293945
aF199.60104370117188
aF11.157282829284668
aa(lp946
F34.27523422241211
aF199.60369873046875
aF11.15107250213623
aa(lp947
F34.26846694946289
aF199.6063232421875
aF11.144835472106934
aa(lp948
F34.26185607910156
aF199.6088409423828
aF11.138738632202148
aa(lp949
F34.255245208740234
aF199.6114501953125
aF11.132681846618652
aa(lp950
F34.248680114746094
aF199.61404418945312
aF11.12667465209961
aa(lp951
F34.2420768737793
aF199.61659240722656
aF11.120664596557617
aa(lp952
F34.23550033569336
aF199.61920166015625
aF11.114686012268066
aa(lp953
F34.22862243652344
aF199.6221923828125
aF11.108399391174316
aa(lp954
F34.22194290161133
aF199.62498474121094
aF11.102272033691406
aa(lp955
F34.215362548828125
aF199.62770080566406
aF11.096258163452148
aa(lp956
F34.20860290527344
aF199.63034057617188
aF11.090079307556152
aa(lp957
F34.20174026489258
aF199.6332244873047
aF11.083768844604492
aa(lp958
F34.19486618041992
aF199.63612365722656
aF11.077483177185059
aa(lp959
F34.18806457519531
aF199.63897705078125
aF11.071307182312012
aa(lp960
F34.181339263916016
aF199.64175415039062
aF11.065162658691406
aa(lp961
F34.17457962036133
aF199.64447021484375
aF11.058987617492676
aa(lp962
F34.16778564453125
aF199.64736938476562
aF11.05277156829834
aa(lp963
F34.161014556884766
aF199.65025329589844
aF11.046584129333496
aa(lp964
F34.15423583984375
aF199.65304565429688
aF11.040392875671387
aa(lp965
F34.147438049316406
aF199.65585327148438
aF11.034249305725098
aa(lp966
F34.14073944091797
aF199.65867614746094
aF11.028116226196289
aa(lp967
F34.13396072387695
aF199.6614532470703
aF11.021981239318848
aa(lp968
F34.12718963623047
aF199.66433715820312
aF11.015837669372559
aa(lp969
F34.12031936645508
aF199.6671142578125
aF11.00958251953125
aa(lp970
F34.11347579956055
aF199.66995239257812
aF11.003268241882324
aa(lp971
F34.10663604736328
aF199.6728515625
aF10.996964454650879
aa(lp972
F34.09991455078125
aF199.67568969726562
aF10.990795135498047
aa(lp973
F34.09318161010742
aF199.6785125732422
aF10.984621047973633
aa(lp974
F34.086483001708984
aF199.6813201904297
aF10.97843074798584
aa(lp975
F34.07979202270508
aF199.68406677246094
aF10.972277641296387
aa(lp976
F34.073097229003906
aF199.6869354248047
aF10.966102600097656
aa(lp977
F34.06640625
aF199.6897735595703
aF10.959936141967773
aa(lp978
F34.05971145629883
aF199.69256591796875
aF10.953822135925293
aa(lp979
F34.05306625366211
aF199.69540405273438
aF10.947737693786621
aa(lp980
F34.04640579223633
aF199.69810485839844
aF10.941692352294922
aa(lp981
F34.039794921875
aF199.70077514648438
aF10.935664176940918
aa(lp982
F34.033260345458984
aF199.70339965820312
aF10.929675102233887
aa(lp983
F34.02671813964844
aF199.7060546875
aF10.923704147338867
aa(lp984
F34.02024841308594
aF199.7086639404297
aF10.91778564453125
aa(lp985
F34.01375198364258
aF199.71141052246094
aF10.911816596984863
aa(lp986
F34.007259368896484
aF199.71409606933594
aF10.905837059020996
aa(lp987
F34.00074768066406
aF199.71682739257812
aF10.899864196777344
aa(lp988
F33.99432373046875
aF199.7195281982422
aF10.893994331359863
aa(lp989
F33.987857818603516
aF199.72216796875
aF10.888062477111816
aa(lp990
F33.981353759765625
aF199.72474670410156
aF10.882148742675781
aa(lp991
F33.97488021850586
aF199.72735595703125
aF10.876236915588379
aa(lp992
F33.96842575073242
aF199.72991943359375
aF10.870420455932617
aa(lp993
F33.96201705932617
aF199.73245239257812
aF10.86463737487793
aa(lp994
F33.955772399902344
aF199.73504638671875
aF10.858946800231934
aa(lp995
F33.94956588745117
aF199.73745727539062
aF10.853276252746582
aa(lp996
F33.943363189697266
aF199.73992919921875
aF10.8475923538208
aa(lp997
F33.93718338012695
aF199.74237060546875
aF10.8419828414917
aa(lp998
F33.93120574951172
aF199.74484252929688
aF10.836562156677246
aa(lp999
F33.92516326904297
aF199.7472686767578
aF10.83106803894043
aa(lp1000
F33.91908645629883
aF199.74984741210938
aF10.825518608093262
aa(lp1001
F33.91298294067383
aF199.7523193359375
aF10.819954872131348
aa(lp1002
F33.90680694580078
aF199.7546844482422
aF10.814353942871094
aa(lp1003
F33.900665283203125
aF199.75717163085938
aF10.808785438537598
aa(lp1004
F33.89452362060547
aF199.75975036621094
aF10.803191184997559
aa(lp1005
F33.88836669921875
aF199.76229858398438
aF10.797597885131836
aa(lp1006
F33.88223648071289
aF199.76478576660156
aF10.79201889038086
aa(lp1007
F33.876121520996094
aF199.76722717285156
aF10.786460876464844
aa(lp1008
F33.8699836730957
aF199.7696990966797
aF10.78088665008545
aa(lp1009
F33.86388397216797
aF199.7722625732422
aF10.77532958984375
aa(lp1010
F33.85793685913086
aF199.774658203125
aF10.769918441772461
aa(lp1011
F33.85190963745117
aF199.77719116210938
aF10.764443397521973
aa(lp1012
F33.8459358215332
aF199.77964782714844
aF10.759033203125
aa(lp1013
F33.8399543762207
aF199.78207397460938
aF10.753593444824219
aa(lp1014
F33.833839416503906
aF199.78439331054688
aF10.74803352355957
aa(lp1015
F33.827701568603516
aF199.78683471679688
aF10.742446899414062
aa(lp1016
F33.821571350097656
aF199.78933715820312
aF10.73682975769043
aa(lp1017
F33.815486907958984
aF199.79180908203125
aF10.731247901916504
aa(lp1018
F33.797359466552734
aF199.7993927001953
aF10.714539527893066
aa(lp1019
F33.791378021240234
aF199.80186462402344
aF10.709052085876465
aa(lp1020
F33.785400390625
aF199.8042755126953
aF10.70357608795166
aa(lp1021
F33.77944564819336
aF199.80670166015625
aF10.698107719421387
aa(lp1022
F33.77336883544922
aF199.8090057373047
aF10.692489624023438
aa(lp1023
F33.7672233581543
aF199.81124877929688
aF10.68686580657959
aa(lp1024
F33.76113510131836
aF199.8134002685547
aF10.681333541870117
aa(lp1025
F33.755035400390625
aF199.8155975341797
aF10.675795555114746
aa(lp1026
F33.74896240234375
aF199.81784057617188
aF10.670286178588867
aa(lp1027
F33.74284362792969
aF199.81997680664062
aF10.664684295654297
aa(lp1028
F33.73668670654297
aF199.822265625
aF10.659055709838867
aa(lp1029
F33.7306022644043
aF199.82456970214844
aF10.65346622467041
aa(lp1030
F33.72439193725586
aF199.82679748535156
aF10.647832870483398
aa(lp1031
F33.71821212768555
aF199.82908630371094
aF10.64225959777832
aa(lp1032
F33.71202087402344
aF199.83143615722656
aF10.636688232421875
aa(lp1033
F33.705841064453125
aF199.83367919921875
aF10.631108283996582
aa(lp1034
F33.699771881103516
aF199.83596801757812
aF10.625591278076172
aa(lp1035
F33.69361877441406
aF199.8384246826172
aF10.619975090026855
aa(lp1036
F33.68712615966797
aF199.84075927734375
aF10.614089965820312
aa(lp1037
F33.68070602416992
aF199.8431854248047
aF10.6082763671875
aa(lp1038
F33.67430114746094
aF199.845703125
aF10.602417945861816
aa(lp1039
F33.66796112060547
aF199.8482208251953
aF10.596651077270508
aa(lp1040
F33.661678314208984
aF199.8507080078125
aF10.590924263000488
aa(lp1041
F33.65553665161133
aF199.85313415527344
aF10.585307121276855
aa(lp1042
F33.649410247802734
aF199.85565185546875
aF10.579713821411133
aa(lp1043
F33.643394470214844
aF199.8582000732422
aF10.574204444885254
aa(lp1044
F33.6373176574707
aF199.8606719970703
aF10.568634986877441
aa(lp1045
F33.631187438964844
aF199.86302185058594
aF10.56307315826416
aa(lp1046
F33.62508010864258
aF199.86532592773438
aF10.5576171875
aa(lp1047
F33.618961334228516
aF199.8677215576172
aF10.552067756652832
aa(lp1048
F33.61294174194336
aF199.87013244628906
aF10.546599388122559
aa(lp1049
F33.60695266723633
aF199.8725128173828
aF10.541149139404297
aa(lp1050
F33.60096740722656
aF199.8750457763672
aF10.535621643066406
aa(lp1051
F33.594966888427734
aF199.87745666503906
aF10.530073165893555
aa(lp1052
F33.58893966674805
aF199.8800048828125
aF10.524518013000488
aa(lp1053
F33.58298873901367
aF199.88243103027344
aF10.519037246704102
aa(lp1054
F33.57708740234375
aF199.8848419189453
aF10.513660430908203
aa(lp1055
F33.571083068847656
aF199.88711547851562
aF10.508283615112305
aa(lp1056
F33.56509017944336
aF199.88951110839844
aF10.50283145904541
aa(lp1057
F33.55913162231445
aF199.8919219970703
aF10.497384071350098
aa(lp1058
F33.55324935913086
aF199.89427185058594
aF10.49199104309082
aa(lp1059
F33.54734802246094
aF199.89674377441406
aF10.486580848693848
aa(lp1060
F33.54143524169922
aF199.8993377685547
aF10.481148719787598
aa(lp1061
F33.535430908203125
aF199.9018096923828
aF10.475727081298828
aa(lp1062
F33.52946472167969
aF199.90431213378906
aF10.470333099365234
aa(lp1063
F33.52360916137695
aF199.90673828125
aF10.464927673339844
aa(lp1064
F33.51770782470703
aF199.90904235839844
aF10.459507942199707
aa(lp1065
F33.511802673339844
aF199.91143798828125
aF10.454096794128418
aa(lp1066
F33.50592041015625
aF199.91375732421875
aF10.448737144470215
aa(lp1067
F33.50004959106445
aF199.91619873046875
aF10.443305969238281
aa(lp1068
F33.494197845458984
aF199.9186553955078
aF10.43791389465332
aa(lp1069
F33.4884033203125
aF199.92098999023438
aF10.432618141174316
aa(lp1070
F33.48261260986328
aF199.9232635498047
aF10.427298545837402
aa(lp1071
F33.47690963745117
aF199.92550659179688
aF10.422062873840332
aa(lp1072
F33.47114944458008
aF199.92767333984375
aF10.416852951049805
aa(lp1073
F33.4654541015625
aF199.9298095703125
aF10.411672592163086
aa(lp1074
F33.45973205566406
aF199.93203735351562
aF10.406457901000977
aa(lp1075
F33.454105377197266
aF199.9342498779297
aF10.401337623596191
aa(lp1076
F33.448486328125
aF199.9365692138672
aF10.396191596984863
aa(lp1077
F33.443031311035156
aF199.93870544433594
aF10.391155242919922
aa(lp1078
F33.43762969970703
aF199.94085693359375
aF10.386165618896484
aa(lp1079
F33.432273864746094
aF199.94309997558594
aF10.381229400634766
aa(lp1080
F33.4268798828125
aF199.94541931152344
aF10.376262664794922
aa(lp1081
F33.42144775390625
aF199.94760131835938
aF10.371278762817383
aa(lp1082
F33.41596984863281
aF199.94973754882812
aF10.366291046142578
aa(lp1083
F33.410552978515625
aF199.951904296875
aF10.361360549926758
aa(lp1084
F33.405029296875
aF199.9539794921875
aF10.356352806091309
aa(lp1085
F33.399600982666016
aF199.95606994628906
aF10.351457595825195
aa(lp1086
F33.394100189208984
aF199.95838928222656
aF10.346445083618164
aa(lp1087
F33.38862609863281
aF199.96066284179688
aF10.341437339782715
aa(lp1088
F33.38322067260742
aF199.9629364013672
aF10.336455345153809
aa(lp1089
F33.37779998779297
aF199.9651641845703
aF10.331437110900879
aa(lp1090
F33.372440338134766
aF199.96739196777344
aF10.32645034790039
aa(lp1091
F33.36705017089844
aF199.9695587158203
aF10.321474075317383
aa(lp1092
F33.36166000366211
aF199.9716033935547
aF10.316499710083008
aa(lp1093
F33.35621643066406
aF199.97386169433594
aF10.311492919921875
aa(lp1094
F33.35075759887695
aF199.97613525390625
aF10.30652141571045
aa(lp1095
F33.3453369140625
aF199.97833251953125
aF10.301530838012695
aa(lp1096
F33.34001159667969
aF199.98056030273438
aF10.296642303466797
aa(lp1097
F33.33469772338867
aF199.98272705078125
aF10.291756629943848
aa(lp1098
F33.329368591308594
aF199.98492431640625
aF10.286907196044922
aa(lp1099
F33.3239860534668
aF199.98695373535156
aF10.282062530517578
aa(lp1100
F33.318607330322266
aF199.98904418945312
aF10.277185440063477
aa(lp1101
F33.31329345703125
aF199.9912109375
aF10.272377967834473
aa(lp1102
F33.307899475097656
aF199.9932403564453
aF10.267497062683105
aa(lp1103
F33.30253982543945
aF199.99526977539062
aF10.262568473815918
aa(lp1104
F33.29719543457031
aF199.99729919433594
aF10.257640838623047
aa(lp1105
F33.29191207885742
aF199.999267578125
aF10.252799034118652
aa(lp1106
F33.2866096496582
aF200.0011444091797
aF10.247962951660156
aa(lp1107
F33.28130340576172
aF200.00311279296875
aF10.243101119995117
aa(lp1108
F33.27603530883789
aF200.00509643554688
aF10.23834228515625
aa(lp1109
F33.27078628540039
aF200.00717163085938
aF10.233588218688965
aa(lp1110
F33.265525817871094
aF200.00918579101562
aF10.2288236618042
aa(lp1111
F33.26030731201172
aF200.01123046875
aF10.224044799804688
aa(lp1112
F33.25506591796875
aF200.01339721679688
aF10.219289779663086
aa(lp1113
F33.249855041503906
aF200.01548767089844
aF10.214580535888672
aa(lp1114
F33.24452590942383
aF200.0174560546875
aF10.209832191467285
aa(lp1115
F33.23902893066406
aF200.0198211669922
aF10.204774856567383
aa(lp1116
F33.23355484008789
aF200.022216796875
aF10.199799537658691
aa(lp1117
F33.228057861328125
aF200.02456665039062
aF10.194823265075684
aa(lp1118
F33.22258758544922
aF200.02674865722656
aF10.189855575561523
aa(lp1119
F33.217166900634766
aF200.0290069580078
aF10.184835433959961
aa(lp1120
F33.21162033081055
aF200.03109741210938
aF10.179771423339844
aa(lp1121
F33.20610809326172
aF200.0332489013672
aF10.17470645904541
aa(lp1122
F33.20066833496094
aF200.03533935546875
aF10.169693946838379
aa(lp1123
F33.19525909423828
aF200.03744506835938
aF10.16474437713623
aa(lp1124
F33.18981170654297
aF200.03945922851562
aF10.159770965576172
aa(lp1125
F33.18439865112305
aF200.04159545898438
aF10.154803276062012
aa(lp1126
F33.17900085449219
aF200.04371643066406
aF10.149855613708496
aa(lp1127
F33.17371368408203
aF200.04576110839844
aF10.145015716552734
aa(lp1128
F33.16847229003906
aF200.0478515625
aF10.140213966369629
aa(lp1129
F33.1632080078125
aF200.04998779296875
aF10.135462760925293
aa(lp1130
F33.157997131347656
aF200.05215454101562
aF10.13072681427002
aa(lp1131
F33.15262985229492
aF200.05470275878906
aF10.125805854797363
aa(lp1132
F33.147186279296875
aF200.05714416503906
aF10.120793342590332
aa(lp1133
F33.14185333251953
aF200.05946350097656
aF10.115883827209473
aa(lp1134
F33.13653564453125
aF200.06170654296875
aF10.11103343963623
aa(lp1135
F33.131248474121094
aF200.06393432617188
aF10.106194496154785
aa(lp1136
F33.125938415527344
aF200.06607055664062
aF10.101334571838379
aa(lp1137
F33.12065124511719
aF200.06832885742188
aF10.096473693847656
aa(lp1138
F33.11528778076172
aF200.0704803466797
aF10.091565132141113
aa(lp1139
F33.1099739074707
aF200.07257080078125
aF10.08674430847168
aa(lp1140
F33.10474395751953
aF200.0746612548828
aF10.081997871398926
aa(lp1141
F33.09947967529297
aF200.07669067382812
aF10.077208518981934
aa(lp1142
F33.09434127807617
aF200.07882690429688
aF10.072339057922363
aa(lp1143
F33.07889175415039
aF200.0852508544922
aF10.058100700378418
aa(lp1144
F33.07376480102539
aF200.08734130859375
aF10.053363800048828
aa(lp1145
F33.06861114501953
aF200.08932495117188
aF10.048616409301758
aa(lp1146
F33.06343460083008
aF200.09120178222656
aF10.043946266174316
aa(lp1147
F33.058204650878906
aF200.0933380126953
aF10.03912353515625
aa(lp1148
F33.052886962890625
aF200.09576416015625
aF10.034225463867188
aa(lp1149
F33.04757308959961
aF200.09812927246094
aF10.029288291931152
aa(lp1150
F33.04227828979492
aF200.1006317138672
aF10.02437686920166
aa(lp1151
F33.03695297241211
aF200.10301208496094
aF10.019468307495117
aa(lp1152
F33.03153991699219
aF200.10523986816406
aF10.014538764953613
aa(lp1153
F33.026180267333984
aF200.10731506347656
aF10.00967788696289
aa(lp1154
F33.02098846435547
aF200.10946655273438
aF10.005017280578613
aa(lp1155
F33.01570129394531
aF200.11143493652344
aF10.000251770019531
aa(lp1156
F33.01042556762695
aF200.11354064941406
aF9.995519638061523
aa(lp1157
F33.00519943237305
aF200.11572265625
aF9.990846633911133
aa(lp1158
F32.99995422363281
aF200.1180877685547
aF9.986067771911621
aa(lp1159
F32.994781494140625
aF200.1203155517578
aF9.98133659362793
aa(lp1160
F32.989646911621094
aF200.1225128173828
aF9.976659774780273
aa(lp1161
F32.98448944091797
aF200.12472534179688
aF9.971996307373047
aa(lp1162
F32.979339599609375
aF200.1268768310547
aF9.967337608337402
aa(lp1163
F32.974212646484375
aF200.12890625
aF9.962663650512695
aa(lp1164
F32.96913528442383
aF200.1310272216797
aF9.958061218261719
aa(lp1165
F32.96406555175781
aF200.13308715820312
aF9.95345401763916
aa(lp1166
F32.958984375
aF200.1351318359375
aF9.948837280273438
aa(lp1167
F32.95389938354492
aF200.13706970214844
aF9.94421100616455
aa(lp1168
F32.94882583618164
aF200.13917541503906
aF9.939586639404297
aa(lp1169
F32.9437370300293
aF200.14117431640625
aF9.934969902038574
aa(lp1170
F32.938846588134766
aF200.14315795898438
aF9.930527687072754
aa(lp1171
F32.93400573730469
aF200.14508056640625
aF9.92615795135498
aa(lp1172
F32.92913055419922
aF200.1469268798828
aF9.92174243927002
aa(lp1173
F32.924232482910156
aF200.14859008789062
aF9.917280197143555
aa(lp1174
F32.91920471191406
aF200.15065002441406
aF9.912565231323242
aa(lp1175
F32.914180755615234
aF200.15277099609375
aF9.907893180847168
aa(lp1176
F32.909183502197266
aF200.15481567382812
aF9.903287887573242
aa(lp1177
F32.90421676635742
aF200.15684509277344
aF9.898757934570312
aa(lp1178
F32.89918518066406
aF200.15872192382812
aF9.894139289855957
aa(lp1179
F32.89411926269531
aF200.16073608398438
aF9.889558792114258
aa(lp1180
F32.889102935791016
aF200.16275024414062
aF9.885053634643555
aa(lp1181
F32.8841667175293
aF200.16477966308594
aF9.88057804107666
aa(lp1182
F32.87909698486328
aF200.16659545898438
aF9.875970840454102
aa(lp1183
F32.87409973144531
aF200.1684112548828
aF9.871344566345215
aa(lp1184
F32.869049072265625
aF200.1704864501953
aF9.8666353225708
aa(lp1185
F32.86395263671875
aF200.1724090576172
aF9.861971855163574
aa(lp1186
F32.858848571777344
aF200.1744842529297
aF9.857320785522461
aa(lp1187
F32.85378646850586
aF200.17648315429688
aF9.852666854858398
aa(lp1188
F32.84879684448242
aF200.17857360839844
aF9.848170280456543
aa(lp1189
F32.84394073486328
aF200.1806182861328
aF9.843811988830566
aa(lp1190
F32.83896255493164
aF200.18246459960938
aF9.839396476745605
aa(lp1191
F32.83401870727539
aF200.184326171875
aF9.835057258605957
aa(lp1192
F32.82915496826172
aF200.1861114501953
aF9.830704689025879
aa(lp1193
F32.82429122924805
aF200.1881103515625
aF9.826275825500488
aa(lp1194
F32.819427490234375
aF200.18994140625
aF9.821819305419922
aa(lp1195
F32.81461715698242
aF200.19178771972656
aF9.817346572875977
aa(lp1196
F32.80976104736328
aF200.19342041015625
aF9.812841415405273
aa(lp1197
F32.80493927001953
aF200.19515991210938
aF9.808384895324707
aa(lp1198
F32.80012512207031
aF200.19679260253906
aF9.8038911819458
aa(lp1199
F32.79533386230469
aF200.19839477539062
aF9.799504280090332
aa(lp1200
F32.79058074951172
aF200.20021057128906
aF9.795136451721191
aa(lp1201
F32.78580093383789
aF200.2019805908203
aF9.790779113769531
aa(lp1202
F32.78096008300781
aF200.2039794921875
aF9.786355972290039
aa(lp1203
F32.77620315551758
aF200.20603942871094
aF9.781957626342773
aa(lp1204
F32.77119827270508
aF200.20785522460938
aF9.777398109436035
aa(lp1205
F32.76620101928711
aF200.20965576171875
aF9.77287769317627
aa(lp1206
F32.7612419128418
aF200.21153259277344
aF9.76839828491211
aa(lp1207
F32.7562255859375
aF200.21328735351562
aF9.76391887664795
aa(lp1208
F32.75125503540039
aF200.2151336669922
aF9.759407997131348
aa(lp1209
F32.74628448486328
aF200.21681213378906
aF9.754802703857422
aa(lp1210
F32.7413444519043
aF200.21852111816406
aF9.75029182434082
aa(lp1211
F32.73640441894531
aF200.22024536132812
aF9.745871543884277
aa(lp1212
F32.731388092041016
aF200.2222900390625
aF9.741314888000488
aa(lp1213
F32.726436614990234
aF200.22434997558594
aF9.736849784851074
aa(lp1214
F32.72156524658203
aF200.226318359375
aF9.732398986816406
aa(lp1215
F32.71683883666992
aF200.22813415527344
aF9.728082656860352
aa(lp1216
F32.71209716796875
aF200.22988891601562
aF9.723776817321777
aa(lp1217
F32.70738220214844
aF200.231689453125
aF9.719478607177734
aa(lp1218
F32.70267868041992
aF200.23345947265625
aF9.715164184570312
aa(lp1219
F32.69804000854492
aF200.23533630371094
aF9.710861206054688
aa(lp1220
F32.69345474243164
aF200.23719787597656
aF9.706657409667969
aa(lp1221
F32.68876266479492
aF200.2389373779297
aF9.70235824584961
aa(lp1222
F32.68410873413086
aF200.24066162109375
aF9.69812297821045
aa(lp1223
F32.67959976196289
aF200.2425994873047
aF9.693775177001953
aa(lp1224
F32.67500305175781
aF200.24441528320312
aF9.689496994018555
aa(lp1225
F32.670413970947266
aF200.24609375
aF9.685237884521484
aa(lp1226
F32.665855407714844
aF200.24794006347656
aF9.681096076965332
aa(lp1227
F32.66131591796875
aF200.249755859375
aF9.677022933959961
aa(lp1228
F32.65681457519531
aF200.25157165527344
aF9.672847747802734
aa(lp1229
F32.652347564697266
aF200.25347900390625
aF9.668747901916504
aa(lp1230
F32.64787673950195
aF200.2554931640625
aF9.664702415466309
aa(lp1231
F32.643455505371094
aF200.2573699951172
aF9.66075325012207
aa(lp1232
F32.63902282714844
aF200.2591094970703
aF9.656716346740723
aa(lp1233
F32.63463592529297
aF200.2609405517578
aF9.652606010437012
aa(lp1234
F32.630210876464844
aF200.26304626464844
aF9.648449897766113
aa(lp1235
F32.62592697143555
aF200.26513671875
aF9.644447326660156
aa(lp1236
F32.62162399291992
aF200.26722717285156
aF9.640406608581543
aa(lp1237
F32.61738204956055
aF200.26918029785156
aF9.63651180267334
aa(lp1238
F32.61310577392578
aF200.27101135253906
aF9.63266372680664
aa(lp1239
F32.60893249511719
aF200.2731170654297
aF9.628600120544434
aa(lp1240
F32.60472869873047
aF200.2752685546875
aF9.624545097351074
aa(lp1241
F32.60051345825195
aF200.2772979736328
aF9.620535850524902
aa(lp1242
F32.596309661865234
aF200.2793731689453
aF9.616661071777344
aa(lp1243
F32.59217834472656
aF200.28140258789062
aF9.6128568649292
aa(lp1244
F32.5880012512207
aF200.28329467773438
aF9.609037399291992
aa(lp1245
F32.583927154541016
aF200.2852783203125
aF9.605276107788086
aa(lp1246
F32.579856872558594
aF200.28713989257812
aF9.601627349853516
aa(lp1247
F32.575801849365234
aF200.28900146484375
aF9.598018646240234
aa(lp1248
F32.571712493896484
aF200.2906951904297
aF9.594381332397461
aa(lp1249
F32.56759262084961
aF200.2926788330078
aF9.590632438659668
aa(lp1250
F32.56340789794922
aF200.29443359375
aF9.586715698242188
aa(lp1251
F32.55923843383789
aF200.296142578125
aF9.582839012145996
aa(lp1252
F32.55508041381836
aF200.29798889160156
aF9.57896900177002
aa(lp1253
F32.55099868774414
aF200.2997283935547
aF9.575201034545898
aa(lp1254
F32.54694366455078
aF200.30149841308594
aF9.57143497467041
aa(lp1255
F32.54288101196289
aF200.30322265625
aF9.567668914794922
aa(lp1256
F32.53872299194336
aF200.30470275878906
aF9.563850402832031
aa(lp1257
F32.53453826904297
aF200.3062744140625
aF9.559988021850586
aa(lp1258
F32.5302848815918
aF200.30772399902344
aF9.556087493896484
aa(lp1259
F32.52603530883789
aF200.30946350097656
aF9.552176475524902
aa(lp1260
F32.521732330322266
aF200.31101989746094
aF9.548197746276855
aa(lp1261
F32.517459869384766
aF200.31263732910156
aF9.544235229492188
aa(lp1262
F32.51317596435547
aF200.31414794921875
aF9.540328025817871
aa(lp1263
F32.508907318115234
aF200.31570434570312
aF9.53645133972168
aa(lp1264
F32.504764556884766
aF200.31729125976562
aF9.532716751098633
aa(lp1265
F32.50067901611328
aF200.3189239501953
aF9.529036521911621
aa(lp1266
F32.4965705871582
aF200.3204345703125
aF9.525333404541016
aa(lp1267
F32.49248504638672
aF200.32220458984375
aF9.521547317504883
aa(lp1268
F32.480220794677734
aF200.32711791992188
aF9.509885787963867
aa(lp1269
F32.47610092163086
aF200.3289337158203
aF9.505940437316895
aa(lp1270
F32.471961975097656
aF200.33062744140625
aF9.502092361450195
aa(lp1271
F32.467796325683594
aF200.3320770263672
aF9.498229026794434
aa(lp1272
F32.46365737915039
aF200.3335418701172
aF9.49439811706543
aa(lp1273
F32.459625244140625
aF200.33493041992188
aF9.490640640258789
aa(lp1274
F32.455589294433594
aF200.33642578125
aF9.48689079284668
aa(lp1275
F32.45154571533203
aF200.3377685546875
aF9.483176231384277
aa(lp1276
F32.44750213623047
aF200.33917236328125
aF9.479511260986328
aa(lp1277
F32.443485260009766
aF200.34068298339844
aF9.475831031799316
aa(lp1278
F32.43960189819336
aF200.34217834472656
aF9.472254753112793
aa(lp1279
F32.43574523925781
aF200.34375
aF9.468650817871094
aa(lp1280
F32.43191146850586
aF200.345458984375
aF9.46503734588623
aa(lp1281
F32.4280891418457
aF200.3473358154297
aF9.461446762084961
aa(lp1282
F32.42424392700195
aF200.34910583496094
aF9.45786190032959
aa(lp1283
F32.42035675048828
aF200.35081481933594
aF9.45429515838623
aa(lp1284
F32.4163818359375
aF200.35226440429688
aF9.450756072998047
aa(lp1285
F32.412452697753906
aF200.35389709472656
aF9.447126388549805
aa(lp1286
F32.408447265625
aF200.35537719726562
aF9.443387031555176
aa(lp1287
F32.40448760986328
aF200.3570556640625
aF9.439733505249023
aa(lp1288
F32.40056610107422
aF200.35853576660156
aF9.436141014099121
aa(lp1289
F32.396644592285156
aF200.35983276367188
aF9.432713508605957
aa(lp1290
F32.39274978637695
aF200.36122131347656
aF9.429258346557617
aa(lp1291
F32.38890075683594
aF200.3625946044922
aF9.425769805908203
aa(lp1292
F32.385066986083984
aF200.36424255371094
aF9.42221450805664
aa(lp1293
F32.38119888305664
aF200.3659210205078
aF9.418641090393066
aa(lp1294
F32.37739181518555
aF200.3676300048828
aF9.415075302124023
aa(lp1295
F32.37369918823242
aF200.36929321289062
aF9.411651611328125
aa(lp1296
F32.36994552612305
aF200.37088012695312
aF9.408268928527832
aa(lp1297
F32.3662109375
aF200.37257385253906
aF9.404890060424805
aa(lp1298
F32.36243438720703
aF200.37399291992188
aF9.40141773223877
aa(lp1299
F32.358726501464844
aF200.37548828125
aF9.398015975952148
aa(lp1300
F32.354957580566406
aF200.37689208984375
aF9.394684791564941
aa(lp1301
F32.3511848449707
aF200.3785858154297
aF9.391288757324219
aa(lp1302
F32.34739303588867
aF200.38018798828125
aF9.387893676757812
aa(lp1303
F32.3436393737793
aF200.3817596435547
aF9.384605407714844
aa(lp1304
F32.33991241455078
aF200.38331604003906
aF9.381269454956055
aa(lp1305
F32.336151123046875
aF200.38478088378906
aF9.377970695495605
aa(lp1306
F32.332523345947266
aF200.38624572753906
aF9.374764442443848
aa(lp1307
F32.328941345214844
aF200.3876953125
aF9.371526718139648
aa(lp1308
F32.325382232666016
aF200.38912963867188
aF9.368339538574219
aa(lp1309
F32.3218879699707
aF200.39059448242188
aF9.365097999572754
aa(lp1310
F32.318443298339844
aF200.39208984375
aF9.361927032470703
aa(lp1311
F32.31503677368164
aF200.39358520507812
aF9.358734130859375
aa(lp1312
F32.31159973144531
aF200.39488220214844
aF9.355562210083008
aa(lp1313
F32.308135986328125
aF200.39613342285156
aF9.352360725402832
aa(lp1314
F32.30470657348633
aF200.3973846435547
aF9.34926986694336
aa(lp1315
F32.30130386352539
aF200.3987274169922
aF9.346131324768066
aa(lp1316
F32.29795455932617
aF200.40011596679688
aF9.343013763427734
aa(lp1317
F32.29456329345703
aF200.4014434814453
aF9.339910507202148
aa(lp1318
F32.29125213623047
aF200.40269470214844
aF9.336835861206055
aa(lp1319
F32.28792190551758
aF200.40402221679688
aF9.333765983581543
aa(lp1320
F32.284603118896484
aF200.4053497314453
aF9.33071231842041
aa(lp1321
F32.281349182128906
aF200.4066925048828
aF9.327706336975098
aa(lp1322
F32.27809524536133
aF200.40797424316406
aF9.324713706970215
aa(lp1323
F32.27489471435547
aF200.4091796875
aF9.321788787841797
aa(lp1324
F32.271636962890625
aF200.4103240966797
aF9.318860054016113
aa(lp1325
F32.26848602294922
aF200.41140747070312
aF9.316021919250488
aa(lp1326
F32.26533889770508
aF200.41270446777344
aF9.313119888305664
aa(lp1327
F32.26223373413086
aF200.4139862060547
aF9.31026554107666
aa(lp1328
F32.2591667175293
aF200.41514587402344
aF9.307437896728516
aa(lp1329
F32.25607681274414
aF200.41653442382812
aF9.30461597442627
aa(lp1330
F32.2530517578125
aF200.4178924560547
aF9.301827430725098
aa(lp1331
F32.249969482421875
aF200.4191131591797
aF9.299022674560547
aa(lp1332
F32.24690628051758
aF200.42039489746094
aF9.29619026184082
aa(lp1333
F32.243900299072266
aF200.4216766357422
aF9.293403625488281
aa(lp1334
F32.24091720581055
aF200.42294311523438
aF9.290718078613281
aa(lp1335
F32.237884521484375
aF200.4241180419922
aF9.288033485412598
aa(lp1336
F32.234886169433594
aF200.4254608154297
aF9.285326957702637
aa(lp1337
F32.23173904418945
aF200.42657470703125
aF9.28260326385498
aa(lp1338
F32.22859573364258
aF200.4275665283203
aF9.279919624328613
aa(lp1339
F32.225521087646484
aF200.4287567138672
aF9.277274131774902
aa(lp1340
F32.22245788574219
aF200.4300079345703
aF9.274628639221191
aa(lp1341
F32.21942901611328
aF200.43118286132812
aF9.27198600769043
aa(lp1342
F32.216400146484375
aF200.43211364746094
aF9.269220352172852
aa(lp1343
F32.21336364746094
aF200.43321228027344
aF9.266427040100098
aa(lp1344
F32.21034622192383
aF200.43441772460938
aF9.26365852355957
aa(lp1345
F32.207305908203125
aF200.43553161621094
aF9.260909080505371
aa(lp1346
F32.20431137084961
aF200.43670654296875
aF9.258187294006348
aa(lp1347
F32.201297760009766
aF200.4380340576172
aF9.255467414855957
aa(lp1348
F32.198280334472656
aF200.439453125
aF9.252734184265137
aa(lp1349
F32.1953010559082
aF200.44090270996094
aF9.25002670288086
aa(lp1350
F32.19232177734375
aF200.44241333007812
aF9.247297286987305
aa(lp1351
F32.189430236816406
aF200.44393920898438
aF9.244599342346191
aa(lp1352
F32.18653869628906
aF200.44558715820312
aF9.241875648498535
aa(lp1353
F32.183685302734375
aF200.4470977783203
aF9.2391996383667
aa(lp1354
F32.1807861328125
aF200.44857788085938
aF9.236468315124512
aa(lp1355
F32.17784118652344
aF200.44984436035156
aF9.233774185180664
aa(lp1356
F32.17489242553711
aF200.4512176513672
aF9.231115341186523
aa(lp1357
F32.17194366455078
aF200.45257568359375
aF9.228492736816406
aa(lp1358
F32.169029235839844
aF200.45387268066406
aF9.225861549377441
aa(lp1359
F32.16612243652344
aF200.455078125
aF9.22320556640625
aa(lp1360
F32.163169860839844
aF200.45632934570312
aF9.220621109008789
aa(lp1361
F32.16019821166992
aF200.45787048339844
aF9.21801471710205
aa(lp1362
F32.15715026855469
aF200.45921325683594
aF9.21536636352539
aa(lp1363
F32.15409469604492
aF200.46046447753906
aF9.212738990783691
aa(lp1364
F32.151004791259766
aF200.46156311035156
aF9.210084915161133
aa(lp1365
F32.14796447753906
aF200.46273803710938
aF9.207402229309082
aa(lp1366
F32.144920349121094
aF200.4640655517578
aF9.204689979553223
aa(lp1367
F32.14189147949219
aF200.46527099609375
aF9.20202350616455
aa(lp1368
F32.138893127441406
aF200.46661376953125
aF9.199374198913574
aa(lp1369
F32.135826110839844
aF200.46788024902344
aF9.196739196777344
aa(lp1370
F32.132896423339844
aF200.4691162109375
aF9.194107055664062
aa(lp1371
F32.1299934387207
aF200.47052001953125
aF9.191479682922363
aa(lp1372
F32.127052307128906
aF200.47186279296875
aF9.188887596130371
aa(lp1373
F32.12415313720703
aF200.47325134277344
aF9.18629264831543
aa(lp1374
F32.12124252319336
aF200.4746551513672
aF9.18371295928955
aa(lp1375
F32.11833190917969
aF200.4759979248047
aF9.181194305419922
aa(lp1376
F32.11545181274414
aF200.477294921875
aF9.178645133972168
aa(lp1377
F32.11259841918945
aF200.4784393310547
aF9.17607307434082
aa(lp1378
F32.109798431396484
aF200.4794921875
aF9.173548698425293
aa(lp1379
F32.10702133178711
aF200.4805908203125
aF9.171072006225586
aa(lp1380
F32.10427474975586
aF200.4818572998047
aF9.168597221374512
aa(lp1381
F32.1015739440918
aF200.48318481445312
aF9.166145324707031
aa(lp1382
F32.09884262084961
aF200.48458862304688
aF9.163775444030762
aa(lp1383
F32.096187591552734
aF200.48580932617188
aF9.161331176757812
aa(lp1384
F32.09352493286133
aF200.48690795898438
aF9.158866882324219
aa(lp1385
F32.090858459472656
aF200.4879150390625
aF9.156416893005371
aa(lp1386
F32.088233947753906
aF200.48886108398438
aF9.153946876525879
aa(lp1387
F32.085609436035156
aF200.48983764648438
aF9.151581764221191
aa(lp1388
F32.08297348022461
aF200.49081420898438
aF9.149246215820312
aa(lp1389
F32.08037185668945
aF200.49176025390625
aF9.146931648254395
aa(lp1390
F32.07777786254883
aF200.49276733398438
aF9.144583702087402
aa(lp1391
F32.07521438598633
aF200.49375915527344
aF9.142306327819824
aa(lp1392
F32.072628021240234
aF200.4947052001953
aF9.140108108520508
aa(lp1393
F32.06474304199219
aF200.49717712402344
aF9.133623123168945
aa(lp1394
F32.06217956542969
aF200.4979248046875
aF9.131467819213867
aa(lp1395
F32.05965805053711
aF200.4987335205078
aF9.12924575805664
aa(lp1396
F32.05714797973633
aF200.49951171875
aF9.127060890197754
aa(lp1397
F32.05463409423828
aF200.5005340576172
aF9.124780654907227
aa(lp1398
F32.05213928222656
aF200.50157165527344
aF9.122488021850586
aa(lp1399
F32.0496826171875
aF200.50259399414062
aF9.12019157409668
aa(lp1400
F32.04719161987305
aF200.50341796875
aF9.117916107177734
aa(lp1401
F32.04470443725586
aF200.50454711914062
aF9.115689277648926
aa(lp1402
F32.04208755493164
aF200.50543212890625
aF9.113451957702637
aa(lp1403
F32.039485931396484
aF200.5064697265625
aF9.111160278320312
aa(lp1404
F32.036827087402344
aF200.50729370117188
aF9.10888957977295
aa(lp1405
F32.03424072265625
aF200.50819396972656
aF9.10660457611084
aa(lp1406
F32.03166961669922
aF200.5089569091797
aF9.104260444641113
aa(lp1407
F32.029151916503906
aF200.50978088378906
aF9.101834297180176
aa(lp1408
F32.02665328979492
aF200.51068115234375
aF9.09945297241211
aa(lp1409
F32.024147033691406
aF200.51174926757812
aF9.097100257873535
aa(lp1410
F32.02161407470703
aF200.51275634765625
aF9.094855308532715
aa(lp1411
F32.019100189208984
aF200.51373291015625
aF9.092613220214844
aa(lp1412
F32.016544342041016
aF200.5145721435547
aF9.09035873413086
aa(lp1413
F32.014015197753906
aF200.51553344726562
aF9.087980270385742
aa(lp1414
F32.01145935058594
aF200.51632690429688
aF9.085607528686523
aa(lp1415
F32.008914947509766
aF200.5171661376953
aF9.083205223083496
aa(lp1416
F32.006404876708984
aF200.51809692382812
aF9.080857276916504
aa(lp1417
F32.00388717651367
aF200.5189971923828
aF9.078545570373535
aa(lp1418
F32.001399993896484
aF200.51988220214844
aF9.076234817504883
aa(lp1419
F31.998920440673828
aF200.52069091796875
aF9.074037551879883
aa(lp1420
F31.996471405029297
aF200.52151489257812
aF9.07184886932373
aa(lp1421
F31.99403953552246
aF200.5223846435547
aF9.069618225097656
aa(lp1422
F31.99159812927246
aF200.5230712890625
aF9.067389488220215
aa(lp1423
F31.989181518554688
aF200.52392578125
aF9.065109252929688
aa(lp1424
F31.986797332763672
aF200.52493286132812
aF9.062860488891602
aa(lp1425
F31.98441505432129
aF200.52589416503906
aF9.060654640197754
aa(lp1426
F31.982057571411133
aF200.52687072753906
aF9.058398246765137
aa(lp1427
F31.979677200317383
aF200.5277557373047
aF9.056146621704102
aa(lp1428
F31.97726821899414
aF200.5290069580078
aF9.053861618041992
aa(lp1429
F31.97479248046875
aF200.5300750732422
aF9.051508903503418
aa(lp1430
F31.972320556640625
aF200.53118896484375
aF9.049145698547363
aa(lp1431
F31.969877243041992
aF200.53244018554688
aF9.046814918518066
aa(lp1432
F31.9674072265625
aF200.5335693359375
aF9.044459342956543
aa(lp1433
F31.96497344970703
aF200.53463745117188
aF9.042142868041992
aa(lp1434
F31.962535858154297
aF200.53565979003906
aF9.039863586425781
aa(lp1435
F31.960079193115234
aF200.53659057617188
aF9.037529945373535
aa(lp1436
F31.95762062072754
aF200.5374755859375
aF9.035225868225098
aa(lp1437
F31.955148696899414
aF200.53836059570312
aF9.032943725585938
aa(lp1438
F31.95275115966797
aF200.5392608642578
aF9.030800819396973
aa(lp1439
F31.950319290161133
aF200.53997802734375
aF9.028618812561035
aa(lp1440
F31.947908401489258
aF200.5408935546875
aF9.026487350463867
aa(lp1441
F31.94553565979004
aF200.54176330566406
aF9.0243558883667
aa(lp1442
F31.943187713623047
aF200.5425262451172
aF9.022285461425781
aa(lp1443
F31.940933227539062
aF200.5434112548828
aF9.020249366760254
aa(lp1444
F31.938695907592773
aF200.5442352294922
aF9.018207550048828
aa(lp1445
F31.936504364013672
aF200.54505920410156
aF9.016189575195312
aa(lp1446
F31.93428611755371
aF200.5458221435547
aF9.01418685913086
aa(lp1447
F31.932106018066406
aF200.54678344726562
aF9.0121488571167
aa(lp1448
F31.92992401123047
aF200.5476531982422
aF9.010143280029297
aa(lp1449
F31.927738189697266
aF200.54867553710938
aF9.00819206237793
aa(lp1450
F31.92559051513672
aF200.5496826171875
aF9.006232261657715
aa(lp1451
F31.923442840576172
aF200.55055236816406
aF9.004256248474121
aa(lp1452
F31.921310424804688
aF200.55169677734375
aF9.002239227294922
aa(lp1453
F31.919069290161133
aF200.55259704589844
aF9.000215530395508
aa(lp1454
F31.91684913635254
aF200.55343627929688
aF8.998173713684082
aa(lp1455
F31.914600372314453
aF200.5542755126953
aF8.996161460876465
aa(lp1456
F31.91236686706543
aF200.5549774169922
aF8.994156837463379
aa(lp1457
F31.910158157348633
aF200.55577087402344
aF8.99215030670166
aa(lp1458
F31.90797996520996
aF200.55667114257812
aF8.990147590637207
aa(lp1459
F31.90575408935547
aF200.5575408935547
aF8.988177299499512
aa(lp1460
F31.90358543395996
aF200.55853271484375
aF8.986200332641602
aa(lp1461
F31.901439666748047
aF200.5594940185547
aF8.984091758728027
aa(lp1462
F31.899320602416992
aF200.56045532226562
aF8.982050895690918
aa(lp1463
F31.897306442260742
aF200.56161499023438
aF8.97989559173584
aa(lp1464
F31.895307540893555
aF200.56285095214844
aF8.977838516235352
aa(lp1465
F31.893054962158203
aF200.56365966796875
aF8.975704193115234
aa(lp1466
F31.890798568725586
aF200.56463623046875
aF8.973563194274902
aa(lp1467
F31.888504028320312
aF200.5654296875
aF8.97147274017334
aa(lp1468
F31.886213302612305
aF200.5665283203125
aF8.969328880310059
aa(lp1469
F31.883947372436523
aF200.5675048828125
aF8.967280387878418
aa(lp1470
F31.881643295288086
aF200.5682373046875
aF8.96516227722168
aa(lp1471
F31.87934684753418
aF200.56906127929688
aF8.963067054748535
aa(lp1472
F31.8770809173584
aF200.56991577148438
aF8.960994720458984
aa(lp1473
F31.874752044677734
aF200.57139587402344
aF8.958839416503906
aa(lp1474
F31.87230682373047
aF200.57247924804688
aF8.956560134887695
aa(lp1475
F31.869842529296875
aF200.57339477539062
aF8.95422649383545
aa(lp1476
F31.8674373626709
aF200.5743865966797
aF8.951855659484863
aa(lp1477
F31.864978790283203
aF200.5752716064453
aF8.94957447052002
aa(lp1478
F31.862407684326172
aF200.5758514404297
aF8.94738483428955
aa(lp1479
F31.859834671020508
aF200.57656860351562
aF8.945137023925781
aa(lp1480
F31.857362747192383
aF200.57752990722656
aF8.942903518676758
aa(lp1481
F31.85491180419922
aF200.5785369873047
aF8.940689086914062
aa(lp1482
F31.85247039794922
aF200.5793914794922
aF8.938488006591797
aa(lp1483
F31.850011825561523
aF200.58018493652344
aF8.936263084411621
aa(lp1484
F31.847536087036133
aF200.58091735839844
aF8.934155464172363
aa(lp1485
F31.8450927734375
aF200.5816192626953
aF8.932010650634766
aa(lp1486
F31.84267807006836
aF200.58250427246094
aF8.929954528808594
aa(lp1487
F31.840282440185547
aF200.58338928222656
aF8.927836418151855
aa(lp1488
F31.837936401367188
aF200.58441162109375
aF8.925713539123535
aa(lp1489
F31.83563995361328
aF200.58551025390625
aF8.923579216003418
aa(lp1490
F31.833290100097656
aF200.58644104003906
aF8.921364784240723
aa(lp1491
F31.830982208251953
aF200.58738708496094
aF8.919181823730469
aa(lp1492
F31.82866096496582
aF200.58822631835938
aF8.917062759399414
aa(lp1493
F31.826377868652344
aF200.58900451660156
aF8.915045738220215
aa(lp1494
F31.824142456054688
aF200.58981323242188
aF8.912988662719727
aa(lp1495
F31.821949005126953
aF200.59068298339844
aF8.910975456237793
aa(lp1496
F31.819732666015625
aF200.59130859375
aF8.908854484558105
aa(lp1497
F31.81747055053711
aF200.592041015625
aF8.90684700012207
aa(lp1498
F31.81524085998535
aF200.59303283691406
aF8.904851913452148
aa(lp1499
F31.813039779663086
aF200.5938720703125
aF8.90274429321289
aa(lp1500
F31.810701370239258
aF200.5944366455078
aF8.900671005249023
aa(lp1501
F31.80845069885254
aF200.59498596191406
aF8.898484230041504
aa(lp1502
F31.80617904663086
aF200.5955810546875
aF8.896382331848145
aa(lp1503
F31.803937911987305
aF200.5963592529297
aF8.894347190856934
aa(lp1504
F31.80170440673828
aF200.59710693359375
aF8.892335891723633
aa(lp1505
F31.79944610595703
aF200.59783935546875
aF8.89045238494873
aa(lp1506
F31.797382354736328
aF200.5985565185547
aF8.888571739196777
aa(lp1507
F31.79532241821289
aF200.59938049316406
aF8.886693954467773
aa(lp1508
F31.793317794799805
aF200.60031127929688
aF8.884855270385742
aa(lp1509
F31.79132080078125
aF200.6009979248047
aF8.882993698120117
aa(lp1510
F31.78931999206543
aF200.6016387939453
aF8.881202697753906
aa(lp1511
F31.787368774414062
aF200.60238647460938
aF8.879487991333008
aa(lp1512
F31.785400390625
aF200.60313415527344
aF8.877786636352539
aa(lp1513
F31.783456802368164
aF200.60421752929688
aF8.87608814239502
aa(lp1514
F31.781492233276367
aF200.60487365722656
aF8.874422073364258
aa(lp1515
F31.779659271240234
aF200.60557556152344
aF8.87277603149414
aa(lp1516
F31.77779769897461
aF200.60617065429688
aF8.87112045288086
aa(lp1517
F31.775955200195312
aF200.60687255859375
aF8.869498252868652
aa(lp1518
F31.77058982849121
aF200.6082305908203
aF8.8643217086792
aa(lp1519
F31.768815994262695
aF200.60870361328125
aF8.862727165222168
aa(lp1520
F31.767040252685547
aF200.60923767089844
aF8.861079216003418
aa(lp1521
F31.76529884338379
aF200.60975646972656
aF8.859391212463379
aa(lp1522
F31.7635555267334
aF200.6104278564453
aF8.857731819152832
aa(lp1523
F31.761823654174805
aF200.61117553710938
aF8.856108665466309
aa(lp1524
F31.76007080078125
aF200.61195373535156
aF8.854498863220215
aa(lp1525
F31.758363723754883
aF200.61277770996094
aF8.852909088134766
aa(lp1526
F31.75666046142578
aF200.6136474609375
aF8.851367950439453
aa(lp1527
F31.754941940307617
aF200.61447143554688
aF8.84986686706543
aa(lp1528
F31.753263473510742
aF200.615478515625
aF8.848344802856445
aa(lp1529
F31.75153160095215
aF200.61622619628906
aF8.846817970275879
aa(lp1530
F31.749849319458008
aF200.6170196533203
aF8.845256805419922
aa(lp1531
F31.748064041137695
aF200.61752319335938
aF8.84358024597168
aa(lp1532
F31.746309280395508
aF200.61819458007812
aF8.841900825500488
aa(lp1533
F31.74458885192871
aF200.61895751953125
aF8.840255737304688
aa(lp1534
F31.742816925048828
aF200.6196746826172
aF8.838586807250977
aa(lp1535
F31.741106033325195
aF200.62039184570312
aF8.837050437927246
aa(lp1536
F31.739351272583008
aF200.6211395263672
aF8.835526466369629
aa(lp1537
F31.73765754699707
aF200.62184143066406
aF8.834012985229492
aa(lp1538
F31.735952377319336
aF200.62245178222656
aF8.83249568939209
aa(lp1539
F31.73430061340332
aF200.6230926513672
aF8.831013679504395
aa(lp1540
F31.732675552368164
aF200.6239013671875
aF8.829510688781738
aa(lp1541
F31.731040954589844
aF200.62493896484375
aF8.828006744384766
aa(lp1542
F31.72945213317871
aF200.6259765625
aF8.826513290405273
aa(lp1543
F31.727825164794922
aF200.62686157226562
aF8.825113296508789
aa(lp1544
F31.726030349731445
aF200.6272735595703
aF8.823569297790527
aa(lp1545
F31.724281311035156
aF200.62770080566406
aF8.822002410888672
aa(lp1546
F31.722536087036133
aF200.62806701660156
aF8.820338249206543
aa(lp1547
F31.720836639404297
aF200.62857055664062
aF8.818709373474121
aa(lp1548
F31.71910858154297
aF200.62899780273438
aF8.817133903503418
aa(lp1549
F31.717422485351562
aF200.6298065185547
aF8.815574645996094
aa(lp1550
F31.71572494506836
aF200.63063049316406
aF8.814102172851562
aa(lp1551
F31.713916778564453
aF200.63108825683594
aF8.812541961669922
aa(lp1552
F31.712158203125
aF200.63182067871094
aF8.810991287231445
aa(lp1553
F31.710451126098633
aF200.632568359375
aF8.809487342834473
aa(lp1554
F31.708742141723633
aF200.63319396972656
aF8.807940483093262
aa(lp1555
F31.707080841064453
aF200.6339874267578
aF8.8064546585083
aa(lp1556
F31.70543098449707
aF200.6346435546875
aF8.80488109588623
aa(lp1557
F31.703739166259766
aF200.6350555419922
aF8.803351402282715
aa(lp1558
F31.702043533325195
aF200.6355743408203
aF8.801767349243164
aa(lp1559
F31.70040512084961
aF200.63626098632812
aF8.800163269042969
aa(lp1560
F31.69870948791504
aF200.6366729736328
aF8.798624992370605
aa(lp1561
F31.69704246520996
aF200.6372528076172
aF8.797086715698242
aa(lp1562
F31.69537925720215
aF200.63792419433594
aF8.795513153076172
aa(lp1563
F31.693666458129883
aF200.63836669921875
aF8.793896675109863
aa(lp1564
F31.692014694213867
aF200.63888549804688
aF8.792379379272461
aa(lp1565
F31.690391540527344
aF200.6395721435547
aF8.790712356567383
aa(lp1566
F31.688796997070312
aF200.6404571533203
aF8.789101600646973
aa(lp1567
F31.687170028686523
aF200.64122009277344
aF8.787518501281738
aa(lp1568
F31.68552589416504
aF200.64205932617188
aF8.785947799682617
aa(lp1569
F31.68386459350586
aF200.64280700683594
aF8.78447437286377
aa(lp1570
F31.6822452545166
aF200.6438751220703
aF8.782938957214355
aa(lp1571
F31.6806697845459
aF200.64500427246094
aF8.781434059143066
aa(lp1572
F31.679031372070312
aF200.645751953125
aF8.779989242553711
aa(lp1573
F31.677461624145508
aF200.64682006835938
aF8.778545379638672
aa(lp1574
F31.675880432128906
aF200.64776611328125
aF8.776962280273438
aa(lp1575
F31.6743106842041
aF200.6487274169922
aF8.775410652160645
aa(lp1576
F31.672767639160156
aF200.6495819091797
aF8.773758888244629
aa(lp1577
F31.67121696472168
aF200.6503143310547
aF8.77220630645752
aa(lp1578
F31.669822692871094
aF200.65135192871094
aF8.770550727844238
aa(lp1579
F31.668371200561523
aF200.65237426757812
aF8.768946647644043
aa(lp1580
F31.66687774658203
aF200.65345764160156
aF8.767419815063477
aa(lp1581
F31.66535758972168
aF200.65432739257812
aF8.765901565551758
aa(lp1582
F31.663776397705078
aF200.65499877929688
aF8.764375686645508
aa(lp1583
F31.662208557128906
aF200.65567016601562
aF8.762786865234375
aa(lp1584
F31.660648345947266
aF200.65640258789062
aF8.761273384094238
aa(lp1585
F31.659162521362305
aF200.6570281982422
aF8.759855270385742
aa(lp1586
F31.657716751098633
aF200.6578369140625
aF8.758435249328613
aa(lp1587
F31.65628433227539
aF200.6586456298828
aF8.757047653198242
aa(lp1588
F31.65485191345215
aF200.6593780517578
aF8.755653381347656
aa(lp1589
F31.653411865234375
aF200.66014099121094
aF8.754294395446777
aa(lp1590
F31.652006149291992
aF200.66078186035156
aF8.75305461883545
aa(lp1591
F31.65060043334961
aF200.6614227294922
aF8.751700401306152
aa(lp1592
F31.649215698242188
aF200.66200256347656
aF8.750406265258789
aa(lp1593
F31.647825241088867
aF200.6623992919922
aF8.7490873336792
aa(lp1594
F31.646465301513672
aF200.66290283203125
aF8.747830390930176
aa(lp1595
F31.645034790039062
aF200.6632080078125
aF8.746535301208496
aa(lp1596
F31.643634796142578
aF200.66358947753906
aF8.74532413482666
aa(lp1597
F31.642240524291992
aF200.6645965576172
aF8.744085311889648
aa(lp1598
F31.640819549560547
aF200.66539001464844
aF8.742815971374512
aa(lp1599
F31.63945960998535
aF200.666259765625
aF8.74156665802002
aa(lp1600
F31.638080596923828
aF200.66714477539062
aF8.740362167358398
aa(lp1601
F31.636751174926758
aF200.66818237304688
aF8.739181518554688
aa(lp1602
F31.635435104370117
aF200.6691436767578
aF8.737953186035156
aa(lp1603
F31.63405418395996
aF200.66995239257812
aF8.736738204956055
aa(lp1604
F31.632644653320312
aF200.67059326171875
aF8.735536575317383
aa(lp1605
F31.63124656677246
aF200.67129516601562
aF8.734336853027344
aa(lp1606
F31.62989616394043
aF200.672119140625
aF8.733077049255371
aa(lp1607
F31.628589630126953
aF200.6729278564453
aF8.731856346130371
aa(lp1608
F31.62720489501953
aF200.67349243164062
aF8.7305908203125
aa(lp1609
F31.625837326049805
aF200.6739959716797
aF8.729323387145996
aa(lp1610
F31.6245059967041
aF200.6746826171875
aF8.728063583374023
aa(lp1611
F31.6231632232666
aF200.67515563964844
aF8.726862907409668
aa(lp1612
F31.621850967407227
aF200.67581176757812
aF8.725703239440918
aa(lp1613
F31.620590209960938
aF200.67645263671875
aF8.724539756774902
aa(lp1614
F31.619277954101562
aF200.6768035888672
aF8.723337173461914
aa(lp1615
F31.618003845214844
aF200.67723083496094
aF8.722123146057129
aa(lp1616
F31.61675453186035
aF200.67799377441406
aF8.720890998840332
aa(lp1617
F31.615463256835938
aF200.67869567871094
aF8.7197265625
aa(lp1618
F31.614185333251953
aF200.6795654296875
aF8.718615531921387
aa(lp1619
F31.612852096557617
aF200.6800537109375
aF8.717509269714355
aa(lp1620
F31.611513137817383
aF200.6805419921875
aF8.716456413269043
aa(lp1621
F31.610145568847656
aF200.68092346191406
aF8.71543025970459
aa(lp1622
F31.608779907226562
aF200.68124389648438
aF8.71436595916748
aa(lp1623
F31.607467651367188
aF200.68165588378906
aF8.713327407836914
aa(lp1624
F31.606201171875
aF200.6821746826172
aF8.712252616882324
aa(lp1625
F31.604963302612305
aF200.68289184570312
aF8.711132049560547
aa(lp1626
F31.603649139404297
aF200.68331909179688
aF8.709917068481445
aa(lp1627
F31.602399826049805
aF200.68394470214844
aF8.708688735961914
aa(lp1628
F31.601011276245117
aF200.68426513671875
aF8.707487106323242
aa(lp1629
F31.59967041015625
aF200.68484497070312
aF8.706256866455078
aa(lp1630
F31.598316192626953
aF200.68524169921875
aF8.704998016357422
aa(lp1631
F31.596920013427734
aF200.6854705810547
aF8.703863143920898
aa(lp1632
F31.59556007385254
aF200.68601989746094
aF8.702692031860352
aa(lp1633
F31.59423828125
aF200.6866455078125
aF8.70154094696045
aa(lp1634
F31.592906951904297
aF200.687255859375
aF8.700404167175293
aa(lp1635
F31.59163475036621
aF200.6878662109375
aF8.699337005615234
aa(lp1636
F31.590383529663086
aF200.68841552734375
aF8.698217391967773
aa(lp1637
F31.589101791381836
aF200.6889190673828
aF8.697096824645996
aa(lp1638
F31.58792495727539
aF200.68951416015625
aF8.696050643920898
aa(lp1639
F31.586702346801758
aF200.68997192382812
aF8.694981575012207
aa(lp1640
F31.585494995117188
aF200.6904754638672
aF8.693918228149414
aa(lp1641
F31.58432960510254
aF200.6912078857422
aF8.692838668823242
aa(lp1642
F31.583189010620117
aF200.6919708251953
aF8.69178581237793
aa(lp1643
F31.579641342163086
aF200.69354248046875
aF8.688806533813477
aa(lp1644
F31.57853126525879
aF200.69419860839844
aF8.687746047973633
aa(lp1645
F31.57737159729004
aF200.69482421875
aF8.6866455078125
aa(lp1646
F31.576231002807617
aF200.69525146484375
aF8.685462951660156
aa(lp1647
F31.575090408325195
aF200.6959228515625
aF8.684378623962402
aa(lp1648
F31.573963165283203
aF200.69647216796875
aF8.683266639709473
aa(lp1649
F31.57282257080078
aF200.69700622558594
aF8.682195663452148
aa(lp1650
F31.571731567382812
aF200.6975860595703
aF8.68112850189209
aa(lp1651
F31.570655822753906
aF200.69822692871094
aF8.680084228515625
aa(lp1652
F31.569631576538086
aF200.6988067626953
aF8.678969383239746
aa(lp1653
F31.56863021850586
aF200.69955444335938
aF8.677889823913574
aa(lp1654
F31.567636489868164
aF200.7005157470703
aF8.676857948303223
aa(lp1655
F31.566545486450195
aF200.70111083984375
aF8.675881385803223
aa(lp1656
F31.565622329711914
aF200.7017364501953
aF8.674736976623535
aa(lp1657
F31.564594268798828
aF200.7022247314453
aF8.673653602600098
aa(lp1658
F31.56357765197754
aF200.7025909423828
aF8.672600746154785
aa(lp1659
F31.562551498413086
aF200.70286560058594
aF8.671603202819824
aa(lp1660
F31.561532974243164
aF200.70321655273438
aF8.670618057250977
aa(lp1661
F31.56047821044922
aF200.70338439941406
aF8.66967487335205
aa(lp1662
F31.559438705444336
aF200.70364379882812
aF8.668694496154785
aa(lp1663
F31.55837631225586
aF200.7041015625
aF8.667766571044922
aa(lp1664
F31.55729103088379
aF200.70443725585938
aF8.666829109191895
aa(lp1665
F31.55626678466797
aF200.70489501953125
aF8.66590690612793
aa(lp1666
F31.555233001708984
aF200.7052459716797
aF8.664963722229004
aa(lp1667
F31.554250717163086
aF200.70567321777344
aF8.664032936096191
aa(lp1668
F31.553247451782227
aF200.7060546875
aF8.663199424743652
aa(lp1669
F31.55227279663086
aF200.7065887451172
aF8.662375450134277
aa(lp1670
F31.55124282836914
aF200.70687866210938
aF8.66153621673584
aa(lp1671
F31.55025863647461
aF200.7071990966797
aF8.66076946258545
aa(lp1672
F31.549175262451172
aF200.70712280273438
aF8.65993881225586
aa(lp1673
F31.54812240600586
aF200.70701599121094
aF8.659085273742676
aa(lp1674
F31.54708480834961
aF200.70724487304688
aF8.65820598602295
aa(lp1675
F31.546022415161133
aF200.70718383789062
aF8.65727424621582
aa(lp1676
F31.545001983642578
aF200.70741271972656
aF8.656310081481934
aa(lp1677
F31.543954849243164
aF200.7075958251953
aF8.655425071716309
aa(lp1678
F31.542949676513672
aF200.70774841308594
aF8.654536247253418
aa(lp1679
F31.54191017150879
aF200.7079315185547
aF8.653736114501953
aa(lp1680
F31.540855407714844
aF200.70794677734375
aF8.652880668640137
aa(lp1681
F31.53982162475586
aF200.70806884765625
aF8.651981353759766
aa(lp1682
F31.538829803466797
aF200.70822143554688
aF8.651060104370117
aa(lp1683
F31.537830352783203
aF200.70855712890625
aF8.650147438049316
aa(lp1684
F31.536848068237305
aF200.708984375
aF8.649191856384277
aa(lp1685
F31.535886764526367
aF200.70944213867188
aF8.648272514343262
aa(lp1686
F31.534934997558594
aF200.70997619628906
aF8.647418022155762
aa(lp1687
F31.534021377563477
aF200.7105712890625
aF8.646574974060059
aa(lp1688
F31.533159255981445
aF200.71139526367188
aF8.64574146270752
aa(lp1689
F31.532257080078125
aF200.7119598388672
aF8.644856452941895
aa(lp1690
F31.53134536743164
aF200.7124786376953
aF8.643969535827637
aa(lp1691
F31.530424118041992
aF200.7128448486328
aF8.643048286437988
aa(lp1692
F31.529529571533203
aF200.71372985839844
aF8.642078399658203
aa(lp1693
F31.528614044189453
aF200.7145538330078
aF8.64113998413086
aa(lp1694
F31.527698516845703
aF200.71533203125
aF8.640259742736816
aa(lp1695
F31.52680778503418
aF200.71609497070312
aF8.639408111572266
aa(lp1696
F31.525924682617188
aF200.7168426513672
aF8.638572692871094
aa(lp1697
F31.524999618530273
aF200.71730041503906
aF8.637797355651855
aa(lp1698
F31.52410316467285
aF200.7178192138672
aF8.636981964111328
aa(lp1699
F31.523195266723633
aF200.71829223632812
aF8.636174201965332
aa(lp1700
F31.522274017333984
aF200.71885681152344
aF8.63539981842041
aa(lp1701
F31.521371841430664
aF200.71926879882812
aF8.634503364562988
aa(lp1702
F31.520524978637695
aF200.71974182128906
aF8.633651733398438
aa(lp1703
F31.51970672607422
aF200.7204132080078
aF8.632765769958496
aa(lp1704
F31.51886558532715
aF200.7211151123047
aF8.631890296936035
aa(lp1705
F31.518009185791016
aF200.7217559814453
aF8.631038665771484
aa(lp1706
F31.517152786254883
aF200.72242736816406
aF8.630202293395996
aa(lp1707
F31.516250610351562
aF200.7227783203125
aF8.629250526428223
aa(lp1708
F31.515348434448242
aF200.72308349609375
aF8.628324508666992
aa(lp1709
F31.514440536499023
aF200.7233428955078
aF8.62740707397461
aa(lp1710
F31.513561248779297
aF200.72348022460938
aF8.62649917602539
aa(lp1711
F31.512720108032227
aF200.7237548828125
aF8.625625610351562
aa(lp1712
F31.511798858642578
aF200.723876953125
aF8.624850273132324
aa(lp1713
F31.510822296142578
aF200.72372436523438
aF8.624165534973145
aa(lp1714
F31.509883880615234
aF200.72372436523438
aF8.623414039611816
aa(lp1715
F31.50897216796875
aF200.72413635253906
aF8.622756958007812
aa(lp1716
F31.50810432434082
aF200.72445678710938
aF8.622081756591797
aa(lp1717
F31.507238388061523
aF200.7248077392578
aF8.621441841125488
aa(lp1718
F31.506406784057617
aF200.72520446777344
aF8.620833396911621
aa(lp1719
F31.505617141723633
aF200.7257843017578
aF8.620176315307617
aa(lp1720
F31.504911422729492
aF200.72662353515625
aF8.61941909790039
aa(lp1721
F31.504070281982422
aF200.72708129882812
aF8.618650436401367
aa(lp1722
F31.503246307373047
aF200.7276153564453
aF8.617877960205078
aa(lp1723
F31.50241470336914
aF200.72796630859375
aF8.617079734802246
aa(lp1724
F31.501562118530273
aF200.72825622558594
aF8.616293907165527
aa(lp1725
F31.500701904296875
aF200.72857666015625
aF8.61562442779541
aa(lp1726
F31.4998836517334
aF200.72903442382812
aF8.614903450012207
aa(lp1727
F31.49907684326172
aF200.72933959960938
aF8.614130973815918
aa(lp1728
F31.498258590698242
aF200.72958374023438
aF8.613363265991211
aa(lp1729
F31.49745750427246
aF200.7296905517578
aF8.612556457519531
aa(lp1730
F31.496671676635742
aF200.72988891601562
aF8.611791610717773
aa(lp1731
F31.49586296081543
aF200.7301025390625
aF8.611077308654785
aa(lp1732
F31.495075225830078
aF200.7303924560547
aF8.610281944274902
aa(lp1733
F31.49432373046875
aF200.73056030273438
aF8.609465599060059
aa(lp1734
F31.49354362487793
aF200.73069763183594
aF8.608662605285645
aa(lp1735
F31.49283790588379
aF200.731201171875
aF8.607983589172363
aa(lp1736
F31.492067337036133
aF200.73135375976562
aF8.607263565063477
aa(lp1737
F31.491334915161133
aF200.73150634765625
aF8.606501579284668
aa(lp1738
F31.490612030029297
aF200.7317352294922
aF8.605822563171387
aa(lp1739
F31.489826202392578
aF200.73170471191406
aF8.605087280273438
aa(lp1740
F31.48900032043457
aF200.73170471191406
aF8.604410171508789
aa(lp1741
F31.48814582824707
aF200.73191833496094
aF8.603758811950684
aa(lp1742
F31.48737144470215
aF200.732177734375
aF8.603069305419922
aa(lp1743
F31.48664093017578
aF200.73275756835938
aF8.602351188659668
aa(lp1744
F31.485891342163086
aF200.73318481445312
aF8.601643562316895
aa(lp1745
F31.485118865966797
aF200.7334747314453
aF8.600898742675781
aa(lp1746
F31.484418869018555
aF200.7338104248047
aF8.600139617919922
aa(lp1747
F31.483627319335938
aF200.7339324951172
aF8.599485397338867
aa(lp1748
F31.48279571533203
aF200.73377990722656
aF8.598860740661621
aa(lp1749
F31.482025146484375
aF200.7338409423828
aF8.598235130310059
aa(lp1750
F31.481273651123047
aF200.73416137695312
aF8.597663879394531
aa(lp1751
F31.480546951293945
aF200.73471069335938
aF8.596996307373047
aa(lp1752
F31.47983741760254
aF200.7351531982422
aF8.596299171447754
aa(lp1753
F31.47913360595703
aF200.735595703125
aF8.595641136169434
aa(lp1754
F31.478429794311523
aF200.7360382080078
aF8.594990730285645
aa(lp1755
F31.47769546508789
aF200.7366485595703
aF8.594369888305664
aa(lp1756
F31.477012634277344
aF200.73733520507812
aF8.593725204467773
aa(lp1757
F31.476285934448242
aF200.7376251220703
aF8.592968940734863
aa(lp1758
F31.47551918029785
aF200.73782348632812
aF8.592254638671875
aa(lp1759
F31.474777221679688
aF200.73829650878906
aF8.591663360595703
aa(lp1760
F31.474048614501953
aF200.73878479003906
aF8.59110164642334
aa(lp1761
F31.473190307617188
aF200.73863220214844
aF8.590496063232422
aa(lp1762
F31.4724063873291
aF200.73846435546875
aF8.589847564697266
aa(lp1763
F31.47165298461914
aF200.73838806152344
aF8.589146614074707
aa(lp1764
F31.470962524414062
aF200.7386474609375
aF8.588446617126465
aa(lp1765
F31.470237731933594
aF200.7385711669922
aF8.58762264251709
aa(lp1766
F31.469491958618164
aF200.7384796142578
aF8.586861610412598
aa(lp1767
F31.46878433227539
aF200.73851013183594
aF8.586108207702637
aa(lp1768
F31.466754913330078
aF200.73861694335938
aF8.584105491638184
aa(lp1769
F31.46596336364746
aF200.73849487304688
aF8.583439826965332
aa(lp1770
F31.465242385864258
aF200.73861694335938
aF8.582815170288086
aa(lp1771
F31.464527130126953
aF200.73890686035156
aF8.58222484588623
aa(lp1772
F31.463836669921875
aF200.73902893066406
aF8.581582069396973
aa(lp1773
F31.463176727294922
aF200.7395782470703
aF8.580939292907715
aa(lp1774
F31.46248435974121
aF200.74014282226562
aF8.58033561706543
aa(lp1775
F31.461809158325195
aF200.74044799804688
aF8.579682350158691
aa(lp1776
F31.461040496826172
aF200.74038696289062
aF8.579014778137207
aa(lp1777
F31.460344314575195
aF200.74050903320312
aF8.578282356262207
aa(lp1778
F31.459653854370117
aF200.7406463623047
aF8.577597618103027
aa(lp1779
F31.458961486816406
aF200.74078369140625
aF8.57693099975586
aa(lp1780
F31.458267211914062
aF200.74082946777344
aF8.576277732849121
aa(lp1781
F31.45752716064453
aF200.74066162109375
aF8.57559871673584
aa(lp1782
F31.456830978393555
aF200.7407989501953
aF8.574943542480469
aa(lp1783
F31.456153869628906
aF200.74082946777344
aF8.574257850646973
aa(lp1784
F31.455461502075195
aF200.74082946777344
aF8.573586463928223
aa(lp1785
F31.454870223999023
aF200.7413787841797
aF8.572816848754883
aa(lp1786
F31.454221725463867
aF200.74172973632812
aF8.572164535522461
aa(lp1787
F31.45361328125
aF200.74195861816406
aF8.571417808532715
aa(lp1788
F31.452951431274414
aF200.74221801757812
aF8.570834159851074
aa(lp1789
F31.452302932739258
aF200.7425079345703
aF8.57025146484375
aa(lp1790
F31.451662063598633
aF200.74290466308594
aF8.569696426391602
aa(lp1791
F31.4510555267334
aF200.74337768554688
aF8.569131851196289
aa(lp1792
F31.450414657592773
aF200.74378967285156
aF8.568570137023926
aa(lp1793
F31.449777603149414
aF200.7442626953125
aF8.568007469177246
aa(lp1794
F31.449127197265625
aF200.74449157714844
aF8.567424774169922
aa(lp1795
F31.448448181152344
aF200.74453735351562
aF8.566789627075195
aa(lp1796
F31.447853088378906
aF200.74484252929688
aF8.56615924835205
aa(lp1797
F31.447248458862305
aF200.74520874023438
aF8.565595626831055
aa(lp1798
F31.446624755859375
aF200.7454376220703
aF8.565011978149414
aa(lp1799
F31.446002960205078
aF200.74566650390625
aF8.564480781555176
aa(lp1800
F31.445369720458984
aF200.74578857421875
aF8.563982963562012
aa(lp1801
F31.444822311401367
aF200.74609375
aF8.563469886779785
aa(lp1802
F31.444250106811523
aF200.74635314941406
aF8.56296443939209
aa(lp1803
F31.443626403808594
aF200.746337890625
aF8.562565803527832
aa(lp1804
F31.443044662475586
aF200.74635314941406
aF8.56212043762207
aa(lp1805
F31.4424991607666
aF200.74658203125
aF8.561633110046387
aa(lp1806
F31.441911697387695
aF200.7467498779297
aF8.561155319213867
aa(lp1807
F31.44131851196289
aF200.7467498779297
aF8.560674667358398
aa(lp1808
F31.440757751464844
aF200.7469482421875
aF8.560200691223145
aa(lp1809
F31.440216064453125
aF200.74720764160156
aF8.559699058532715
aa(lp1810
F31.439706802368164
aF200.7474365234375
aF8.55921745300293
aa(lp1811
F31.439239501953125
aF200.747802734375
aF8.558734893798828
aa(lp1812
F31.43869972229004
aF200.74795532226562
aF8.558201789855957
aa(lp1813
F31.438199996948242
aF200.7481689453125
aF8.557689666748047
aa(lp1814
F31.437667846679688
aF200.74818420410156
aF8.557225227355957
aa(lp1815
F31.43714141845703
aF200.74822998046875
aF8.556819915771484
aa(lp1816
F31.436634063720703
aF200.7482452392578
aF8.556450843811035
aa(lp1817
F31.43611717224121
aF200.7480926513672
aF8.556097030639648
aa(lp1818
F31.435565948486328
aF200.74794006347656
aF8.555763244628906
aa(lp1819
F31.435020446777344
aF200.747802734375
aF8.555418014526367
aa(lp1820
F31.43449592590332
aF200.74778747558594
aF8.555027961730957
aa(lp1821
F31.43400001525879
aF200.74781799316406
aF8.554692268371582
aa(lp1822
F31.43351936340332
aF200.74801635742188
aF8.554387092590332
aa(lp1823
F31.43305778503418
aF200.74822998046875
aF8.554011344909668
aa(lp1824
F31.432689666748047
aF200.74880981445312
aF8.55359172821045
aa(lp1825
F31.432289123535156
aF200.74948120117188
aF8.553242683410645
aa(lp1826
F31.43185043334961
aF200.74978637695312
aF8.552918434143066
aa(lp1827
F31.431427001953125
aF200.75009155273438
aF8.55257797241211
aa(lp1828
F31.43100929260254
aF200.75038146972656
aF8.552225112915039
aa(lp1829
F31.43057632446289
aF200.7506561279297
aF8.55184555053711
aa(lp1830
F31.430200576782227
aF200.75103759765625
aF8.551413536071777
aa(lp1831
F31.429786682128906
aF200.7514190673828
aF8.551044464111328
aa(lp1832
F31.429359436035156
aF200.7515869140625
aF8.55064868927002
aa(lp1833
F31.42890739440918
aF200.751708984375
aF8.550209999084473
aa(lp1834
F31.42847442626953
aF200.75205993652344
aF8.549814224243164
aa(lp1835
F31.42795181274414
aF200.75213623046875
aF8.549447059631348
aa(lp1836
F31.427480697631836
aF200.75242614746094
aF8.549068450927734
aa(lp1837
F31.427093505859375
aF200.7529296875
aF8.54862117767334
aa(lp1838
F31.42668914794922
aF200.7533721923828
aF8.548177719116211
aa(lp1839
F31.426210403442383
aF200.7534942626953
aF8.547707557678223
aa(lp1840
F31.425752639770508
aF200.7537384033203
aF8.547269821166992
aa(lp1841
F31.425268173217773
aF200.75379943847656
aF8.546808242797852
aa(lp1842
F31.42477798461914
aF200.75390625
aF8.546442031860352
aa(lp1843
F31.42437171936035
aF200.75405883789062
aF8.5460205078125
aa(lp1844
F31.42397117614746
aF200.75437927246094
aF8.545626640319824
aa(lp1845
F31.42354393005371
aF200.75465393066406
aF8.545307159423828
aa(lp1846
F31.42310905456543
aF200.75477600097656
aF8.544953346252441
aa(lp1847
F31.422698974609375
aF200.7550506591797
aF8.5445556640625
aa(lp1848
F31.42230987548828
aF200.75546264648438
aF8.544116020202637
aa(lp1849
F31.421939849853516
aF200.75576782226562
aF8.543634414672852
aa(lp1850
F31.421607971191406
aF200.75611877441406
aF8.54312515258789
aa(lp1851
F31.421161651611328
aF200.75607299804688
aF8.542738914489746
aa(lp1852
F31.420801162719727
aF200.75636291503906
aF8.542264938354492
aa(lp1853
F31.420373916625977
aF200.7565155029297
aF8.541860580444336
aa(lp1854
F31.419952392578125
aF200.7565155029297
aF8.541425704956055
aa(lp1855
F31.419496536254883
aF200.75653076171875
aF8.541061401367188
aa(lp1856
F31.41904640197754
aF200.75665283203125
aF8.540610313415527
aa(lp1857
F31.41863441467285
aF200.75686645507812
aF8.540164947509766
aa(lp1858
F31.418209075927734
aF200.7570343017578
aF8.539751052856445
aa(lp1859
F31.417755126953125
aF200.75714111328125
aF8.539340019226074
aa(lp1860
F31.417285919189453
aF200.75714111328125
aF8.538887977600098
aa(lp1861
F31.41693115234375
aF200.75755310058594
aF8.538506507873535
aa(lp1862
F31.416589736938477
aF200.75808715820312
aF8.538064956665039
aa(lp1863
F31.416244506835938
aF200.7585906982422
aF8.537675857543945
aa(lp1864
F31.415828704833984
aF200.75885009765625
aF8.537275314331055
aa(lp1865
F31.415393829345703
aF200.759033203125
aF8.536971092224121
aa(lp1866
F31.41495132446289
aF200.75901794433594
aF8.536627769470215
aa(lp1867
F31.414566040039062
aF200.75929260253906
aF8.536368370056152
aa(lp1868
F31.414175033569336
aF200.75973510742188
aF8.536041259765625
aa(lp1869
F31.41372299194336
aF200.75978088378906
aF8.535688400268555
aa(lp1870
F31.41325569152832
aF200.7598876953125
aF8.535377502441406
aa(lp1871
F31.412870407104492
aF200.76016235351562
aF8.535003662109375
aa(lp1872
F31.412525177001953
aF200.76063537597656
aF8.5346040725708
aa(lp1873
F31.412172317504883
aF200.76107788085938
aF8.534183502197266
aa(lp1874
F31.411834716796875
aF200.761474609375
aF8.533808708190918
aa(lp1875
F31.41141700744629
aF200.76150512695312
aF8.533417701721191
aa(lp1876
F31.410982131958008
aF200.7616424560547
aF8.533156394958496
aa(lp1877
F31.410593032836914
aF200.7617950439453
aF8.532811164855957
aa(lp1878
F31.410171508789062
aF200.761962890625
aF8.53250789642334
aa(lp1879
F31.4099063873291
aF200.76219177246094
aF8.532061576843262
aa(lp1880
F31.409563064575195
aF200.76242065429688
aF8.531702041625977
aa(lp1881
F31.40925407409668
aF200.7630615234375
aF8.5313081741333
aa(lp1882
F31.409013748168945
aF200.76377868652344
aF8.530797958374023
aa(lp1883
F31.408687591552734
aF200.76422119140625
aF8.530417442321777
aa(lp1884
F31.408348083496094
aF200.764892578125
aF8.530075073242188
aa(lp1885
F31.407934188842773
aF200.76544189453125
aF8.529857635498047
aa(lp1886
F31.407482147216797
aF200.76568603515625
aF8.529579162597656
aa(lp1887
F31.40703582763672
aF200.76583862304688
aF8.529233932495117
aa(lp1888
F31.406648635864258
aF200.7662811279297
aF8.52895736694336
aa(lp1889
F31.40618133544922
aF200.7665252685547
aF8.528634071350098
aa(lp1890
F31.40571403503418
aF200.76669311523438
aF8.528244018554688
aa(lp1891
F31.40532112121582
aF200.76708984375
aF8.527911186218262
aa(lp1892
F31.40485382080078
aF200.76719665527344
aF8.527647972106934
aa(lp1893
F31.403610229492188
aF200.76808166503906
aF8.527152061462402
aa(lp1894
F31.403268814086914
aF200.76858520507812
aF8.526989936828613
aa(lp1895
F31.40284538269043
aF200.7686309814453
aF8.526704788208008
aa(lp1896
F31.402437210083008
aF200.76870727539062
aF8.526383399963379
aa(lp1897
F31.40205192565918
aF200.76910400390625
aF8.526159286499023
aa(lp1898
F31.4017276763916
aF200.76927185058594
aF8.525859832763672
aa(lp1899
F31.40134620666504
aF200.76943969726562
aF8.525651931762695
aa(lp1900
F31.401023864746094
aF200.76974487304688
aF8.525471687316895
aa(lp1901
F31.400733947753906
aF200.7701873779297
aF8.525179862976074
aa(lp1902
F31.400371551513672
aF200.77041625976562
aF8.524877548217773
aa(lp1903
F31.39995765686035
aF200.77037048339844
aF8.52464771270752
aa(lp1904
F31.399581909179688
aF200.77041625976562
aF8.524371147155762
aa(lp1905
F31.39920425415039
aF200.77037048339844
aF8.52408218383789
aa(lp1906
F31.39885139465332
aF200.77040100097656
aF8.523801803588867
aa(lp1907
F31.398454666137695
aF200.77024841308594
aF8.523508071899414
aa(lp1908
F31.398029327392578
aF200.76998901367188
aF8.523330688476562
aa(lp1909
F31.39764976501465
aF200.7698974609375
aF8.523073196411133
aa(lp1910
F31.397241592407227
aF200.76963806152344
aF8.522822380065918
aa(lp1911
F31.396879196166992
aF200.7694854736328
aF8.522522926330566
aa(lp1912
F31.396493911743164
aF200.7692108154297
aF8.52224063873291
aa(lp1913
F31.396072387695312
aF200.768798828125
aF8.521973609924316
aa(lp1914
F31.395652770996094
aF200.7684783935547
aF8.52171802520752
aa(lp1915
F31.39535140991211
aF200.76841735839844
aF8.521401405334473
aa(lp1916
F31.394994735717773
aF200.7682342529297
aF8.521208763122559
aa(lp1917
F31.394664764404297
aF200.7681121826172
aF8.52094554901123
aa(lp1918
F31.394271850585938
aF200.76780700683594
aF8.520546913146973
aa(lp1919
F31.39389991760254
aF200.7676239013672
aF8.5202054977417
aa(lp1920
F31.393522262573242
aF200.7675323486328
aF8.519821166992188
aa(lp1921
F31.39310073852539
aF200.7672576904297
aF8.51941204071045
aa(lp1922
F31.392715454101562
aF200.7671356201172
aF8.519064903259277
aa(lp1923
F31.392311096191406
aF200.76705932617188
aF8.51874828338623
aa(lp1924
F31.3919677734375
aF200.76715087890625
aF8.518471717834473
aa(lp1925
F31.391616821289062
aF200.7672882080078
aF8.518301010131836
aa(lp1926
F31.391273498535156
aF200.7674102783203
aF8.51812744140625
aa(lp1927
F31.39092445373535
aF200.7676239013672
aF8.518033027648926
aa(lp1928
F31.390640258789062
aF200.76788330078125
aF8.517834663391113
aa(lp1929
F31.39031410217285
aF200.76797485351562
aF8.517683982849121
aa(lp1930
F31.390060424804688
aF200.7684326171875
aF8.51754093170166
aa(lp1931
F31.38979148864746
aF200.76861572265625
aF8.517349243164062
aa(lp1932
F31.38945198059082
aF200.7686004638672
aF8.51716136932373
aa(lp1933
F31.389211654663086
aF200.76882934570312
aF8.516935348510742
aa(lp1934
F31.38889503479004
aF200.76898193359375
aF8.516756057739258
aa(lp1935
F31.38855743408203
aF200.7690887451172
aF8.516530990600586
aa(lp1936
F31.38828468322754
aF200.76927185058594
aF8.516318321228027
aa(lp1937
F31.38800811767578
aF200.76976013183594
aF8.516141891479492
aa(lp1938
F31.387706756591797
aF200.77000427246094
aF8.515999794006348
aa(lp1939
F31.38742446899414
aF200.77027893066406
aF8.515828132629395
aa(lp1940
F31.387128829956055
aF200.77044677734375
aF8.515632629394531
aa(lp1941
F31.386817932128906
aF200.77056884765625
aF8.515406608581543
aa(lp1942
F31.386592864990234
aF200.77099609375
aF8.515144348144531
aa(lp1943
F31.386337280273438
aF200.77122497558594
aF8.5148344039917
aa(lp1944
F31.386137008666992
aF200.7716064453125
aF8.514493942260742
aa(lp1945
F31.385915756225586
aF200.7718963623047
aF8.514175415039062
aa(lp1946
F31.38566780090332
aF200.77207946777344
aF8.513906478881836
aa(lp1947
F31.385425567626953
aF200.77220153808594
aF8.513619422912598
aa(lp1948
F31.38516616821289
aF200.7723388671875
aF8.513311386108398
aa(lp1949
F31.384885787963867
aF200.7725372314453
aF8.513065338134766
aa(lp1950
F31.384706497192383
aF200.773193359375
aF8.512880325317383
aa(lp1951
F31.384498596191406
aF200.7738037109375
aF8.512744903564453
aa(lp1952
F31.384292602539062
aF200.77423095703125
aF8.512532234191895
aa(lp1953
F31.38405990600586
aF200.77459716796875
aF8.512353897094727
aa(lp1954
F31.383817672729492
aF200.77490234375
aF8.512114524841309
aa(lp1955
F31.38359260559082
aF200.7753448486328
aF8.511809349060059
aa(lp1956
F31.3834228515625
aF200.77561950683594
aF8.511423110961914
aa(lp1957
F31.383256912231445
aF200.77584838867188
aF8.510991096496582
aa(lp1958
F31.38312530517578
aF200.7761688232422
aF8.510634422302246
aa(lp1959
F31.382957458496094
aF200.77635192871094
aF8.510278701782227
aa(lp1960
F31.382789611816406
aF200.7766876220703
aF8.509979248046875
aa(lp1961
F31.38261604309082
aF200.77703857421875
aF8.509724617004395
aa(lp1962
F31.38241195678711
aF200.77720642089844
aF8.509428977966309
aa(lp1963
F31.382211685180664
aF200.77737426757812
aF8.509041786193848
aa(lp1964
F31.381982803344727
aF200.7774200439453
aF8.508681297302246
aa(lp1965
F31.381803512573242
aF200.77752685546875
aF8.508363723754883
aa(lp1966
F31.381591796875
aF200.77748107910156
aF8.508042335510254
aa(lp1967
F31.38129997253418
aF200.777099609375
aF8.507730484008789
aa(lp1968
F31.381053924560547
aF200.77700805664062
aF8.507416725158691
aa(lp1969
F31.380817413330078
aF200.7770538330078
aF8.507161140441895
aa(lp1970
F31.380573272705078
aF200.7769012451172
aF8.506792068481445
aa(lp1971
F31.38037872314453
aF200.77706909179688
aF8.506484985351562
aa(lp1972
F31.380138397216797
aF200.7769317626953
aF8.506187438964844
aa(lp1973
F31.37999153137207
aF200.77699279785156
aF8.505781173706055
aa(lp1974
F31.37980842590332
aF200.77706909179688
aF8.505489349365234
aa(lp1975
F31.379623413085938
aF200.77708435058594
aF8.505186080932617
aa(lp1976
F31.37940788269043
aF200.77703857421875
aF8.50493049621582
aa(lp1977
F31.379207611083984
aF200.77734375
aF8.504715919494629
aa(lp1978
F31.3790283203125
aF200.7776641845703
aF8.504504203796387
aa(lp1979
F31.378864288330078
aF200.7780303955078
aF8.504241943359375
aa(lp1980
F31.37871551513672
aF200.7786102294922
aF8.504014015197754
aa(lp1981
F31.378572463989258
aF200.77908325195312
aF8.503806114196777
aa(lp1982
F31.378421783447266
aF200.77935791015625
aF8.503604888916016
aa(lp1983
F31.378313064575195
aF200.77992248535156
aF8.503382682800293
aa(lp1984
F31.378122329711914
aF200.7802734375
aF8.503186225891113
aa(lp1985
F31.37798500061035
aF200.7804718017578
aF8.502913475036621
aa(lp1986
F31.377832412719727
aF200.78089904785156
aF8.502699851989746
aa(lp1987
F31.377628326416016
aF200.78111267089844
aF8.502488136291504
aa(lp1988
F31.377397537231445
aF200.7811279296875
aF8.502276420593262
aa(lp1989
F31.377099990844727
aF200.781005859375
aF8.502092361450195
aa(lp1990
F31.37684440612793
aF200.78121948242188
aF8.501951217651367
aa(lp1991
F31.376630783081055
aF200.78138732910156
aF8.501789093017578
aa(lp1992
F31.376371383666992
aF200.78158569335938
aF8.501676559448242
aa(lp1993
F31.376121520996094
aF200.78184509277344
aF8.501521110534668
aa(lp1994
F31.37582778930664
aF200.78184509277344
aF8.501250267028809
aa(lp1995
F31.37554931640625
aF200.78179931640625
aF8.50106143951416
aa(lp1996
F31.375316619873047
aF200.78184509277344
aF8.50088119506836
aa(lp1997
F31.37505531311035
aF200.78179931640625
aF8.50075912475586
aa(lp1998
F31.374835968017578
aF200.781982421875
aF8.500635147094727
aa(lp1999
F31.3746337890625
aF200.7820281982422
aF8.50047492980957
aa(lp2000
F31.37442398071289
aF200.7822723388672
aF8.50033187866211
aa(lp2001
F31.374183654785156
aF200.78240966796875
aF8.500226020812988
aa(lp2002
F31.37393569946289
aF200.78237915039062
aF8.500093460083008
aa(lp2003
F31.37369155883789
aF200.7824249267578
aF8.500030517578125
aa(lp2004
F31.37347984313965
aF200.7826385498047
aF8.499873161315918
aa(lp2005
F31.37327766418457
aF200.78289794921875
aF8.4996976852417
aa(lp2006
F31.3730525970459
aF200.78306579589844
aF8.499557495117188
aa(lp2007
F31.372846603393555
aF200.7830810546875
aF8.499347686767578
aa(lp2008
F31.372684478759766
aF200.78323364257812
aF8.49913215637207
aa(lp2009
F31.37251091003418
aF200.78334045410156
aF8.49889850616455
aa(lp2010
F31.372295379638672
aF200.78334045410156
aF8.4986572265625
aa(lp2011
F31.372072219848633
aF200.7832489013672
aF8.498429298400879
aa(lp2012
F31.371828079223633
aF200.78305053710938
aF8.49828815460205
aa(lp2013
F31.371551513671875
aF200.78280639648438
aF8.498163223266602
aa(lp2014
F31.371318817138672
aF200.78285217285156
aF8.498023986816406
aa(lp2015
F31.37114715576172
aF200.7830352783203
aF8.497880935668945
aa(lp2016
F31.370994567871094
aF200.7832794189453
aF8.49763011932373
aa(lp2017
F31.37083625793457
aF200.7834014892578
aF8.497419357299805
aa(lp2018
F31.37055015563965
aF200.78456115722656
aF8.496896743774414
aa(lp2019
F31.370365142822266
aF200.7845458984375
aF8.496758460998535
aa(lp2020
F31.370208740234375
aF200.78480529785156
aF8.496644973754883
aa(lp2021
F31.370037078857422
aF200.78488159179688
aF8.496541976928711
aa(lp2022
F31.36983871459961
aF200.78485107421875
aF8.496341705322266
aa(lp2023
F31.36974334716797
aF200.78501892089844
aF8.49604606628418
aa(lp2024
F31.369626998901367
aF200.78526306152344
aF8.495793342590332
aa(lp2025
F31.3695011138916
aF200.78561401367188
aF8.495570182800293
aa(lp2026
F31.369356155395508
aF200.78587341308594
aF8.495368957519531
aa(lp2027
F31.369220733642578
aF200.7860870361328
aF8.495070457458496
aa(lp2028
F31.36900520324707
aF200.78611755371094
aF8.494917869567871
aa(lp2029
F31.36883544921875
aF200.7862548828125
aF8.494757652282715
aa(lp2030
F31.368745803833008
aF200.78646850585938
aF8.49455738067627
aa(lp2031
F31.36863136291504
aF200.78660583496094
aF8.494359970092773
aa(lp2032
F31.36849021911621
aF200.7866668701172
aF8.49423885345459
aa(lp2033
F31.368349075317383
aF200.78688049316406
aF8.494102478027344
aa(lp2034
F31.368173599243164
aF200.7869415283203
aF8.493973731994629
aa(lp2035
F31.368011474609375
aF200.7870330810547
aF8.493880271911621
aa(lp2036
F31.36791229248047
aF200.78753662109375
aF8.49374008178711
aa(lp2037
F31.367809295654297
aF200.78787231445312
aF8.493566513061523
aa(lp2038
F31.367712020874023
aF200.78863525390625
aF8.493474006652832
aa(lp2039
F31.367597579956055
aF200.78903198242188
aF8.493284225463867
aa(lp2040
F31.367481231689453
aF200.7894287109375
aF8.493130683898926
aa(lp2041
F31.367311477661133
aF200.7895965576172
aF8.492972373962402
aa(lp2042
F31.367115020751953
aF200.7893829345703
aF8.492849349975586
aa(lp2043
F31.36693572998047
aF200.7892608642578
aF8.492715835571289
aa(lp2044
F31.36675453186035
aF200.78903198242188
aF8.492507934570312
aa(lp2045
F31.366655349731445
aF200.78924560546875
aF8.492347717285156
aa(lp2046
F31.36656951904297
aF200.7894287109375
aF8.492148399353027
aa(lp2047
F31.366455078125
aF200.78955078125
aF8.491959571838379
aa(lp2048
F31.36629867553711
aF200.78936767578125
aF8.49170207977295
aa(lp2049
F31.366159439086914
aF200.78936767578125
aF8.491469383239746
aa(lp2050
F31.3659725189209
aF200.7893829345703
aF8.491228103637695
aa(lp2051
F31.365768432617188
aF200.78929138183594
aF8.49107837677002
aa(lp2052
F31.36553192138672
aF200.78915405273438
aF8.49092960357666
aa(lp2053
F31.365318298339844
aF200.7888946533203
aF8.490683555603027
aa(lp2054
F31.365156173706055
aF200.7888946533203
aF8.4904203414917
aa(lp2055
F31.365007400512695
aF200.78897094726562
aF8.490206718444824
aa(lp2056
F31.364809036254883
aF200.78878784179688
aF8.490072250366211
aa(lp2057
F31.36459732055664
aF200.78848266601562
aF8.489906311035156
aa(lp2058
F31.364402770996094
aF200.7883758544922
aF8.489716529846191
aa(lp2059
F31.364171981811523
aF200.7880401611328
aF8.489553451538086
aa(lp2060
F31.363954544067383
aF200.7877960205078
aF8.489517211914062
aa(lp2061
F31.363731384277344
aF200.78753662109375
aF8.48947525024414
aa(lp2062
F31.363536834716797
aF200.7874755859375
aF8.489410400390625
aa(lp2063
F31.363313674926758
aF200.78744506835938
aF8.489348411560059
aa(lp2064
F31.363100051879883
aF200.78733825683594
aF8.489348411560059
aa(lp2065
F31.36288833618164
aF200.7872314453125
aF8.489235877990723
aa(lp2066
F31.36269187927246
aF200.7869110107422
aF8.489093780517578
aa(lp2067
F31.362537384033203
aF200.78683471679688
aF8.489019393920898
aa(lp2068
F31.36239242553711
aF200.7867431640625
aF8.488885879516602
aa(lp2069
F31.362276077270508
aF200.78680419921875
aF8.488723754882812
aa(lp2070
F31.362102508544922
aF200.7867889404297
aF8.48864459991455
aa(lp2071
F31.361934661865234
aF200.78660583496094
aF8.488572120666504
aa(lp2072
F31.361799240112305
aF200.78648376464844
aF8.488463401794434
aa(lp2073
F31.361696243286133
aF200.78648376464844
aF8.4882230758667
aa(lp2074
F31.361507415771484
aF200.7862548828125
aF8.488004684448242
aa(lp2075
F31.361356735229492
aF200.7861785888672
aF8.487855911254883
aa(lp2076
F31.36113929748535
aF200.78599548339844
aF8.487774848937988
aa(lp2077
F31.360979080200195
aF200.78602600097656
aF8.487685203552246
aa(lp2078
F31.360769271850586
aF200.78582763671875
aF8.487659454345703
aa(lp2079
F31.360586166381836
aF200.7856903076172
aF8.487610816955566
aa(lp2080
F31.3603572845459
aF200.78536987304688
aF8.487542152404785
aa(lp2081
F31.36019515991211
aF200.78517150878906
aF8.487420082092285
aa(lp2082
F31.360074996948242
aF200.78529357910156
aF8.487310409545898
aa(lp2083
F31.360002517700195
aF200.7855224609375
aF8.487203598022461
aa(lp2084
F31.359893798828125
aF200.78579711914062
aF8.487068176269531
aa(lp2085
F31.359783172607422
aF200.78611755371094
aF8.486955642700195
aa(lp2086
F31.35965919494629
aF200.7863006591797
aF8.486873626708984
aa(lp2087
F31.359512329101562
aF200.78639221191406
aF8.48678207397461
aa(lp2088
F31.359371185302734
aF200.78656005859375
aF8.48668098449707
aa(lp2089
F31.359230041503906
aF200.78663635253906
aF8.486593246459961
aa(lp2090
F31.35902976989746
aF200.7864227294922
aF8.48647403717041
aa(lp2091
F31.358861923217773
aF200.78627014160156
aF8.486395835876465
aa(lp2092
F31.358654022216797
aF200.7859344482422
aF8.486310958862305
aa(lp2093
F31.358461380004883
aF200.78567504882812
aF8.486221313476562
aa(lp2094
F31.358312606811523
aF200.78575134277344
aF8.486152648925781
aa(lp2095
F31.358083724975586
aF200.78543090820312
aF8.48604679107666
aa(lp2096
F31.357954025268555
aF200.78558349609375
aF8.485971450805664
aa(lp2097
F31.357820510864258
aF200.78575134277344
aF8.485913276672363
aa(lp2098
F31.357648849487305
aF200.78570556640625
aF8.485836029052734
aa(lp2099
F31.35752296447754
aF200.78578186035156
aF8.48570728302002
aa(lp2100
F31.357322692871094
aF200.7855224609375
aF8.485601425170898
aa(lp2101
F31.357128143310547
aF200.78529357910156
aF8.485530853271484
aa(lp2102
F31.356924057006836
aF200.78480529785156
aF8.485435485839844
aa(lp2103
F31.356735229492188
aF200.784423828125
aF8.485306739807129
aa(lp2104
F31.35662841796875
aF200.78436279296875
aF8.485146522521973
aa(lp2105
F31.35650062561035
aF200.78439331054688
aF8.484990119934082
aa(lp2106
F31.356334686279297
aF200.78445434570312
aF8.484892845153809
aa(lp2107
F31.356199264526367
aF200.78489685058594
aF8.484869956970215
aa(lp2108
F31.35604476928711
aF200.7851104736328
aF8.484848976135254
aa(lp2109
F31.355907440185547
aF200.7853240966797
aF8.484720230102539
aa(lp2110
F31.355731964111328
aF200.78530883789062
aF8.484630584716797
aa(lp2111
F31.355588912963867
aF200.7852020263672
aF8.484418869018555
aa(lp2112
F31.35544204711914
aF200.78504943847656
aF8.484291076660156
aa(lp2113
F31.355363845825195
aF200.78509521484375
aF8.484103202819824
aa(lp2114
F31.355215072631836
aF200.78494262695312
aF8.483962059020996
aa(lp2115
F31.355091094970703
aF200.78500366210938
aF8.48382568359375
aa(lp2116
F31.354902267456055
aF200.784912109375
aF8.483798027038574
aa(lp2117
F31.35476303100586
aF200.78497314453125
aF8.48371410369873
aa(lp2118
F31.354658126831055
aF200.78521728515625
aF8.483696937561035
aa(lp2119
F31.3544979095459
aF200.78524780273438
aF8.483701705932617
aa(lp2120
F31.35438346862793
aF200.78533935546875
aF8.483623504638672
aa(lp2121
F31.354246139526367
aF200.78549194335938
aF8.483589172363281
aa(lp2122
F31.354116439819336
aF200.7858123779297
aF8.483553886413574
aa(lp2123
F31.353961944580078
aF200.78607177734375
aF8.483534812927246
aa(lp2124
F31.353742599487305
aF200.78598022460938
aF8.483498573303223
aa(lp2125
F31.353517532348633
aF200.7858123779297
aF8.483370780944824
aa(lp2126
F31.35338592529297
aF200.7860870361328
aF8.483277320861816
aa(lp2127
F31.35324478149414
aF200.78616333007812
aF8.483270645141602
aa(lp2128
F31.353107452392578
aF200.78623962402344
aF8.483233451843262
aa(lp2129
F31.352977752685547
aF200.78619384765625
aF8.483262062072754
aa(lp2130
F31.35285186767578
aF200.78604125976562
aF8.483237266540527
aa(lp2131
F31.352739334106445
aF200.7861328125
aF8.483213424682617
aa(lp2132
F31.352590560913086
aF200.78616333007812
aF8.48315143585205
aa(lp2133
F31.352453231811523
aF200.7860870361328
aF8.483011245727539
aa(lp2134
F31.352252960205078
aF200.78564453125
aF8.482894897460938
aa(lp2135
F31.35204315185547
aF200.78517150878906
aF8.48276424407959
aa(lp2136
F31.35186195373535
aF200.78480529785156
aF8.482537269592285
aa(lp2137
F31.35173225402832
aF200.78485107421875
aF8.482377052307129
aa(lp2138
F31.35166358947754
aF200.78514099121094
aF8.482145309448242
aa(lp2139
F31.351572036743164
aF200.7853240966797
aF8.481929779052734
aa(lp2140
F31.3514461517334
aF200.78543090820312
aF8.481743812561035
aa(lp2141
F31.351350784301758
aF200.78561401367188
aF8.48163890838623
aa(lp2142
F31.35127830505371
aF200.78587341308594
aF8.48156452178955
aa(lp2143
F31.351150512695312
aF200.78709411621094
aF8.481292724609375
aa(lp2144
F31.35111427307129
aF200.78756713867188
aF8.481175422668457
aa(lp2145
F31.35109519958496
aF200.78797912597656
aF8.481135368347168
aa(lp2146
F31.351062774658203
aF200.78805541992188
aF8.48101806640625
aa(lp2147
F31.351037979125977
aF200.78822326660156
aF8.480900764465332
aa(lp2148
F31.35099983215332
aF200.78826904296875
aF8.48076343536377
aa(lp2149
F31.350875854492188
aF200.7880859375
aF8.4806489944458
aa(lp2150
F31.350770950317383
aF200.7879180908203
aF8.480514526367188
aa(lp2151
F31.350656509399414
aF200.78770446777344
aF8.480459213256836
aa(lp2152
F31.350568771362305
aF200.78759765625
aF8.480378150939941
aa(lp2153
F31.35051727294922
aF200.78781127929688
aF8.480304718017578
aa(lp2154
F31.35042953491211
aF200.7878875732422
aF8.48022747039795
aa(lp2155
F31.350330352783203
aF200.7877655029297
aF8.480113983154297
aa(lp2156
F31.35013198852539
aF200.78753662109375
aF8.480093955993652
aa(lp2157
F31.349964141845703
aF200.78741455078125
aF8.48002815246582
aa(lp2158
F31.349851608276367
aF200.78750610351562
aF8.479958534240723
aa(lp2159
F31.34972381591797
aF200.7872772216797
aF8.479857444763184
aa(lp2160
F31.349580764770508
aF200.78675842285156
aF8.47973346710205
aa(lp2161
F31.349445343017578
aF200.7864532470703
aF8.47964096069336
aa(lp2162
F31.349409103393555
aF200.78659057617188
aF8.479427337646484
aa(lp2163
F31.349355697631836
aF200.78665161132812
aF8.479265213012695
aa(lp2164
F31.349218368530273
aF200.78648376464844
aF8.479154586791992
aa(lp2165
F31.34912872314453
aF200.78640747070312
aF8.479122161865234
aa(lp2166
F31.349021911621094
aF200.78619384765625
aF8.479117393493652
aa(lp2167
F31.348915100097656
aF200.78622436523438
aF8.479042053222656
aa(lp2168
F31.348817825317383
aF200.78614807128906
aF8.478931427001953
aa(lp2169
F31.348731994628906
aF200.78622436523438
aF8.478840827941895
aa(lp2170
F31.3486328125
aF200.78582763671875
aF8.478594779968262
aa(lp2171
F31.348556518554688
aF200.78573608398438
aF8.478426933288574
aa(lp2172
F31.348506927490234
aF200.78582763671875
aF8.47835636138916
aa(lp2173
F31.348506927490234
aF200.7858123779297
aF8.478230476379395
aa(lp2174
F31.34844970703125
aF200.7857666015625
aF8.478143692016602
aa(lp2175
F31.34836196899414
aF200.78567504882812
aF8.478076934814453
aa(lp2176
F31.348289489746094
aF200.78590393066406
aF8.477999687194824
aa(lp2177
F31.348108291625977
aF200.7857666015625
aF8.478022575378418
aa(lp2178
F31.34794044494629
aF200.78561401367188
aF8.478012084960938
aa(lp2179
F31.347789764404297
aF200.78546142578125
aF8.477975845336914
aa(lp2180
F31.34761619567871
aF200.78529357910156
aF8.477911949157715
aa(lp2181
F31.347492218017578
aF200.78530883789062
aF8.47780990600586
aa(lp2182
F31.34732437133789
aF200.78514099121094
aF8.477747917175293
aa(lp2183
F31.34719467163086
aF200.7850341796875
aF8.477739334106445
aa(lp2184
F31.347087860107422
aF200.78480529785156
aF8.477621078491211
aa(lp2185
F31.34701156616211
aF200.7847137451172
aF8.47751235961914
aa(lp2186
F31.346961975097656
aF200.78463745117188
aF8.477422714233398
aa(lp2187
F31.346851348876953
aF200.78439331054688
aF8.477389335632324
aa(lp2188
F31.346805572509766
aF200.784423828125
aF8.477231979370117
aa(lp2189
F31.346691131591797
aF200.7843780517578
aF8.477198600769043
aa(lp2190
F31.34654998779297
aF200.78402709960938
aF8.477055549621582
aa(lp2191
F31.346437454223633
aF200.78399658203125
aF8.476954460144043
aa(lp2192
F31.346393585205078
aF200.7842559814453
aF8.47680950164795
aa(lp2193
F31.3463191986084
aF200.78431701660156
aF8.476649284362793
aa(lp2194
F31.34619903564453
aF200.78439331054688
aF8.476523399353027
aa(lp2195
F31.346006393432617
aF200.78421020507812
aF8.47653579711914
aa(lp2196
F31.345876693725586
aF200.78424072265625
aF8.476493835449219
aa(lp2197
F31.345746994018555
aF200.78396606445312
aF8.476478576660156
aa(lp2198
F31.345548629760742
aF200.78353881835938
aF8.476442337036133
aa(lp2199
F31.34531593322754
aF200.78294372558594
aF8.47636890411377
aa(lp2200
F31.345123291015625
aF200.78257751464844
aF8.476337432861328
aa(lp2201
F31.344959259033203
aF200.78224182128906
aF8.476228713989258
aa(lp2202
F31.3448486328125
aF200.78224182128906
aF8.47615909576416
aa(lp2203
F31.344755172729492
aF200.78224182128906
aF8.47617244720459
aa(lp2204
F31.344730377197266
aF200.78245544433594
aF8.476160049438477
aa(lp2205
F31.344690322875977
aF200.78256225585938
aF8.476006507873535
aa(lp2206
F31.344711303710938
aF200.78302001953125
aF8.475874900817871
aa(lp2207
F31.34465789794922
aF200.78311157226562
aF8.475762367248535
aa(lp2208
F31.344633102416992
aF200.78341674804688
aF8.475671768188477
aa(lp2209
F31.34455108642578
aF200.78369140625
aF8.475634574890137
aa(lp2210
F31.34442138671875
aF200.7837677001953
aF8.475591659545898
aa(lp2211
F31.3443660736084
aF200.7840118408203
aF8.475517272949219
aa(lp2212
F31.3443546295166
aF200.78445434570312
aF8.475443840026855
aa(lp2213
F31.34432029724121
aF200.78468322753906
aF8.475324630737305
aa(lp2214
F31.34426498413086
aF200.7848663330078
aF8.475262641906738
aa(lp2215
F31.344223022460938
aF200.78500366210938
aF8.475154876708984
aa(lp2216
F31.34417724609375
aF200.7850799560547
aF8.475111961364746
aa(lp2217
F31.344135284423828
aF200.78524780273438
aF8.474993705749512
aa(lp2218
F31.34409523010254
aF200.78541564941406
aF8.474905967712402
aa(lp2219
F31.344058990478516
aF200.78561401367188
aF8.4747896194458
aa(lp2220
F31.344009399414062
aF200.7855987548828
aF8.47469711303711
aa(lp2221
F31.34392547607422
aF200.7855987548828
aF8.474663734436035
aa(lp2222
F31.34381675720215
aF200.78538513183594
aF8.474654197692871
aa(lp2223
F31.343637466430664
aF200.78482055664062
aF8.474599838256836
aa(lp2224
F31.34342384338379
aF200.7843017578125
aF8.47457218170166
aa(lp2225
F31.34320068359375
aF200.7838592529297
aF8.474641799926758
aa(lp2226
F31.342958450317383
aF200.78358459472656
aF8.47475528717041
aa(lp2227
F31.342744827270508
aF200.7832794189453
aF8.474778175354004
aa(lp2228
F31.342567443847656
aF200.78323364257812
aF8.474872589111328
aa(lp2229
F31.342365264892578
aF200.78282165527344
aF8.474900245666504
aa(lp2230
F31.342178344726562
aF200.7826385498047
aF8.474924087524414
aa(lp2231
F31.342041015625
aF200.7826385498047
aF8.474923133850098
aa(lp2232
F31.341951370239258
aF200.782470703125
aF8.474828720092773
aa(lp2233
F31.341875076293945
aF200.782470703125
aF8.474751472473145
aa(lp2234
F31.34180450439453
aF200.78225708007812
aF8.4746732711792
aa(lp2235
F31.341777801513672
aF200.7822723388672
aF8.474593162536621
aa(lp2236
F31.3416690826416
aF200.7818603515625
aF8.474538803100586
aa(lp2237
F31.341583251953125
aF200.78170776367188
aF8.474486351013184
aa(lp2238
F31.34146499633789
aF200.78146362304688
aF8.474563598632812
aa(lp2239
F31.341344833374023
aF200.78135681152344
aF8.474698066711426
aa(lp2240
F31.341262817382812
aF200.781494140625
aF8.474798202514648
aa(lp2241
F31.34115219116211
aF200.78170776367188
aF8.474893569946289
aa(lp2242
F31.341089248657227
aF200.78192138671875
aF8.474977493286133
aa(lp2243
F31.34104347229004
aF200.7821502685547
aF8.475044250488281
aa(lp2244
F31.341018676757812
aF200.78244018554688
aF8.475037574768066
aa(lp2245
F31.340930938720703
aF200.78248596191406
aF8.475019454956055
aa(lp2246
F31.340900421142578
aF200.7825469970703
aF8.474930763244629
aa(lp2247
F31.340850830078125
aF200.7826690673828
aF8.474926948547363
aa(lp2248
F31.34075355529785
aF200.78260803222656
aF8.474843978881836
aa(lp2249
F31.340675354003906
aF200.78257751464844
aF8.474730491638184
aa(lp2250
F31.340576171875
aF200.7824249267578
aF8.474635124206543
aa(lp2251
F31.340444564819336
aF200.78219604492188
aF8.474533081054688
aa(lp2252
F31.340253829956055
aF200.78164672851562
aF8.474512100219727
aa(lp2253
F31.340099334716797
aF200.78126525878906
aF8.474455833435059
aa(lp2254
F31.340011596679688
aF200.78114318847656
aF8.474386215209961
aa(lp2255
F31.33995246887207
aF200.78106689453125
aF8.474305152893066
aa(lp2256
F31.339916229248047
aF200.78126525878906
aF8.474312782287598
aa(lp2257
F31.339920043945312
aF200.78160095214844
aF8.474299430847168
aa(lp2258
F31.33991241455078
aF200.78170776367188
aF8.474200248718262
aa(lp2259
F31.339847564697266
aF200.7816925048828
aF8.474152565002441
aa(lp2260
F31.339767456054688
aF200.78170776367188
aF8.474120140075684
aa(lp2261
F31.339698791503906
aF200.78175354003906
aF8.474071502685547
aa(lp2262
F31.339616775512695
aF200.7818145751953
aF8.474098205566406
aa(lp2263
F31.339569091796875
aF200.78211975097656
aF8.474112510681152
aa(lp2264
F31.339574813842773
aF200.7826385498047
aF8.47409725189209
aa(lp2265
F31.33958625793457
aF200.7831268310547
aF8.47403335571289
aa(lp2266
F31.339580535888672
aF200.78323364257812
aF8.473983764648438
aa(lp2267
F31.33958625793457
aF200.7832489013672
aF8.473904609680176
aa(lp2268
F31.339635848999023
aF200.78367614746094
aF8.473652839660645
aa(lp2269
F31.339656829833984
aF200.7837371826172
aF8.473566055297852
aa.