(lp0
(lp1
F30.965959548950195
aF204.9691162109375
aF-110.7254638671875
aa(lp2
F31.480825424194336
aF204.94436645507812
aF-110.5864028930664
aa(lp3
F31.920541763305664
aF204.92343139648438
aF-110.48429107666016
aa(lp4
F32.3366813659668
aF204.90879821777344
aF-110.37669372558594
aa(lp5
F32.635658264160156
aF204.89772033691406
aF-110.29064178466797
aa(lp6
F32.86155700683594
aF204.88673400878906
aF-110.22380828857422
aa(lp7
F33.05606460571289
aF204.87864685058594
aF-110.17130279541016
aa(lp8
F33.20307159423828
aF204.87425231933594
aF-110.13418579101562
aa(lp9
F33.31461715698242
aF204.87420654296875
aF-110.1158676147461
aa(lp10
F33.42460250854492
aF204.8728790283203
aF-110.09584045410156
aa(lp11
F33.4906005859375
aF204.86529541015625
aF-110.06997680664062
aa(lp12
F33.54793167114258
aF204.8628387451172
aF-110.07195281982422
aa(lp13
F33.59220504760742
aF204.85714721679688
aF-110.05146789550781
aa(lp14
F33.6317024230957
aF204.86154174804688
aF-110.04336547851562
aa(lp15
F33.65695571899414
aF204.86508178710938
aF-110.0484848022461
aa(lp16
F33.677249908447266
aF204.86436462402344
aF-110.04232025146484
aa(lp17
F33.69498825073242
aF204.86199951171875
aF-110.02153015136719
aa(lp18
F33.70814895629883
aF204.8572540283203
aF-110.02539825439453
aa(lp19
F33.71787643432617
aF204.85302734375
aF-110.00505065917969
aa(lp20
F33.72739028930664
aF204.85939025878906
aF-110.01069641113281
aa(lp21
F33.73251724243164
aF204.8602752685547
aF-109.99647521972656
aa(lp22
F33.73839569091797
aF204.8651580810547
aF-110.00138092041016
aa(lp23
F33.742313385009766
aF204.86566162109375
aF-110.0123291015625
aa(lp24
F33.74586486816406
aF204.8687744140625
aF-110.02433776855469
aa(lp25
F33.748008728027344
aF204.8651885986328
aF-110.01921844482422
aa(lp26
F33.75025177001953
aF204.8694305419922
aF-110.03094482421875
aa(lp27
F33.752296447753906
aF204.86767578125
aF-110.02671813964844
aa(lp28
F33.75234603881836
aF204.8666229248047
aF-110.01884460449219
aa(lp29
F33.75209045410156
aF204.86663818359375
aF-110.02388000488281
aa(lp30
F33.75171661376953
aF204.86228942871094
aF-110.01073455810547
aa(lp31
F33.75209045410156
aF204.86463928222656
aF-110.00743865966797
aa(lp32
F33.75277328491211
aF204.86289978027344
aF-109.99494934082031
aa(lp33
F33.75360870361328
aF204.86541748046875
aF-109.99690246582031
aa(lp34
F33.75497055053711
aF204.8713836669922
aF-109.98318481445312
aa(lp35
F33.75522232055664
aF204.87008666992188
aF-110.00103759765625
aa(lp36
F33.7562370300293
aF204.8689727783203
aF-109.99047088623047
aa(lp37
F33.75746154785156
aF204.874267578125
aF-109.9845962524414
aa.