(lp0
(lp1
F44.40679931640625
aF208.64329528808594
aF-94.41951751708984
aa(lp2
F44.40679931640625
aF208.64329528808594
aF-94.41951751708984
aa(lp3
F44.40679931640625
aF208.64329528808594
aF-94.41951751708984
aa(lp4
F44.40679931640625
aF208.64329528808594
aF-94.41951751708984
aa(lp5
F44.40679931640625
aF208.64329528808594
aF-94.41951751708984
aa(lp6
F44.40679931640625
aF208.64329528808594
aF-94.41951751708984
aa(lp7
F44.40679931640625
aF208.64329528808594
aF-94.41951751708984
aa(lp8
F44.40679931640625
aF208.64329528808594
aF-94.41951751708984
aa(lp9
F44.40679931640625
aF208.64329528808594
aF-94.41951751708984
aa(lp10
F44.40679931640625
aF208.64329528808594
aF-94.41951751708984
aa(lp11
F44.40679931640625
aF208.64329528808594
aF-94.41951751708984
aa(lp12
F44.40679931640625
aF208.64329528808594
aF-94.41951751708984
aa(lp13
F44.40679931640625
aF208.64329528808594
aF-94.41951751708984
aa(lp14
F44.40679931640625
aF208.64329528808594
aF-94.41951751708984
aa(lp15
F44.40679931640625
aF208.64329528808594
aF-94.41951751708984
aa(lp16
F44.38288879394531
aF208.6437530517578
aF-94.4410400390625
aa(lp17
F44.30818557739258
aF208.6450958251953
aF-94.50828552246094
aa(lp18
F44.18657684326172
aF208.6473846435547
aF-94.617919921875
aa(lp19
F44.02409362792969
aF208.6502685546875
aF-94.76411437988281
aa(lp20
F43.81716537475586
aF208.65408325195312
aF-94.95073699951172
aa(lp21
F43.539649963378906
aF208.6588134765625
aF-95.20018768310547
aa(lp22
F43.260597229003906
aF208.6630401611328
aF-95.4510269165039
aa(lp23
F42.95412063598633
aF208.66819763183594
aF-95.72697448730469
aa(lp24
F42.58595275878906
aF208.6752471923828
aF-96.05934143066406
aa(lp25
F42.22103500366211
aF208.68328857421875
aF-96.38964080810547
aa(lp26
F41.781803131103516
aF208.68951416015625
aF-96.78424072265625
aa(lp27
F41.276493072509766
aF208.6993408203125
aF-97.23957824707031
aa(lp28
F40.783653259277344
aF208.70928955078125
aF-97.6817626953125
aa(lp29
F40.267093658447266
aF208.71884155273438
aF-98.1467514038086
aa(lp30
F39.75169372558594
aF208.7282257080078
aF-98.60918426513672
aa.