(lp0
(lp1
F33.917572021484375
aF207.70242309570312
aF-107.5238037109375
aa(lp2
F33.87745666503906
aF207.70018005371094
aF-107.5576400756836
aa(lp3
F33.84891891479492
aF207.70179748535156
aF-107.5834732055664
aa(lp4
F33.834678649902344
aF207.71080017089844
aF-107.60818481445312
aa(lp5
F33.82089614868164
aF207.69717407226562
aF-107.6186294555664
aa(lp6
F33.80577087402344
aF207.69606018066406
aF-107.6229019165039
aa(lp7
F33.80108642578125
aF207.70797729492188
aF-107.63677215576172
aa(lp8
F33.79115295410156
aF207.7028045654297
aF-107.63973999023438
aa(lp9
F33.78948211669922
aF207.6950225830078
aF-107.64588165283203
aa(lp10
F33.78095245361328
aF207.70095825195312
aF-107.64752960205078
aa(lp11
F33.78445053100586
aF207.71414184570312
aF-107.66090393066406
aa(lp12
F33.78645324707031
aF207.72186279296875
aF-107.6678695678711
aa(lp13
F33.78050994873047
aF207.71563720703125
aF-107.66024017333984
aa(lp14
F33.78216552734375
aF207.71701049804688
aF-107.6629638671875
aa(lp15
F33.780452728271484
aF207.71112060546875
aF-107.65930938720703
aa(lp16
F33.778564453125
aF207.7069549560547
aF-107.65924835205078
aa(lp17
F33.780757904052734
aF207.7130889892578
aF-107.66139221191406
aa(lp18
F33.779441833496094
aF207.7174072265625
aF-107.66207122802734
aa(lp19
F33.7790641784668
aF207.71128845214844
aF-107.66136169433594
aa(lp20
F33.78037643432617
aF207.71307373046875
aF-107.66291809082031
aa(lp21
F33.780479431152344
aF207.71490478515625
aF-107.6641616821289
aa(lp22
F33.777061462402344
aF207.7160186767578
aF-107.66322326660156
aa(lp23
F33.780277252197266
aF207.72276306152344
aF-107.66576385498047
aa(lp24
F33.78219985961914
aF207.7224884033203
aF-107.66505432128906
aa(lp25
F33.78549575805664
aF207.718994140625
aF-107.6655502319336
aa(lp26
F33.785911560058594
aF207.718994140625
aF-107.66617584228516
aa(lp27
F33.782615661621094
aF207.720458984375
aF-107.66260528564453
aa(lp28
F33.777000427246094
aF207.7169952392578
aF-107.66229248046875
aa(lp29
F33.77520751953125
aF207.7159881591797
aF-107.66111755371094
aa(lp30
F33.7797966003418
aF207.72328186035156
aF-107.66732025146484
aa(lp31
F33.775245666503906
aF207.71853637695312
aF-107.6644515991211
aa.