(lp0
(lp1
F44.43427276611328
aF208.61476135253906
aF-94.38265991210938
aa(lp2
F44.43427276611328
aF208.61476135253906
aF-94.38265991210938
aa(lp3
F44.43427276611328
aF208.61476135253906
aF-94.38265991210938
aa(lp4
F44.43427276611328
aF208.61476135253906
aF-94.38265991210938
aa(lp5
F44.43427276611328
aF208.61476135253906
aF-94.38265991210938
aa(lp6
F44.43427276611328
aF208.61476135253906
aF-94.38265991210938
aa(lp7
F44.43427276611328
aF208.61476135253906
aF-94.38265991210938
aa(lp8
F44.43427276611328
aF208.61476135253906
aF-94.38265991210938
aa(lp9
F44.43427276611328
aF208.61476135253906
aF-94.38265991210938
aa(lp10
F44.43427276611328
aF208.61476135253906
aF-94.38265991210938
aa(lp11
F44.43427276611328
aF208.61476135253906
aF-94.38265991210938
aa(lp12
F44.43427276611328
aF208.61476135253906
aF-94.38265991210938
aa(lp13
F44.43427276611328
aF208.61476135253906
aF-94.38265991210938
aa(lp14
F44.43427276611328
aF208.61476135253906
aF-94.38265991210938
aa(lp15
F44.43346405029297
aF208.61477661132812
aF-94.38339233398438
aa(lp16
F44.39719009399414
aF208.61541748046875
aF-94.41622924804688
aa(lp17
F44.29799270629883
aF208.61705017089844
aF-94.50579833984375
aa(lp18
F44.15516662597656
aF208.6196746826172
aF-94.63501739501953
aa(lp19
F43.972129821777344
aF208.62306213378906
aF-94.80072021484375
aa(lp20
F43.72576141357422
aF208.62730407714844
aF-95.02318572998047
aa(lp21
F43.42742156982422
aF208.63278198242188
aF-95.2931900024414
aa(lp22
F43.081275939941406
aF208.63787841796875
aF-95.6053466796875
aa(lp23
F42.69034194946289
aF208.64492797851562
aF-95.957763671875
aa(lp24
F42.275230407714844
aF208.65206909179688
aF-96.33343505859375
aa(lp25
F41.85976791381836
aF208.66062927246094
aF-96.70870971679688
aa(lp26
F41.42366409301758
aF208.66806030273438
aF-97.10188293457031
aa(lp27
F40.90484619140625
aF208.67739868164062
aF-97.5698471069336
aa(lp28
F40.40818786621094
aF208.6868896484375
aF-98.01869201660156
aa.