(lp0
(lp1
F37.53578186035156
aF181.18055725097656
aF-47.13905334472656
aa(lp2
F37.52897262573242
aF181.23001098632812
aF-47.72570037841797
aa(lp3
F37.53084945678711
aF181.27735900878906
aF-48.21880340576172
aa(lp4
F37.55715560913086
aF181.29278564453125
aF-48.59870910644531
aa(lp5
F37.55373764038086
aF181.34005737304688
aF-48.96086120605469
aa(lp6
F37.593719482421875
aF181.35922241210938
aF-49.24113845825195
aa(lp7
F37.59300231933594
aF181.38880920410156
aF-49.445533752441406
aa(lp8
F37.64330291748047
aF181.39361572265625
aF-49.63957977294922
aa(lp9
F37.65107345581055
aF181.42086791992188
aF-49.78904724121094
aa(lp10
F37.67721939086914
aF181.39695739746094
aF-49.88179016113281
aa(lp11
F37.71269989013672
aF181.39453125
aF-49.97620391845703
aa(lp12
F37.70602798461914
aF181.38919067382812
aF-50.04589080810547
aa(lp13
F37.739341735839844
aF181.3968963623047
aF-50.10621643066406
aa(lp14
F37.74811935424805
aF181.41000366210938
aF-50.1563835144043
aa(lp15
F37.74256134033203
aF181.4200897216797
aF-50.19110107421875
aa(lp16
F37.72346496582031
aF181.4290008544922
aF-50.230159759521484
aa(lp17
F37.715396881103516
aF181.4035186767578
aF-50.25057601928711
aa(lp18
F37.714847564697266
aF181.41073608398438
aF-50.271934509277344
aa(lp19
F37.7518196105957
aF181.39512634277344
aF-50.29151153564453
aa(lp20
F37.725486755371094
aF181.40286254882812
aF-50.30611038208008
aa(lp21
F37.65579605102539
aF181.40545654296875
aF-50.31064987182617
aa(lp22
F37.69722366333008
aF181.3988037109375
aF-50.32207489013672
aa(lp23
F37.70275115966797
aF181.41769409179688
aF-50.338321685791016
aa(lp24
F37.680908203125
aF181.40379333496094
aF-50.33979415893555
aa(lp25
F37.6822395324707
aF181.39015197753906
aF-50.3378791809082
aa(lp26
F37.701229095458984
aF181.38697814941406
aF-50.34499740600586
aa(lp27
F37.69198226928711
aF181.3932647705078
aF-50.35214614868164
aa(lp28
F37.66395568847656
aF181.4132843017578
aF-50.36465835571289
aa(lp29
F37.69366455078125
aF181.40777587890625
aF-50.37161636352539
aa(lp30
F37.68889617919922
aF181.39976501464844
aF-50.36856460571289
aa(lp31
F37.699790954589844
aF181.4063720703125
aF-50.368431091308594
aa(lp32
F37.68375778198242
aF181.41323852539062
aF-50.37006378173828
aa(lp33
F37.718807220458984
aF181.40054321289062
aF-50.370506286621094
aa(lp34
F37.71526336669922
aF181.40377807617188
aF-50.37224578857422
aa(lp35
F37.71142578125
aF181.41275024414062
aF-50.37150573730469
aa(lp36
F37.733673095703125
aF181.4069061279297
aF-50.373226165771484
aa(lp37
F37.75563049316406
aF181.39019775390625
aF-50.36362075805664
aa(lp38
F37.730777740478516
aF181.39190673828125
aF-50.36273193359375
aa(lp39
F37.73347473144531
aF181.38941955566406
aF-50.35918426513672
aa(lp40
F37.733036041259766
aF181.38406372070312
aF-50.357818603515625
aa(lp41
F37.72623062133789
aF181.40748596191406
aF-50.36669158935547
aa(lp42
F37.69147491455078
aF181.41204833984375
aF-50.36540985107422
aa(lp43
F37.68315505981445
aF181.41014099121094
aF-50.36765670776367
aa(lp44
F37.6505241394043
aF181.40029907226562
aF-50.359561920166016
aa(lp45
F37.68605041503906
aF181.3922576904297
aF-50.35973358154297
aa(lp46
F37.67749786376953
aF181.3910369873047
aF-50.36410903930664
aa(lp47
F37.67998123168945
aF181.4187774658203
aF-50.36905288696289
aa(lp48
F37.6971321105957
aF181.42218017578125
aF-50.36742401123047
aa.