(lp0
(lp1
F45.54191589355469
aF208.4940948486328
aF-93.23204040527344
aa(lp2
F45.54191589355469
aF208.4940948486328
aF-93.23204040527344
aa(lp3
F45.54191589355469
aF208.4940948486328
aF-93.23204040527344
aa(lp4
F45.54191589355469
aF208.4940948486328
aF-93.23204040527344
aa(lp5
F45.54191589355469
aF208.4940948486328
aF-93.23204040527344
aa(lp6
F45.54191589355469
aF208.4940948486328
aF-93.23204040527344
aa(lp7
F45.54191589355469
aF208.4940948486328
aF-93.23204040527344
aa(lp8
F45.527828216552734
aF208.494384765625
aF-93.2448959350586
aa(lp9
F45.475624084472656
aF208.4955291748047
aF-93.29254913330078
aa(lp10
F45.38746643066406
aF208.49737548828125
aF-93.37276458740234
aa(lp11
F45.250457763671875
aF208.5
aF-93.49710083007812
aa(lp12
F45.09017562866211
aF208.50379943847656
aF-93.64303588867188
aa(lp13
F44.88487243652344
aF208.5082244873047
aF-93.82982635498047
aa(lp14
F44.65461349487305
aF208.51316833496094
aF-94.03971862792969
aa(lp15
F44.37736129760742
aF208.51963806152344
aF-94.29249572753906
aa(lp16
F44.09836196899414
aF208.5255889892578
aF-94.54682922363281
aa(lp17
F43.832672119140625
aF208.53076171875
aF-94.78887939453125
aa(lp18
F43.475711822509766
aF208.5389404296875
aF-95.11457061767578
aa(lp19
F43.103294372558594
aF208.54656982421875
aF-95.45352935791016
aa(lp20
F42.71177673339844
aF208.55474853515625
aF-95.8103256225586
aa(lp21
F42.318748474121094
aF208.5629425048828
aF-96.1703109741211
aa(lp22
F41.86141586303711
aF208.57310485839844
aF-96.58840942382812
aa(lp23
F41.420833587646484
aF208.5830841064453
aF-96.98995208740234
aa(lp24
F40.984619140625
aF208.5926513671875
aF-97.38788604736328
aa(lp25
F40.49045944213867
aF208.6055908203125
aF-97.83805847167969
aa(lp26
F40.02946090698242
aF208.61572265625
aF-98.25848388671875
aa(lp27
F39.59058380126953
aF208.62684631347656
aF-98.65886688232422
aa(lp28
F39.18308639526367
aF208.63601684570312
aF-99.0310287475586
aa.