(lp0
(lp1
F37.473148345947266
aF181.04197692871094
aF-47.6406364440918
aa(lp2
F37.54607391357422
aF181.03225708007812
aF-48.04582977294922
aa(lp3
F37.60430908203125
aF181.03822326660156
aF-48.436702728271484
aa(lp4
F37.66728973388672
aF181.02700805664062
aF-48.74178695678711
aa(lp5
F37.70761489868164
aF181.039794921875
aF-49.02635192871094
aa(lp6
F37.690067291259766
aF181.0646514892578
aF-49.2484016418457
aa(lp7
F37.7000732421875
aF181.06344604492188
aF-49.429603576660156
aa(lp8
F37.71328353881836
aF181.0683135986328
aF-49.54958724975586
aa(lp9
F37.74752426147461
aF181.0641326904297
aF-49.667579650878906
aa(lp10
F37.771854400634766
aF181.06166076660156
aF-49.760501861572266
aa(lp11
F37.81056594848633
aF181.0463104248047
aF-49.840087890625
aa(lp12
F37.792564392089844
aF181.05429077148438
aF-49.9014778137207
aa(lp13
F37.8212890625
aF181.05950927734375
aF-49.95977020263672
aa(lp14
F37.84932327270508
aF181.05599975585938
aF-49.998531341552734
aa(lp15
F37.8538818359375
aF181.05465698242188
aF-50.024749755859375
aa(lp16
F37.86284255981445
aF181.06011962890625
aF-50.05115509033203
aa(lp17
F37.869388580322266
aF181.06796264648438
aF-50.073238372802734
aa(lp18
F37.87287902832031
aF181.06536865234375
aF-50.09597396850586
aa(lp19
F37.85441589355469
aF181.06666564941406
aF-50.10539245605469
aa(lp20
F37.83225631713867
aF181.0813446044922
aF-50.127601623535156
aa(lp21
F37.82502746582031
aF181.10243225097656
aF-50.133262634277344
aa(lp22
F37.83737564086914
aF181.10008239746094
aF-50.13319396972656
aa(lp23
F37.848201751708984
aF181.0977325439453
aF-50.13752365112305
aa(lp24
F37.81296920776367
aF181.0970001220703
aF-50.144386291503906
aa(lp25
F37.80913162231445
aF181.11288452148438
aF-50.143211364746094
aa(lp26
F37.80302047729492
aF181.1211395263672
aF-50.14242172241211
aa(lp27
F37.80515670776367
aF181.1346893310547
aF-50.14180374145508
aa(lp28
F37.803836822509766
aF181.1366729736328
aF-50.149497985839844
aa(lp29
F37.81587219238281
aF181.1263427734375
aF-50.147891998291016
aa(lp30
F37.81855392456055
aF181.11021423339844
aF-50.13264846801758
aa(lp31
F37.813255310058594
aF181.1123809814453
aF-50.12783432006836
aa(lp32
F37.80373764038086
aF181.1178436279297
aF-50.137420654296875
aa(lp33
F37.80476379394531
aF181.10061645507812
aF-50.13199234008789
aa(lp34
F37.83125686645508
aF181.10804748535156
aF-50.13503646850586
aa(lp35
F37.853092193603516
aF181.11083984375
aF-50.13913345336914
aa(lp36
F37.853248596191406
aF181.11846923828125
aF-50.14385223388672
aa(lp37
F37.86210632324219
aF181.11061096191406
aF-50.152679443359375
aa(lp38
F37.8589973449707
aF181.1210479736328
aF-50.1519775390625
aa(lp39
F37.857295989990234
aF181.12274169921875
aF-50.14971160888672
aa(lp40
F37.8551139831543
aF181.12290954589844
aF-50.14787673950195
aa(lp41
F37.84334945678711
aF181.1182861328125
aF-50.14557647705078
aa(lp42
F37.82801818847656
aF181.10287475585938
aF-50.14052963256836
aa(lp43
F37.83182144165039
aF181.12252807617188
aF-50.14788818359375
aa(lp44
F37.829010009765625
aF181.11302185058594
aF-50.15150833129883
aa(lp45
F37.86278533935547
aF181.1113739013672
aF-50.15473937988281
aa(lp46
F37.886383056640625
aF181.1029510498047
aF-50.1545524597168
aa(lp47
F37.90113067626953
aF181.10354614257812
aF-50.15306854248047
aa(lp48
F37.8764533996582
aF181.12158203125
aF-50.15653991699219
aa(lp49
F37.8891487121582
aF181.12115478515625
aF-50.1611442565918
aa(lp50
F37.9090576171875
aF181.10845947265625
aF-50.157135009765625
aa(lp51
F37.883731842041016
aF181.09890747070312
aF-50.153038024902344
aa.