(lp0
(lp1
F33.9046630859375
aF207.69070434570312
aF-107.55239868164062
aa(lp2
F33.87343215942383
aF207.69537353515625
aF-107.58811950683594
aa(lp3
F33.85551071166992
aF207.69244384765625
aF-107.6064453125
aa(lp4
F33.837745666503906
aF207.6802520751953
aF-107.61900329589844
aa(lp5
F33.82669448852539
aF207.68630981445312
aF-107.63075256347656
aa(lp6
F33.81454086303711
aF207.68121337890625
aF-107.63943481445312
aa(lp7
F33.81100082397461
aF207.69281005859375
aF-107.6541519165039
aa(lp8
F33.804141998291016
aF207.69406127929688
aF-107.6575698852539
aa(lp9
F33.80152893066406
aF207.69906616210938
aF-107.6661605834961
aa(lp10
F33.794593811035156
aF207.68650817871094
aF-107.66285705566406
aa(lp11
F33.791236877441406
aF207.6776580810547
aF-107.66246795654297
aa(lp12
F33.78898620605469
aF207.67784118652344
aF-107.6628646850586
aa(lp13
F33.78828048706055
aF207.68923950195312
aF-107.67076110839844
aa(lp14
F33.792083740234375
aF207.69325256347656
aF-107.67456817626953
aa(lp15
F33.79413986206055
aF207.70416259765625
aF-107.68072509765625
aa(lp16
F33.792152404785156
aF207.70587158203125
aF-107.67948913574219
aa(lp17
F33.79500961303711
aF207.70849609375
aF-107.68310546875
aa(lp18
F33.79207229614258
aF207.70619201660156
aF-107.68408203125
aa(lp19
F33.78886032104492
aF207.69683837890625
aF-107.68028259277344
aa(lp20
F33.789615631103516
aF207.70521545410156
aF-107.680908203125
aa(lp21
F33.79246520996094
aF207.70785522460938
aF-107.68212127685547
aa(lp22
F33.791324615478516
aF207.71058654785156
aF-107.68029022216797
aa(lp23
F33.79104232788086
aF207.71514892578125
aF-107.68008422851562
aa(lp24
F33.78900909423828
aF207.70712280273438
aF-107.67797088623047
aa(lp25
F33.78860855102539
aF207.69496154785156
aF-107.67576599121094
aa(lp26
F33.78374099731445
aF207.68739318847656
aF-107.6697998046875
aa(lp27
F33.78535461425781
aF207.69488525390625
aF-107.67094421386719
aa(lp28
F33.78237533569336
aF207.696533203125
aF-107.66771697998047
aa(lp29
F33.77971267700195
aF207.69552612304688
aF-107.66410827636719
aa(lp30
F33.782135009765625
aF207.69647216796875
aF-107.66687774658203
aa(lp31
F33.781978607177734
aF207.69715881347656
aF-107.66678619384766
aa(lp32
F33.78516387939453
aF207.699951171875
aF-107.6702651977539
aa.