(lp0
(lp1
F37.6746826171875
aF181.12890625
aF-46.23476028442383
aa(lp2
F37.792320251464844
aF181.14002990722656
aF-47.14316177368164
aa(lp3
F37.89397430419922
aF181.1504364013672
aF-47.77992248535156
aa(lp4
F37.98849868774414
aF181.16368103027344
aF-48.44081497192383
aa(lp5
F38.05956268310547
aF181.1701202392578
aF-48.849910736083984
aa(lp6
F38.10770034790039
aF181.18280029296875
aF-49.22822189331055
aa(lp7
F38.15380859375
aF181.18019104003906
aF-49.51482009887695
aa(lp8
F38.19321823120117
aF181.17347717285156
aF-49.72236633300781
aa(lp9
F38.224369049072266
aF181.16806030273438
aF-49.88274383544922
aa(lp10
F38.26136779785156
aF181.17405700683594
aF-50.00885772705078
aa(lp11
F38.26851272583008
aF181.18124389648438
aF-50.10764694213867
aa(lp12
F38.285160064697266
aF181.18601989746094
aF-50.20134735107422
aa(lp13
F38.29633712768555
aF181.18215942382812
aF-50.26351547241211
aa(lp14
F38.30455017089844
aF181.182373046875
aF-50.3187370300293
aa(lp15
F38.29016876220703
aF181.1883544921875
aF-50.36664581298828
aa(lp16
F38.31053924560547
aF181.1934356689453
aF-50.4093017578125
aa(lp17
F38.3087272644043
aF181.1818084716797
aF-50.429256439208984
aa(lp18
F38.317317962646484
aF181.19447326660156
aF-50.45608901977539
aa(lp19
F38.31651306152344
aF181.19007873535156
aF-50.468963623046875
aa(lp20
F38.33747863769531
aF181.19522094726562
aF-50.488094329833984
aa(lp21
F38.34255599975586
aF181.20106506347656
aF-50.50150680541992
aa(lp22
F38.32804489135742
aF181.1958465576172
aF-50.511539459228516
aa(lp23
F38.339324951171875
aF181.19110107421875
aF-50.51781463623047
aa(lp24
F38.33919906616211
aF181.20037841796875
aF-50.528404235839844
aa(lp25
F38.32088088989258
aF181.1904296875
aF-50.524658203125
aa(lp26
F38.31452560424805
aF181.20323181152344
aF-50.533870697021484
aa(lp27
F38.312015533447266
aF181.19882202148438
aF-50.53456115722656
aa(lp28
F38.31441879272461
aF181.21241760253906
aF-50.54147720336914
aa(lp29
F38.299232482910156
aF181.20411682128906
aF-50.539703369140625
aa(lp30
F38.31650924682617
aF181.19955444335938
aF-50.53871536254883
aa(lp31
F38.305728912353516
aF181.20848083496094
aF-50.543617248535156
aa(lp32
F38.30865478515625
aF181.2078857421875
aF-50.54706573486328
aa(lp33
F38.32664108276367
aF181.20849609375
aF-50.541568756103516
aa(lp34
F38.325435638427734
aF181.20339965820312
aF-50.54398727416992
aa(lp35
F38.32246780395508
aF181.2147674560547
aF-50.552337646484375
aa(lp36
F38.33909225463867
aF181.21180725097656
aF-50.5489387512207
aa(lp37
F38.31596755981445
aF181.2209930419922
aF-50.55250930786133
aa(lp38
F38.33076095581055
aF181.22743225097656
aF-50.556243896484375
aa(lp39
F38.324668884277344
aF181.2191619873047
aF-50.5521240234375
aa(lp40
F38.307273864746094
aF181.21250915527344
aF-50.54829788208008
aa(lp41
F38.28142166137695
aF181.22056579589844
aF-50.554779052734375
aa.