(lp0
(lp1
F37.60097122192383
aF181.16590881347656
aF-47.08065414428711
aa(lp2
F37.714054107666016
aF181.14373779296875
aF-47.68273162841797
aa(lp3
F37.787899017333984
aF181.1494598388672
aF-48.152984619140625
aa(lp4
F37.865474700927734
aF181.1374053955078
aF-48.56943130493164
aa(lp5
F37.93067932128906
aF181.1378173828125
aF-48.878013610839844
aa(lp6
F37.96781539916992
aF181.13763427734375
aF-49.164188385009766
aa(lp7
F38.008460998535156
aF181.12750244140625
aF-49.37028503417969
aa(lp8
F38.050880432128906
aF181.1193389892578
aF-49.548744201660156
aa(lp9
F38.081050872802734
aF181.1287841796875
aF-49.70001983642578
aa(lp10
F38.119407653808594
aF181.14169311523438
aF-49.83263397216797
aa(lp11
F38.14360809326172
aF181.14114379882812
aF-49.93109893798828
aa(lp12
F38.16065979003906
aF181.13720703125
aF-50.00979232788086
aa(lp13
F38.166683197021484
aF181.1502227783203
aF-50.094417572021484
aa(lp14
F38.17482376098633
aF181.15118408203125
aF-50.16058349609375
aa(lp15
F38.18299865722656
aF181.15419006347656
aF-50.210289001464844
aa(lp16
F38.17593002319336
aF181.16159057617188
aF-50.268829345703125
aa(lp17
F38.18501663208008
aF181.16415405273438
aF-50.30831527709961
aa(lp18
F38.191654205322266
aF181.14700317382812
aF-50.331878662109375
aa(lp19
F38.197669982910156
aF181.13609313964844
aF-50.34748077392578
aa(lp20
F38.20530319213867
aF181.13894653320312
aF-50.369720458984375
aa(lp21
F38.215763092041016
aF181.1458740234375
aF-50.38438034057617
aa(lp22
F38.21767807006836
aF181.142578125
aF-50.39459228515625
aa(lp23
F38.21879196166992
aF181.14974975585938
aF-50.41154098510742
aa(lp24
F38.219871520996094
aF181.13125610351562
aF-50.41315460205078
aa(lp25
F38.22532653808594
aF181.1273956298828
aF-50.41896057128906
aa(lp26
F38.231266021728516
aF181.1013946533203
aF-50.41379165649414
aa(lp27
F38.212066650390625
aF181.10667419433594
aF-50.422183990478516
aa(lp28
F38.2060661315918
aF181.09912109375
aF-50.424537658691406
aa(lp29
F38.209320068359375
aF181.0772247314453
aF-50.419029235839844
aa(lp30
F38.212100982666016
aF181.0819549560547
aF-50.423583984375
aa(lp31
F38.21502685546875
aF181.06121826171875
aF-50.414676666259766
aa(lp32
F38.21049499511719
aF181.06451416015625
aF-50.418460845947266
aa(lp33
F38.21156692504883
aF181.05943298339844
aF-50.41807556152344
aa(lp34
F38.22106170654297
aF181.0626678466797
aF-50.42039489746094
aa(lp35
F38.221961975097656
aF181.0640869140625
aF-50.42300033569336
aa(lp36
F38.22357940673828
aF181.07272338867188
aF-50.424720764160156
aa(lp37
F38.22039031982422
aF181.05609130859375
aF-50.418033599853516
aa(lp38
F38.20391082763672
aF181.05441284179688
aF-50.41919708251953
aa(lp39
F38.19468688964844
aF181.05673217773438
aF-50.4215087890625
aa(lp40
F38.18656539916992
aF181.0410919189453
aF-50.416465759277344
aa(lp41
F38.18675994873047
aF181.0293426513672
aF-50.411231994628906
aa(lp42
F38.189735412597656
aF181.0292510986328
aF-50.40867614746094
aa(lp43
F38.195987701416016
aF181.0324249267578
aF-50.406959533691406
aa(lp44
F38.1810188293457
aF181.03965759277344
aF-50.41350173950195
aa(lp45
F38.18507766723633
aF181.03445434570312
aF-50.41259765625
aa(lp46
F38.189064025878906
aF181.0238494873047
aF-50.41032409667969
aa(lp47
F38.18263244628906
aF181.02197265625
aF-50.413448333740234
aa.