(lp0
(lp1
F43.61589431762695
aF208.58786010742188
aF-95.15159606933594
aa(lp2
F43.61589431762695
aF208.58786010742188
aF-95.15159606933594
aa(lp3
F43.61589431762695
aF208.58786010742188
aF-95.15159606933594
aa(lp4
F43.61589431762695
aF208.58786010742188
aF-95.15159606933594
aa(lp5
F43.603538513183594
aF208.58807373046875
aF-95.16281127929688
aa(lp6
F43.49368667602539
aF208.59080505371094
aF-95.26300048828125
aa(lp7
F43.28729248046875
aF208.5953369140625
aF-95.45048522949219
aa(lp8
F43.04723358154297
aF208.59927368164062
aF-95.66865539550781
aa(lp9
F42.74510192871094
aF208.605712890625
aF-95.94375610351562
aa(lp10
F42.339874267578125
aF208.61399841308594
aF-96.31183624267578
aa(lp11
F41.954166412353516
aF208.6212615966797
aF-96.6622085571289
aa(lp12
F41.50324249267578
aF208.63014221191406
aF-97.07164764404297
aa(lp13
F40.98308181762695
aF208.643798828125
aF-97.54547882080078
aa(lp14
F40.51604080200195
aF208.6530303955078
aF-97.96869659423828
aa(lp15
F39.94928741455078
aF208.66741943359375
aF-98.48675537109375
aa(lp16
F39.37684631347656
aF208.67662048339844
aF-99.00336456298828
aa(lp17
F38.72437286376953
aF208.69078063964844
aF-99.59587097167969
aa(lp18
F38.1593132019043
aF208.70751953125
aF-100.10762023925781
aa(lp19
F37.51396179199219
aF208.72406005859375
aF-100.69416046142578
aa(lp20
F36.880775451660156
aF208.74203491210938
aF-101.26945495605469
aa(lp21
F36.33628463745117
aF208.7562713623047
aF-101.76363372802734
aa(lp22
F35.747039794921875
aF208.76918029785156
aF-102.29940795898438
aa(lp23
F35.228633880615234
aF208.77218627929688
aF-102.76595306396484
aa(lp24
F34.74835205078125
aF208.77638244628906
aF-103.19255065917969
aa(lp25
F34.2359504699707
aF208.790283203125
aF-103.65959167480469
aa(lp26
F33.808616638183594
aF208.79168701171875
aF-104.04315948486328
aa(lp27
F33.3935661315918
aF208.8009796142578
aF-104.41929626464844
aa(lp28
F33.04950714111328
aF208.80970764160156
aF-104.73197937011719
aa(lp29
F32.739532470703125
aF208.81582641601562
aF-105.01069641113281
aa.