(lp0
(lp1
F30.637407302856445
aF205.0513916015625
aF-110.79285430908203
aa(lp2
F31.309703826904297
aF205.02821350097656
aF-110.63970184326172
aa(lp3
F31.838762283325195
aF205.00137329101562
aF-110.5230712890625
aa(lp4
F32.22294998168945
aF204.98983764648438
aF-110.4466323852539
aa(lp5
F32.516754150390625
aF204.98101806640625
aF-110.37288665771484
aa(lp6
F32.78791046142578
aF204.9717559814453
aF-110.29205322265625
aa(lp7
F33.00089645385742
aF204.9624481201172
aF-110.26104736328125
aa(lp8
F33.15496063232422
aF204.95957946777344
aF-110.21290588378906
aa(lp9
F33.29031753540039
aF204.95387268066406
aF-110.16815185546875
aa(lp10
F33.39072036743164
aF204.9486541748047
aF-110.15215301513672
aa(lp11
F33.46799087524414
aF204.94729614257812
aF-110.13681030273438
aa(lp12
F33.52839660644531
aF204.94308471679688
aF-110.15198516845703
aa(lp13
F33.58213806152344
aF204.9391326904297
aF-110.14573669433594
aa(lp14
F33.62136459350586
aF204.93759155273438
aF-110.16107940673828
aa(lp15
F33.65005111694336
aF204.93223571777344
aF-110.1552963256836
aa(lp16
F33.675655364990234
aF204.93228149414062
aF-110.14674377441406
aa(lp17
F33.69624328613281
aF204.93226623535156
aF-110.14202117919922
aa(lp18
F33.7110710144043
aF204.92930603027344
aF-110.14938354492188
aa(lp19
F33.72450256347656
aF204.9243621826172
aF-110.11907196044922
aa(lp20
F33.734500885009766
aF204.92161560058594
aF-110.12986755371094
aa(lp21
F33.74396896362305
aF204.9239044189453
aF-110.12052917480469
aa(lp22
F33.75104522705078
aF204.9201202392578
aF-110.12352752685547
aa(lp23
F33.760414123535156
aF204.92445373535156
aF-110.11844635009766
aa(lp24
F33.76535415649414
aF204.9193878173828
aF-110.10946655273438
aa(lp25
F33.76950454711914
aF204.91986083984375
aF-110.11405944824219
aa(lp26
F33.773563385009766
aF204.9188690185547
aF-110.14804077148438
aa(lp27
F33.7769889831543
aF204.92030334472656
aF-110.1425552368164
aa(lp28
F33.7799072265625
aF204.9195098876953
aF-110.13359069824219
aa(lp29
F33.78154754638672
aF204.9188995361328
aF-110.14669799804688
aa(lp30
F33.783348083496094
aF204.91566467285156
aF-110.1458969116211
aa(lp31
F33.78409957885742
aF204.9175567626953
aF-110.15082550048828
aa(lp32
F33.78492736816406
aF204.91722106933594
aF-110.16152954101562
aa(lp33
F33.78631591796875
aF204.91883850097656
aF-110.1775131225586
aa(lp34
F33.7873649597168
aF204.917236328125
aF-110.16580963134766
aa(lp35
F33.787506103515625
aF204.9149932861328
aF-110.15142822265625
aa(lp36
F33.78829574584961
aF204.91795349121094
aF-110.1468505859375
aa(lp37
F33.789119720458984
aF204.91639709472656
aF-110.15081024169922
aa(lp38
F33.78810501098633
aF204.91554260253906
aF-110.13864135742188
aa(lp39
F33.78643798828125
aF204.9072723388672
aF-110.14311218261719
aa.