(lp0
(lp1
F33.87318420410156
aF207.65982055664062
aF-107.53060913085938
aa(lp2
F33.852848052978516
aF207.65745544433594
aF-107.55028533935547
aa(lp3
F33.831573486328125
aF207.663330078125
aF-107.56953430175781
aa(lp4
F33.820247650146484
aF207.66241455078125
aF-107.58602142333984
aa(lp5
F33.80381774902344
aF207.66314697265625
aF-107.59391784667969
aa(lp6
F33.79426193237305
aF207.65786743164062
aF-107.59943389892578
aa(lp7
F33.782798767089844
aF207.64418029785156
aF-107.59481048583984
aa(lp8
F33.780269622802734
aF207.64181518554688
aF-107.60292053222656
aa(lp9
F33.77977752685547
aF207.64549255371094
aF-107.60919952392578
aa(lp10
F33.77430725097656
aF207.64724731445312
aF-107.61101531982422
aa(lp11
F33.78263473510742
aF207.66075134277344
aF-107.62959289550781
aa(lp12
F33.77300262451172
aF207.6553192138672
aF-107.6235122680664
aa(lp13
F33.76820755004883
aF207.65408325195312
aF-107.62043762207031
aa(lp14
F33.7680549621582
aF207.66275024414062
aF-107.6228256225586
aa(lp15
F33.767616271972656
aF207.6634063720703
aF-107.62640380859375
aa(lp16
F33.76654815673828
aF207.66224670410156
aF-107.62565612792969
aa(lp17
F33.770931243896484
aF207.66806030273438
aF-107.63151550292969
aa(lp18
F33.771209716796875
aF207.67181396484375
aF-107.63240814208984
aa(lp19
F33.771942138671875
aF207.67140197753906
aF-107.62821960449219
aa(lp20
F33.77650833129883
aF207.67384338378906
aF-107.63130950927734
aa(lp21
F33.770408630371094
aF207.671142578125
aF-107.62688446044922
aa(lp22
F33.768898010253906
aF207.67300415039062
aF-107.62551879882812
aa(lp23
F33.77109909057617
aF207.66737365722656
aF-107.6268310546875
aa(lp24
F33.7755241394043
aF207.67820739746094
aF-107.63652038574219
aa(lp25
F33.77279281616211
aF207.67041015625
aF-107.63390350341797
aa(lp26
F33.76469421386719
aF207.66183471679688
aF-107.62460327148438
aa(lp27
F33.76423645019531
aF207.6630401611328
aF-107.62638092041016
aa(lp28
F33.76475143432617
aF207.66619873046875
aF-107.62877655029297
aa(lp29
F33.76618576049805
aF207.6713409423828
aF-107.6330337524414
aa(lp30
F33.7628173828125
aF207.6566619873047
aF-107.62316131591797
aa(lp31
F33.761962890625
aF207.6581573486328
aF-107.6233139038086
aa(lp32
F33.76171875
aF207.66909790039062
aF-107.62781524658203
aa(lp33
F33.76713943481445
aF207.6666717529297
aF-107.62971496582031
aa.