(lp0
(lp1
F33.90200424194336
aF207.62705993652344
aF-107.4755859375
aa(lp2
F33.86076736450195
aF207.6318817138672
aF-107.5173110961914
aa(lp3
F33.83131408691406
aF207.62686157226562
aF-107.54265594482422
aa(lp4
F33.81320571899414
aF207.6428680419922
aF-107.57418823242188
aa(lp5
F33.799766540527344
aF207.6493682861328
aF-107.5909194946289
aa(lp6
F33.790679931640625
aF207.66888427734375
aF-107.61280822753906
aa(lp7
F33.78380584716797
aF207.6682891845703
aF-107.61951446533203
aa(lp8
F33.77850341796875
aF207.67079162597656
aF-107.62848663330078
aa(lp9
F33.77292251586914
aF207.65899658203125
aF-107.62715148925781
aa(lp10
F33.76656723022461
aF207.65570068359375
aF-107.63286590576172
aa(lp11
F33.76618576049805
aF207.66050720214844
aF-107.63761901855469
aa(lp12
F33.760074615478516
aF207.65809631347656
aF-107.63658905029297
aa(lp13
F33.75896453857422
aF207.65464782714844
aF-107.63325500488281
aa(lp14
F33.754207611083984
aF207.65296936035156
aF-107.63055419921875
aa(lp15
F33.7510986328125
aF207.65687561035156
aF-107.63374328613281
aa(lp16
F33.74966049194336
aF207.65113830566406
aF-107.63107299804688
aa(lp17
F33.75558090209961
aF207.65213012695312
aF-107.6353530883789
aa(lp18
F33.75724411010742
aF207.65553283691406
aF-107.63534545898438
aa(lp19
F33.75983428955078
aF207.65936279296875
aF-107.63874816894531
aa(lp20
F33.75731658935547
aF207.66238403320312
aF-107.6400375366211
aa(lp21
F33.75875473022461
aF207.66387939453125
aF-107.64353942871094
aa(lp22
F33.75171661376953
aF207.6592559814453
aF-107.63458251953125
aa(lp23
F33.74729919433594
aF207.65245056152344
aF-107.62953186035156
aa(lp24
F33.74616622924805
aF207.64950561523438
aF-107.62798309326172
aa(lp25
F33.753013610839844
aF207.657470703125
aF-107.63513946533203
aa(lp26
F33.75499725341797
aF207.65699768066406
aF-107.63859558105469
aa(lp27
F33.7554931640625
aF207.66566467285156
aF-107.64183044433594
aa(lp28
F33.75944519042969
aF207.67247009277344
aF-107.64749908447266
aa(lp29
F33.75042724609375
aF207.66448974609375
aF-107.64041900634766
aa(lp30
F33.75052261352539
aF207.6618194580078
aF-107.63848876953125
aa(lp31
F33.7571907043457
aF207.66680908203125
aF-107.6443099975586
aa.