(lp0
(lp1
F33.84397506713867
aF207.59434509277344
aF-107.48249053955078
aa(lp2
F33.81803512573242
aF207.6007843017578
aF-107.51216888427734
aa(lp3
F33.79942321777344
aF207.61131286621094
aF-107.53662872314453
aa(lp4
F33.78404235839844
aF207.61294555664062
aF-107.5483169555664
aa(lp5
F33.77064514160156
aF207.6142120361328
aF-107.56083679199219
aa(lp6
F33.76353454589844
aF207.6184539794922
aF-107.57141876220703
aa(lp7
F33.76088333129883
aF207.6237335205078
aF-107.58222198486328
aa(lp8
F33.75783157348633
aF207.62872314453125
aF-107.59183502197266
aa(lp9
F33.75304412841797
aF207.62721252441406
aF-107.59445190429688
aa(lp10
F33.75321578979492
aF207.6337890625
aF-107.59953308105469
aa(lp11
F33.74913024902344
aF207.63023376464844
aF-107.60238647460938
aa(lp12
F33.7493782043457
aF207.6292724609375
aF-107.60052490234375
aa(lp13
F33.75068283081055
aF207.62889099121094
aF-107.59886169433594
aa(lp14
F33.747528076171875
aF207.6276092529297
aF-107.59976196289062
aa(lp15
F33.74749755859375
aF207.62583923339844
aF-107.5986557006836
aa(lp16
F33.7465934753418
aF207.61648559570312
aF-107.59705352783203
aa(lp17
F33.74854278564453
aF207.62391662597656
aF-107.60289001464844
aa(lp18
F33.749263763427734
aF207.6263427734375
aF-107.6022720336914
aa(lp19
F33.742767333984375
aF207.61785888671875
aF-107.59689331054688
aa(lp20
F33.742794036865234
aF207.62538146972656
aF-107.5984115600586
aa(lp21
F33.743377685546875
aF207.63414001464844
aF-107.60031127929688
aa(lp22
F33.743160247802734
aF207.63323974609375
aF-107.60120391845703
aa(lp23
F33.74448776245117
aF207.6380157470703
aF-107.60423278808594
aa(lp24
F33.743003845214844
aF207.64572143554688
aF-107.60437774658203
aa(lp25
F33.74329376220703
aF207.64212036132812
aF-107.60355377197266
aa(lp26
F33.738765716552734
aF207.63417053222656
aF-107.59907531738281
aa(lp27
F33.730289459228516
aF207.61573791503906
aF-107.58028411865234
aa(lp28
F33.72958755493164
aF207.6241455078125
aF-107.5859603881836
aa(lp29
F33.73046875
aF207.6304168701172
aF-107.59339141845703
aa(lp30
F33.727317810058594
aF207.62188720703125
aF-107.58710479736328
aa(lp31
F33.72917175292969
aF207.61724853515625
aF-107.58807373046875
aa.