(lp0
(lp1
F37.83528137207031
aF181.23397827148438
aF-47.04775619506836
aa(lp2
F37.938201904296875
aF181.25425720214844
aF-47.74555206298828
aa(lp3
F38.050148010253906
aF181.25991821289062
aF-48.345333099365234
aa(lp4
F38.140846252441406
aF181.27162170410156
aF-48.80020523071289
aa(lp5
F38.19572448730469
aF181.26593017578125
aF-49.119712829589844
aa(lp6
F38.25782012939453
aF181.2826385498047
aF-49.382205963134766
aa(lp7
F38.290313720703125
aF181.28953552246094
aF-49.60821533203125
aa(lp8
F38.312255859375
aF181.3055419921875
aF-49.802268981933594
aa(lp9
F38.35011291503906
aF181.30555725097656
aF-49.97991943359375
aa(lp10
F38.386348724365234
aF181.3035430908203
aF-50.080718994140625
aa(lp11
F38.37873077392578
aF181.32113647460938
aF-50.16766357421875
aa(lp12
F38.39949035644531
aF181.328125
aF-50.259605407714844
aa(lp13
F38.395355224609375
aF181.3224334716797
aF-50.32780838012695
aa(lp14
F38.414588928222656
aF181.32290649414062
aF-50.37044143676758
aa(lp15
F38.41657257080078
aF181.3170166015625
aF-50.405784606933594
aa(lp16
F38.422035217285156
aF181.3145294189453
aF-50.434776306152344
aa(lp17
F38.407623291015625
aF181.330810546875
aF-50.462646484375
aa(lp18
F38.419044494628906
aF181.33837890625
aF-50.4847526550293
aa(lp19
F38.45294189453125
aF181.3412322998047
aF-50.51163864135742
aa(lp20
F38.45658874511719
aF181.35714721679688
aF-50.527408599853516
aa(lp21
F38.45413589477539
aF181.35552978515625
aF-50.53431701660156
aa(lp22
F38.45298767089844
aF181.34158325195312
aF-50.53772735595703
aa(lp23
F38.46901321411133
aF181.30760192871094
aF-50.530853271484375
aa(lp24
F38.451011657714844
aF181.31729125976562
aF-50.536537170410156
aa(lp25
F38.46337127685547
aF181.31182861328125
aF-50.537437438964844
aa(lp26
F38.45322036743164
aF181.31275939941406
aF-50.54377365112305
aa(lp27
F38.461910247802734
aF181.31822204589844
aF-50.54951477050781
aa(lp28
F38.4580078125
aF181.319580078125
aF-50.553653717041016
aa(lp29
F38.45509338378906
aF181.31976318359375
aF-50.549991607666016
aa(lp30
F38.4647216796875
aF181.30978393554688
aF-50.54957962036133
aa(lp31
F38.44314956665039
aF181.3113555908203
aF-50.55035400390625
aa(lp32
F38.432044982910156
aF181.3208770751953
aF-50.552955627441406
aa(lp33
F38.4385986328125
aF181.3289794921875
aF-50.5584602355957
aa(lp34
F38.44074249267578
aF181.33456420898438
aF-50.560340881347656
aa(lp35
F38.464378356933594
aF181.32859802246094
aF-50.56035232543945
aa(lp36
F38.42033767700195
aF181.34811401367188
aF-50.56780242919922
aa(lp37
F38.46508026123047
aF181.35296630859375
aF-50.57267761230469
aa(lp38
F38.454376220703125
aF181.34454345703125
aF-50.56877517700195
aa(lp39
F38.435909271240234
aF181.34259033203125
aF-50.56967544555664
aa(lp40
F38.41130447387695
aF181.32791137695312
aF-50.56416702270508
aa(lp41
F38.40720748901367
aF181.3204803466797
aF-50.563167572021484
aa.