(lp0
(lp1
F37.50686264038086
aF181.0866241455078
aF-46.062408447265625
aa(lp2
F37.58808898925781
aF181.13690185546875
aF-46.820735931396484
aa(lp3
F37.64157485961914
aF181.17445373535156
aF-47.76154327392578
aa(lp4
F37.67393112182617
aF181.19984436035156
aF-48.20541000366211
aa(lp5
F37.73379135131836
aF181.202392578125
aF-48.5732536315918
aa(lp6
F37.76091384887695
aF181.2002716064453
aF-49.02176284790039
aa(lp7
F37.78190231323242
aF181.20408630371094
aF-49.26748275756836
aa(lp8
F37.79102325439453
aF181.21556091308594
aF-49.45320129394531
aa(lp9
F37.84169387817383
aF181.22283935546875
aF-49.6849365234375
aa(lp10
F37.88370895385742
aF181.2086181640625
aF-49.817012786865234
aa(lp11
F37.85483932495117
aF181.2193603515625
aF-49.924156188964844
aa(lp12
F37.809906005859375
aF181.23585510253906
aF-50.054603576660156
aa(lp13
F37.84400939941406
aF181.22657775878906
aF-50.10645294189453
aa(lp14
F37.85713195800781
aF181.21934509277344
aF-50.15397262573242
aa(lp15
F37.870994567871094
aF181.199951171875
aF-50.20744323730469
aa(lp16
F37.882476806640625
aF181.20062255859375
aF-50.2359619140625
aa(lp17
F37.89216232299805
aF181.20162963867188
aF-50.2512321472168
aa(lp18
F37.84176254272461
aF181.22772216796875
aF-50.275970458984375
aa(lp19
F37.84002685546875
aF181.23683166503906
aF-50.27890396118164
aa(lp20
F37.82503890991211
aF181.24996948242188
aF-50.29461669921875
aa(lp21
F37.81627655029297
aF181.25765991210938
aF-50.31267166137695
aa(lp22
F37.80985641479492
aF181.26829528808594
aF-50.324501037597656
aa(lp23
F37.82820129394531
aF181.2723846435547
aF-50.33480453491211
aa(lp24
F37.84593200683594
aF181.26260375976562
aF-50.341712951660156
aa(lp25
F37.872772216796875
aF181.2494354248047
aF-50.3362922668457
aa(lp26
F37.898868560791016
aF181.24659729003906
aF-50.338890075683594
aa(lp27
F37.937503814697266
aF181.23312377929688
aF-50.340518951416016
aa(lp28
F37.916587829589844
aF181.2279815673828
aF-50.33479690551758
aa(lp29
F37.93540573120117
aF181.21348571777344
aF-50.336360931396484
aa(lp30
F37.90566635131836
aF181.2217559814453
aF-50.3441047668457
aa(lp31
F37.90467834472656
aF181.2397003173828
aF-50.35002517700195
aa(lp32
F37.875606536865234
aF181.25555419921875
aF-50.34978103637695
aa(lp33
F37.88296890258789
aF181.2476806640625
aF-50.35563659667969
aa(lp34
F37.886985778808594
aF181.25595092773438
aF-50.35791778564453
aa(lp35
F37.88213348388672
aF181.25914001464844
aF-50.359031677246094
aa(lp36
F37.91742706298828
aF181.2657470703125
aF-50.37293243408203
aa(lp37
F37.94215774536133
aF181.25961303710938
aF-50.37580108642578
aa(lp38
F37.92789840698242
aF181.26669311523438
aF-50.36921310424805
aa(lp39
F37.92081069946289
aF181.26052856445312
aF-50.37234115600586
aa(lp40
F37.92163848876953
aF181.25918579101562
aF-50.383914947509766
aa(lp41
F37.933414459228516
aF181.2496795654297
aF-50.37714767456055
aa(lp42
F37.91704177856445
aF181.24005126953125
aF-50.360443115234375
aa(lp43
F37.93556594848633
aF181.24920654296875
aF-50.36686325073242
aa.