(lp0
(lp1
F37.77382278442383
aF181.03359985351562
aF-48.06315231323242
aa(lp2
F37.79698944091797
aF181.06605529785156
aF-48.481807708740234
aa(lp3
F37.88749313354492
aF181.0616912841797
aF-48.969383239746094
aa(lp4
F37.91792297363281
aF181.0982666015625
aF-49.228336334228516
aa(lp5
F37.92124557495117
aF181.09532165527344
aF-49.41192626953125
aa(lp6
F37.963802337646484
aF181.0977325439453
aF-49.67200469970703
aa(lp7
F37.972537994384766
aF181.1092987060547
aF-49.79355239868164
aa(lp8
F38.012298583984375
aF181.09481811523438
aF-49.8886604309082
aa(lp9
F38.046058654785156
aF181.1040802001953
aF-50.014888763427734
aa(lp10
F38.05128479003906
aF181.09286499023438
aF-50.063175201416016
aa(lp11
F38.05924987792969
aF181.08706665039062
aF-50.1221809387207
aa(lp12
F38.079734802246094
aF181.08616638183594
aF-50.163673400878906
aa(lp13
F38.097557067871094
aF181.07603454589844
aF-50.2007942199707
aa(lp14
F38.07652282714844
aF181.08474731445312
aF-50.226375579833984
aa(lp15
F38.03038024902344
aF181.07334899902344
aF-50.255760192871094
aa(lp16
F38.07566833496094
aF181.07022094726562
aF-50.27519226074219
aa(lp17
F38.08978271484375
aF181.07037353515625
aF-50.288116455078125
aa(lp18
F38.08284378051758
aF181.06707763671875
aF-50.28810501098633
aa(lp19
F38.0849609375
aF181.08233642578125
aF-50.302703857421875
aa(lp20
F38.11846923828125
aF181.07962036132812
aF-50.31312561035156
aa(lp21
F38.10507583618164
aF181.08668518066406
aF-50.30878448486328
aa(lp22
F38.08803939819336
aF181.1040496826172
aF-50.31287384033203
aa(lp23
F38.08240509033203
aF181.09231567382812
aF-50.30873489379883
aa(lp24
F38.08080291748047
aF181.09738159179688
aF-50.31590270996094
aa(lp25
F38.09922790527344
aF181.0954132080078
aF-50.314056396484375
aa(lp26
F38.092872619628906
aF181.10067749023438
aF-50.312679290771484
aa(lp27
F38.107078552246094
aF181.09600830078125
aF-50.309539794921875
aa(lp28
F38.099361419677734
aF181.09967041015625
aF-50.31045150756836
aa(lp29
F38.1010856628418
aF181.08926391601562
aF-50.30579376220703
aa(lp30
F38.080902099609375
aF181.10743713378906
aF-50.30376434326172
aa(lp31
F38.08955001831055
aF181.1041717529297
aF-50.30337905883789
aa(lp32
F38.048065185546875
aF181.11647033691406
aF-50.306236267089844
aa(lp33
F38.09130859375
aF181.1092071533203
aF-50.3098030090332
aa(lp34
F38.07392883300781
aF181.1151580810547
aF-50.30696105957031
aa(lp35
F38.05853271484375
aF181.1085968017578
aF-50.300048828125
aa(lp36
F38.11682891845703
aF181.1034393310547
aF-50.306819915771484
aa(lp37
F38.0919303894043
aF181.08309936523438
aF-50.30281448364258
aa(lp38
F38.114410400390625
aF181.08323669433594
aF-50.303199768066406
aa(lp39
F38.14490509033203
aF181.07972717285156
aF-50.312591552734375
aa(lp40
F38.13352966308594
aF181.08702087402344
aF-50.31595993041992
aa(lp41
F38.116416931152344
aF181.08642578125
aF-50.31600570678711
aa(lp42
F38.105018615722656
aF181.09100341796875
aF-50.30884552001953
aa.