(lp0
(lp1
F45.019378662109375
aF208.54795837402344
aF-93.88720703125
aa(lp2
F45.019378662109375
aF208.54795837402344
aF-93.88720703125
aa(lp3
F45.019378662109375
aF208.54795837402344
aF-93.88720703125
aa(lp4
F45.019378662109375
aF208.54795837402344
aF-93.88720703125
aa(lp5
F45.019378662109375
aF208.54795837402344
aF-93.88720703125
aa(lp6
F45.019378662109375
aF208.54795837402344
aF-93.88720703125
aa(lp7
F45.019378662109375
aF208.54795837402344
aF-93.88720703125
aa(lp8
F45.019378662109375
aF208.54795837402344
aF-93.88720703125
aa(lp9
F44.987586975097656
aF208.54873657226562
aF-93.91582489013672
aa(lp10
F44.8889045715332
aF208.5507354736328
aF-94.00428771972656
aa(lp11
F44.71756362915039
aF208.55433654785156
aF-94.15792083740234
aa(lp12
F44.45921325683594
aF208.5596466064453
aF-94.3890609741211
aa(lp13
F44.19879150390625
aF208.5652618408203
aF-94.62212371826172
aa(lp14
F43.86058044433594
aF208.5722198486328
aF-94.92530059814453
aa(lp15
F43.519737243652344
aF208.5791015625
aF-95.23090362548828
aa(lp16
F43.10457229614258
aF208.58705139160156
aF-95.60250091552734
aa(lp17
F42.66613006591797
aF208.59605407714844
aF-95.9946060180664
aa(lp18
F42.18086624145508
aF208.60609436035156
aF-96.42898559570312
aa(lp19
F41.69462966918945
aF208.6157684326172
aF-96.86585235595703
aa(lp20
F41.248294830322266
aF208.62440490722656
aF-97.26505279541016
aa(lp21
F40.748104095458984
aF208.63461303710938
aF-97.71395874023438
aa(lp22
F40.3073616027832
aF208.6437225341797
aF-98.10737609863281
aa(lp23
F39.79344177246094
aF208.65318298339844
aF-98.56851959228516
aa(lp24
F39.32054138183594
aF208.6628875732422
aF-98.99102783203125
aa(lp25
F38.87856674194336
aF208.66995239257812
aF-99.3845443725586
aa(lp26
F38.361671447753906
aF208.68016052246094
aF-99.84648895263672
aa(lp27
F37.870704650878906
aF208.6884002685547
aF-100.28530883789062
aa(lp28
F37.37250900268555
aF208.7030029296875
aF-100.73246765136719
aa(lp29
F36.94305419921875
aF208.71163940429688
aF-101.11724090576172
aa.