(lp0
(lp1
F37.51834487915039
aF181.0691680908203
aF-46.40289306640625
aa(lp2
F37.62630844116211
aF181.07382202148438
aF-47.132564544677734
aa(lp3
F37.710208892822266
aF181.0823211669922
aF-47.82588195800781
aa(lp4
F37.77962875366211
aF181.08885192871094
aF-48.36379623413086
aa(lp5
F37.87224197387695
aF181.09115600585938
aF-48.77389907836914
aa(lp6
F37.91950607299805
aF181.08285522460938
aF-49.06928634643555
aa(lp7
F37.974205017089844
aF181.09658813476562
aF-49.34261703491211
aa(lp8
F38.023040771484375
aF181.08505249023438
aF-49.53492736816406
aa(lp9
F38.02839660644531
aF181.0956573486328
aF-49.71010971069336
aa(lp10
F38.03807830810547
aF181.10452270507812
aF-49.86063003540039
aa(lp11
F38.044403076171875
aF181.1190948486328
aF-49.97651290893555
aa(lp12
F38.060726165771484
aF181.12814331054688
aF-50.0630989074707
aa(lp13
F38.06777572631836
aF181.1353759765625
aF-50.12004852294922
aa(lp14
F38.09959411621094
aF181.1442413330078
aF-50.207820892333984
aa(lp15
F38.10203552246094
aF181.13475036621094
aF-50.255279541015625
aa(lp16
F38.06828689575195
aF181.13478088378906
aF-50.29024124145508
aa(lp17
F38.0470085144043
aF181.13040161132812
aF-50.317752838134766
aa(lp18
F38.0791130065918
aF181.1248779296875
aF-50.355926513671875
aa(lp19
F38.10564422607422
aF181.10208129882812
aF-50.367435455322266
aa(lp20
F38.12498092651367
aF181.08575439453125
aF-50.37395095825195
aa(lp21
F38.11909103393555
aF181.1021270751953
aF-50.38725280761719
aa(lp22
F38.08860778808594
aF181.1170196533203
aF-50.39506530761719
aa(lp23
F38.086212158203125
aF181.1123046875
aF-50.399169921875
aa(lp24
F38.081241607666016
aF181.1076202392578
aF-50.40655517578125
aa(lp25
F38.08108139038086
aF181.10296630859375
aF-50.40980529785156
aa(lp26
F38.104984283447266
aF181.09078979492188
aF-50.41300964355469
aa(lp27
F38.11895751953125
aF181.08767700195312
aF-50.4210319519043
aa(lp28
F38.123313903808594
aF181.09996032714844
aF-50.42744445800781
aa(lp29
F38.12712860107422
aF181.10098266601562
aF-50.43781280517578
aa(lp30
F38.11564636230469
aF181.1068878173828
aF-50.44562530517578
aa(lp31
F38.11241912841797
aF181.1029052734375
aF-50.438350677490234
aa(lp32
F38.13446807861328
aF181.1016387939453
aF-50.442481994628906
aa(lp33
F38.1230583190918
aF181.10238647460938
aF-50.440940856933594
aa(lp34
F38.139251708984375
aF181.08811950683594
aF-50.44166564941406
aa(lp35
F38.16365432739258
aF181.09104919433594
aF-50.450714111328125
aa(lp36
F38.18165969848633
aF181.08447265625
aF-50.44816970825195
aa(lp37
F38.16221237182617
aF181.08331298828125
aF-50.45294189453125
aa(lp38
F38.133487701416016
aF181.09597778320312
aF-50.45669174194336
aa(lp39
F38.1478271484375
aF181.08853149414062
aF-50.45509338378906
aa(lp40
F38.161590576171875
aF181.07945251464844
aF-50.45211410522461
aa(lp41
F38.13163375854492
aF181.07998657226562
aF-50.452476501464844
aa(lp42
F38.17238998413086
aF181.063720703125
aF-50.445274353027344
aa(lp43
F38.153648376464844
aF181.07859802246094
aF-50.44430160522461
aa(lp44
F38.16037368774414
aF181.09060668945312
aF-50.449188232421875
aa(lp45
F38.16279602050781
aF181.1011505126953
aF-50.45855712890625
aa.