(lp0
(lp1
F37.53432083129883
aF181.07174682617188
aF-46.642433166503906
aa(lp2
F37.56272506713867
aF181.12136840820312
aF-47.2900505065918
aa(lp3
F37.639827728271484
aF181.1202392578125
aF-48.04850387573242
aa(lp4
F37.686767578125
aF181.11077880859375
aF-48.416378021240234
aa(lp5
F37.66261291503906
aF181.13430786132812
aF-48.757076263427734
aa(lp6
F37.712886810302734
aF181.14678955078125
aF-49.1873664855957
aa(lp7
F37.76188278198242
aF181.1447296142578
aF-49.366798400878906
aa(lp8
F37.820194244384766
aF181.14218139648438
aF-49.52012634277344
aa(lp9
F37.837467193603516
aF181.1583709716797
aF-49.69511795043945
aa(lp10
F37.875694274902344
aF181.16184997558594
aF-49.795467376708984
aa(lp11
F37.90273666381836
aF181.15765380859375
aF-49.85624694824219
aa(lp12
F37.88874816894531
aF181.1930694580078
aF-49.95743179321289
aa(lp13
F37.83144760131836
aF181.2128143310547
aF-49.99964904785156
aa(lp14
F37.81475830078125
aF181.23184204101562
aF-50.04469299316406
aa(lp15
F37.857452392578125
aF181.21607971191406
aF-50.088653564453125
aa(lp16
F37.85883712768555
aF181.20156860351562
aF-50.10603332519531
aa(lp17
F37.81479263305664
aF181.2080535888672
aF-50.12908935546875
aa(lp18
F37.775875091552734
aF181.18955993652344
aF-50.144439697265625
aa(lp19
F37.76084899902344
aF181.19183349609375
aF-50.157108306884766
aa(lp20
F37.76953887939453
aF181.1840057373047
aF-50.172054290771484
aa(lp21
F37.76016616821289
aF181.1731719970703
aF-50.17363739013672
aa(lp22
F37.77577209472656
aF181.15924072265625
aF-50.17227554321289
aa(lp23
F37.81000518798828
aF181.1349334716797
aF-50.173160552978516
aa(lp24
F37.80604934692383
aF181.12554931640625
aF-50.17216873168945
aa(lp25
F37.77384567260742
aF181.13807678222656
aF-50.175498962402344
aa(lp26
F37.79391098022461
aF181.1269073486328
aF-50.17864227294922
aa(lp27
F37.81205749511719
aF181.1248321533203
aF-50.18230056762695
aa(lp28
F37.812564849853516
aF181.129150390625
aF-50.18434143066406
aa(lp29
F37.81675720214844
aF181.11441040039062
aF-50.179229736328125
aa(lp30
F37.80842208862305
aF181.1299285888672
aF-50.18523025512695
aa(lp31
F37.835670471191406
aF181.1211700439453
aF-50.1819953918457
aa(lp32
F37.844871520996094
aF181.1109161376953
aF-50.181461334228516
aa(lp33
F37.840065002441406
aF181.13232421875
aF-50.19211959838867
aa(lp34
F37.847381591796875
aF181.1272430419922
aF-50.1937141418457
aa(lp35
F37.862876892089844
aF181.13511657714844
aF-50.197967529296875
aa(lp36
F37.85543441772461
aF181.11471557617188
aF-50.19352340698242
aa(lp37
F37.831974029541016
aF181.10919189453125
aF-50.186832427978516
aa(lp38
F37.8284797668457
aF181.11546325683594
aF-50.19663619995117
aa(lp39
F37.836181640625
aF181.13868713378906
aF-50.21169662475586
aa(lp40
F37.80137252807617
aF181.15597534179688
aF-50.20872116088867
aa(lp41
F37.78718185424805
aF181.17503356933594
aF-50.21542739868164
aa.