(lp0
(lp1
F30.83142852783203
aF204.9765167236328
aF-110.85106658935547
aa(lp2
F31.45734405517578
aF204.9524383544922
aF-110.71087646484375
aa(lp3
F31.924192428588867
aF204.92933654785156
aF-110.61943054199219
aa(lp4
F32.2838134765625
aF204.9125518798828
aF-110.53128814697266
aa(lp5
F32.55663299560547
aF204.9020233154297
aF-110.46975708007812
aa(lp6
F32.78828048706055
aF204.89024353027344
aF-110.43573760986328
aa(lp7
F33.00454330444336
aF204.88330078125
aF-110.39295196533203
aa(lp8
F33.14695739746094
aF204.87496948242188
aF-110.3717041015625
aa(lp9
F33.26237106323242
aF204.86927795410156
aF-110.36527252197266
aa(lp10
F33.36606216430664
aF204.86448669433594
aF-110.33324432373047
aa(lp11
F33.43733596801758
aF204.86172485351562
aF-110.3207778930664
aa(lp12
F33.49580764770508
aF204.86647033691406
aF-110.29896545410156
aa(lp13
F33.5426025390625
aF204.862548828125
aF-110.30592346191406
aa(lp14
F33.58285903930664
aF204.8567352294922
aF-110.28276062011719
aa(lp15
F33.611907958984375
aF204.85263061523438
aF-110.27040100097656
aa(lp16
F33.638423919677734
aF204.8521270751953
aF-110.25515747070312
aa(lp17
F33.656314849853516
aF204.85313415527344
aF-110.25601959228516
aa(lp18
F33.67127227783203
aF204.8540802001953
aF-110.25697326660156
aa(lp19
F33.68464279174805
aF204.8483123779297
aF-110.25225830078125
aa(lp20
F33.692501068115234
aF204.84815979003906
aF-110.2471694946289
aa(lp21
F33.69941711425781
aF204.848876953125
aF-110.24632263183594
aa(lp22
F33.70502853393555
aF204.8470001220703
aF-110.23590087890625
aa(lp23
F33.70964431762695
aF204.8505859375
aF-110.2270278930664
aa(lp24
F33.71290588378906
aF204.84800720214844
aF-110.226806640625
aa(lp25
F33.71582794189453
aF204.8505859375
aF-110.23139190673828
aa(lp26
F33.717891693115234
aF204.84591674804688
aF-110.22384643554688
aa(lp27
F33.72031021118164
aF204.84954833984375
aF-110.23098754882812
aa(lp28
F33.722965240478516
aF204.8519287109375
aF-110.23249816894531
aa(lp29
F33.72447967529297
aF204.85997009277344
aF-110.23987579345703
aa(lp30
F33.72455978393555
aF204.86009216308594
aF-110.24231719970703
aa(lp31
F33.72561264038086
aF204.8618927001953
aF-110.24340057373047
aa(lp32
F33.72615051269531
aF204.8616485595703
aF-110.23523712158203
aa(lp33
F33.72589874267578
aF204.85841369628906
aF-110.23075866699219
aa(lp34
F33.72584915161133
aF204.85943603515625
aF-110.2334213256836
aa(lp35
F33.726497650146484
aF204.85939025878906
aF-110.23145294189453
aa(lp36
F33.726627349853516
aF204.85781860351562
aF-110.22949981689453
aa(lp37
F33.72649002075195
aF204.85504150390625
aF-110.24690246582031
aa(lp38
F33.72711944580078
aF204.85592651367188
aF-110.26113891601562
aa.