(lp0
(lp1
F30.442964553833008
aF204.9222869873047
aF-110.90362548828125
aa(lp2
F31.062665939331055
aF204.89044189453125
aF-110.75154876708984
aa(lp3
F31.695356369018555
aF204.86181640625
aF-110.58392333984375
aa(lp4
F32.10934066772461
aF204.83029174804688
aF-110.47103118896484
aa(lp5
F32.421958923339844
aF204.81082153320312
aF-110.41785430908203
aa(lp6
F32.7372932434082
aF204.78707885742188
aF-110.35433197021484
aa(lp7
F32.929595947265625
aF204.77969360351562
aF-110.3124771118164
aa(lp8
F33.0833625793457
aF204.7717742919922
aF-110.31202697753906
aa(lp9
F33.21055221557617
aF204.76416015625
aF-110.30497741699219
aa(lp10
F33.30775451660156
aF204.7583770751953
aF-110.2646484375
aa(lp11
F33.38547897338867
aF204.75637817382812
aF-110.2249526977539
aa(lp12
F33.45357894897461
aF204.75454711914062
aF-110.21561431884766
aa(lp13
F33.50730514526367
aF204.7437744140625
aF-110.20770263671875
aa(lp14
F33.5489616394043
aF204.74378967285156
aF-110.18181610107422
aa(lp15
F33.580570220947266
aF204.74810791015625
aF-110.17726135253906
aa(lp16
F33.60517120361328
aF204.74612426757812
aF-110.16062927246094
aa(lp17
F33.62626647949219
aF204.74974060058594
aF-110.15412139892578
aa(lp18
F33.63985824584961
aF204.7424774169922
aF-110.1704330444336
aa(lp19
F33.65219497680664
aF204.7384033203125
aF-110.15312957763672
aa(lp20
F33.66139602661133
aF204.7330780029297
aF-110.15045928955078
aa(lp21
F33.669471740722656
aF204.73333740234375
aF-110.12629699707031
aa(lp22
F33.67694091796875
aF204.73487854003906
aF-110.13311767578125
aa(lp23
F33.681697845458984
aF204.73886108398438
aF-110.12976837158203
aa(lp24
F33.68549728393555
aF204.74168395996094
aF-110.12406921386719
aa(lp25
F33.68959045410156
aF204.7484588623047
aF-110.10990905761719
aa(lp26
F33.69175338745117
aF204.74844360351562
aF-110.11000061035156
aa(lp27
F33.690757751464844
aF204.7325439453125
aF-110.1500244140625
aa(lp28
F33.692813873291016
aF204.73440551757812
aF-110.14015197753906
aa(lp29
F33.694068908691406
aF204.73468017578125
aF-110.1380615234375
aa(lp30
F33.695274353027344
aF204.7384033203125
aF-110.12666320800781
aa(lp31
F33.69559097290039
aF204.73681640625
aF-110.1202621459961
aa(lp32
F33.694942474365234
aF204.73402404785156
aF-110.12663269042969
aa(lp33
F33.69633865356445
aF204.73828125
aF-110.14713287353516
aa(lp34
F33.69723892211914
aF204.740966796875
aF-110.13238525390625
aa(lp35
F33.698936462402344
aF204.74603271484375
aF-110.10970306396484
aa(lp36
F33.699153900146484
aF204.7469482421875
aF-110.09452819824219
aa(lp37
F33.69908905029297
aF204.74632263183594
aF-110.10613250732422
aa(lp38
F33.699588775634766
aF204.7457275390625
aF-110.10498809814453
aa(lp39
F33.69974136352539
aF204.74473571777344
aF-110.10617065429688
aa.