(lp0
(lp1
F30.930131912231445
aF204.96316528320312
aF-110.7389907836914
aa(lp2
F31.466167449951172
aF204.9502410888672
aF-110.57945251464844
aa(lp3
F31.91968536376953
aF204.93557739257812
aF-110.46882629394531
aa(lp4
F32.31660079956055
aF204.91981506347656
aF-110.35517883300781
aa(lp5
F32.61652755737305
aF204.9097442626953
aF-110.2798843383789
aa(lp6
F32.85706329345703
aF204.9027099609375
aF-110.2491455078125
aa(lp7
F33.064918518066406
aF204.89002990722656
aF-110.18234252929688
aa(lp8
F33.2219123840332
aF204.88900756835938
aF-110.12297821044922
aa(lp9
F33.34504318237305
aF204.88462829589844
aF-110.1155776977539
aa(lp10
F33.43893051147461
aF204.8819580078125
aF-110.08110046386719
aa(lp11
F33.51876449584961
aF204.87570190429688
aF-110.06177520751953
aa(lp12
F33.57283401489258
aF204.8736572265625
aF-110.04380798339844
aa(lp13
F33.61701965332031
aF204.87109375
aF-110.03643798828125
aa(lp14
F33.65095138549805
aF204.87039184570312
aF-110.00833129882812
aa(lp15
F33.68130874633789
aF204.86697387695312
aF-110.0431137084961
aa(lp16
F33.704978942871094
aF204.86753845214844
aF-110.0278549194336
aa(lp17
F33.72616195678711
aF204.87144470214844
aF-110.0312728881836
aa(lp18
F33.743675231933594
aF204.86923217773438
aF-110.01576232910156
aa(lp19
F33.75864028930664
aF204.8738250732422
aF-110.00003814697266
aa(lp20
F33.76841735839844
aF204.87362670898438
aF-109.99320220947266
aa(lp21
F33.775901794433594
aF204.8689727783203
aF-109.99697875976562
aa(lp22
F33.78335189819336
aF204.86875915527344
aF-109.99797821044922
aa(lp23
F33.7885856628418
aF204.87313842773438
aF-110.00418853759766
aa(lp24
F33.793479919433594
aF204.87774658203125
aF-109.99920654296875
aa(lp25
F33.796791076660156
aF204.876953125
aF-109.99679565429688
aa(lp26
F33.79948425292969
aF204.8772430419922
aF-109.99995422363281
aa(lp27
F33.802757263183594
aF204.88038635253906
aF-109.99671936035156
aa(lp28
F33.803775787353516
aF204.87767028808594
aF-109.98870086669922
aa(lp29
F33.80469512939453
aF204.88075256347656
aF-109.98392486572266
aa(lp30
F33.806827545166016
aF204.8783721923828
aF-109.9778823852539
aa(lp31
F33.80860900878906
aF204.8769073486328
aF-109.94973754882812
aa(lp32
F33.80914306640625
aF204.87286376953125
aF-109.94933319091797
aa(lp33
F33.80915451049805
aF204.8692169189453
aF-109.95247650146484
aa(lp34
F33.809452056884766
aF204.8675079345703
aF-109.94715881347656
aa(lp35
F33.80989074707031
aF204.86508178710938
aF-109.93128967285156
aa(lp36
F33.81088638305664
aF204.8638458251953
aF-109.89414978027344
aa(lp37
F33.81085968017578
aF204.86227416992188
aF-109.90062713623047
aa(lp38
F33.81105041503906
aF204.85939025878906
aF-109.89164733886719
aa(lp39
F33.812747955322266
aF204.8663787841797
aF-109.90361785888672
aa.