(lp0
(lp1
F37.819091796875
aF181.0826873779297
aF-47.380455017089844
aa(lp2
F37.922359466552734
aF181.1070098876953
aF-48.12413787841797
aa(lp3
F37.9529914855957
aF181.12709045410156
aF-48.52617263793945
aa(lp4
F37.99335479736328
aF181.1460418701172
aF-48.84696578979492
aa(lp5
F38.03064727783203
aF181.1608123779297
aF-49.21198654174805
aa(lp6
F38.056549072265625
aF181.16734313964844
aF-49.404666900634766
aa(lp7
F38.09233474731445
aF181.16604614257812
aF-49.57130432128906
aa(lp8
F38.12306594848633
aF181.17640686035156
aF-49.76226806640625
aa(lp9
F38.15054702758789
aF181.17681884765625
aF-49.861412048339844
aa(lp10
F38.165287017822266
aF181.17237854003906
aF-49.940185546875
aa(lp11
F38.17341995239258
aF181.16854858398438
aF-50.04521560668945
aa(lp12
F38.1709098815918
aF181.17933654785156
aF-50.108680725097656
aa(lp13
F38.16619873046875
aF181.17616271972656
aF-50.154205322265625
aa(lp14
F38.15807342529297
aF181.1717071533203
aF-50.20901870727539
aa(lp15
F38.16135025024414
aF181.17715454101562
aF-50.24205780029297
aa(lp16
F38.16549301147461
aF181.16725158691406
aF-50.26039505004883
aa(lp17
F38.16142272949219
aF181.17735290527344
aF-50.295555114746094
aa(lp18
F38.1650505065918
aF181.17466735839844
aF-50.30781936645508
aa(lp19
F38.16151428222656
aF181.17333984375
aF-50.316410064697266
aa(lp20
F38.125545501708984
aF181.16986083984375
aF-50.32973861694336
aa(lp21
F38.12638854980469
aF181.16720581054688
aF-50.337745666503906
aa(lp22
F38.14276123046875
aF181.16537475585938
aF-50.34437561035156
aa(lp23
F38.15266799926758
aF181.14688110351562
aF-50.34376525878906
aa(lp24
F38.157535552978516
aF181.1544647216797
aF-50.35389709472656
aa(lp25
F38.16110610961914
aF181.14523315429688
aF-50.360137939453125
aa(lp26
F38.15730667114258
aF181.1468048095703
aF-50.36425018310547
aa(lp27
F38.16678237915039
aF181.1607208251953
aF-50.3608512878418
aa(lp28
F38.154537200927734
aF181.16537475585938
aF-50.35941696166992
aa(lp29
F38.17311477661133
aF181.1681365966797
aF-50.368247985839844
aa(lp30
F38.16484069824219
aF181.1697235107422
aF-50.367374420166016
aa(lp31
F38.18395233154297
aF181.15586853027344
aF-50.36274337768555
aa(lp32
F38.189029693603516
aF181.1533966064453
aF-50.368953704833984
aa(lp33
F38.18151092529297
aF181.14492797851562
aF-50.36891555786133
aa(lp34
F38.185150146484375
aF181.1554412841797
aF-50.37548828125
aa(lp35
F38.193641662597656
aF181.15176391601562
aF-50.37379455566406
aa(lp36
F38.18270492553711
aF181.15379333496094
aF-50.3690071105957
aa(lp37
F38.19074630737305
aF181.15762329101562
aF-50.362388610839844
aa(lp38
F38.18681335449219
aF181.17918395996094
aF-50.369625091552734
aa(lp39
F38.191864013671875
aF181.17616271972656
aF-50.371986389160156
aa(lp40
F38.18587875366211
aF181.17259216308594
aF-50.37319564819336
aa(lp41
F38.18637466430664
aF181.16061401367188
aF-50.375247955322266
aa(lp42
F38.19083023071289
aF181.16844177246094
aF-50.37567901611328
aa.