(lp0
(lp1
F44.16685485839844
aF208.5181427001953
aF-94.48651885986328
aa(lp2
F44.16685485839844
aF208.5181427001953
aF-94.48651885986328
aa(lp3
F44.16685485839844
aF208.5181427001953
aF-94.48651885986328
aa(lp4
F44.16685485839844
aF208.5181427001953
aF-94.48651885986328
aa(lp5
F44.16685485839844
aF208.5181427001953
aF-94.48651885986328
aa(lp6
F44.16685485839844
aF208.5181427001953
aF-94.48651885986328
aa(lp7
F44.16685485839844
aF208.5181427001953
aF-94.48651885986328
aa(lp8
F44.16685485839844
aF208.5181427001953
aF-94.48651885986328
aa(lp9
F44.16685485839844
aF208.5181427001953
aF-94.48651885986328
aa(lp10
F44.16685485839844
aF208.5181427001953
aF-94.48651885986328
aa(lp11
F44.16685485839844
aF208.5181427001953
aF-94.48651885986328
aa(lp12
F44.16685485839844
aF208.5181427001953
aF-94.48651885986328
aa(lp13
F44.16685485839844
aF208.5181427001953
aF-94.48651885986328
aa(lp14
F44.13602066040039
aF208.51881408691406
aF-94.51453399658203
aa(lp15
F44.05449295043945
aF208.52056884765625
aF-94.58877563476562
aa(lp16
F43.89257049560547
aF208.52432250976562
aF-94.73664855957031
aa(lp17
F43.64760971069336
aF208.52957153320312
aF-94.95931243896484
aa(lp18
F43.3296012878418
aF208.53651428222656
aF-95.24873352050781
aa(lp19
F42.90934753417969
aF208.5465850830078
aF-95.6324462890625
aa(lp20
F42.40985870361328
aF208.55856323242188
aF-96.0882339477539
aa(lp21
F41.832244873046875
aF208.5729217529297
aF-96.6150894165039
aa(lp22
F41.22389221191406
aF208.58505249023438
aF-97.16779327392578
aa(lp23
F40.62591552734375
aF208.59890747070312
aF-97.71306610107422
aa(lp24
F40.009010314941406
aF208.61329650878906
aF-98.27481842041016
aa(lp25
F39.320350646972656
aF208.63050842285156
aF-98.90370178222656
aa(lp26
F38.645240783691406
aF208.6432647705078
aF-99.5191879272461
aa(lp27
F37.9761848449707
aF208.6575927734375
aF-100.12359619140625
aa.