(lp0
(lp1
F37.42329406738281
aF181.13539123535156
aF-46.227603912353516
aa(lp2
F37.5335693359375
aF181.1532440185547
aF-47.02136993408203
aa(lp3
F37.60488510131836
aF181.15927124023438
aF-47.64130401611328
aa(lp4
F37.670440673828125
aF181.16065979003906
aF-48.19036865234375
aa(lp5
F37.76190948486328
aF181.1733856201172
aF-48.63660430908203
aa(lp6
F37.798526763916016
aF181.1890869140625
aF-48.96465301513672
aa(lp7
F37.83309555053711
aF181.20806884765625
aF-49.2711181640625
aa(lp8
F37.88134002685547
aF181.21214294433594
aF-49.49226379394531
aa(lp9
F37.87739181518555
aF181.21046447753906
aF-49.66487503051758
aa(lp10
F37.90121841430664
aF181.22811889648438
aF-49.81553649902344
aa(lp11
F37.92973709106445
aF181.23118591308594
aF-49.95341491699219
aa(lp12
F37.95258712768555
aF181.2217559814453
aF-50.06132888793945
aa(lp13
F37.95214080810547
aF181.2344970703125
aF-50.14102554321289
aa(lp14
F37.93283462524414
aF181.24937438964844
aF-50.2078742980957
aa(lp15
F37.94947052001953
aF181.2589111328125
aF-50.26449203491211
aa(lp16
F37.941890716552734
aF181.23497009277344
aF-50.30630111694336
aa(lp17
F37.94742202758789
aF181.219970703125
aF-50.33622741699219
aa(lp18
F37.953330993652344
aF181.2071075439453
aF-50.35576629638672
aa(lp19
F37.94850540161133
aF181.2003173828125
aF-50.37135314941406
aa(lp20
F37.96342086791992
aF181.18991088867188
aF-50.38069534301758
aa(lp21
F37.9820671081543
aF181.18917846679688
aF-50.40221405029297
aa(lp22
F37.95277786254883
aF181.1845703125
aF-50.40732955932617
aa(lp23
F37.94514083862305
aF181.21914672851562
aF-50.420936584472656
aa(lp24
F37.98172378540039
aF181.2172088623047
aF-50.43254089355469
aa(lp25
F37.98140335083008
aF181.23019409179688
aF-50.43960952758789
aa(lp26
F37.9962272644043
aF181.2420654296875
aF-50.44965362548828
aa(lp27
F38.00033187866211
aF181.24020385742188
aF-50.45930480957031
aa(lp28
F38.04777145385742
aF181.24044799804688
aF-50.465858459472656
aa(lp29
F38.05461883544922
aF181.22879028320312
aF-50.464385986328125
aa(lp30
F38.0566520690918
aF181.22116088867188
aF-50.461883544921875
aa(lp31
F38.01337814331055
aF181.2235870361328
aF-50.45942306518555
aa(lp32
F38.01002502441406
aF181.20191955566406
aF-50.455692291259766
aa(lp33
F38.02103805541992
aF181.19140625
aF-50.45174789428711
aa(lp34
F38.04222869873047
aF181.1865692138672
aF-50.45864486694336
aa(lp35
F38.04066467285156
aF181.1777801513672
aF-50.44871139526367
aa(lp36
F38.024505615234375
aF181.18614196777344
aF-50.44532775878906
aa(lp37
F38.01659393310547
aF181.16064453125
aF-50.44282531738281
aa(lp38
F38.02067184448242
aF181.18150329589844
aF-50.45115661621094
aa(lp39
F38.06023406982422
aF181.1609649658203
aF-50.44807052612305
aa(lp40
F38.05509948730469
aF181.16131591796875
aF-50.44520568847656
aa(lp41
F38.03471374511719
aF181.17007446289062
aF-50.441566467285156
aa(lp42
F38.023643493652344
aF181.1759490966797
aF-50.44081497192383
aa(lp43
F38.01326370239258
aF181.17263793945312
aF-50.437870025634766
aa(lp44
F38.00149917602539
aF181.1638641357422
aF-50.431671142578125
aa(lp45
F38.05363464355469
aF181.1487579345703
aF-50.43373107910156
aa(lp46
F38.04561996459961
aF181.16822814941406
aF-50.44451141357422
aa.