(lp0
(lp1
F30.998464584350586
aF204.96066284179688
aF-110.67911529541016
aa(lp2
F31.642011642456055
aF204.9327392578125
aF-110.50186920166016
aa(lp3
F32.10430908203125
aF204.9129180908203
aF-110.38427734375
aa(lp4
F32.493953704833984
aF204.89166259765625
aF-110.27580261230469
aa(lp5
F32.78275680541992
aF204.88059997558594
aF-110.18605041503906
aa(lp6
F32.997352600097656
aF204.86541748046875
aF-110.1290283203125
aa(lp7
F33.15256881713867
aF204.85800170898438
aF-110.09083557128906
aa(lp8
F33.282623291015625
aF204.84622192382812
aF-110.05823516845703
aa(lp9
F33.39959716796875
aF204.83889770507812
aF-110.04405212402344
aa(lp10
F33.49223327636719
aF204.83741760253906
aF-110.01598358154297
aa(lp11
F33.55348205566406
aF204.8335723876953
aF-109.98937225341797
aa(lp12
F33.60921096801758
aF204.83010864257812
aF-109.9939956665039
aa(lp13
F33.65149688720703
aF204.8369140625
aF-109.9762954711914
aa(lp14
F33.678653717041016
aF204.84182739257812
aF-109.95709991455078
aa(lp15
F33.7017936706543
aF204.83770751953125
aF-109.94580078125
aa(lp16
F33.72238540649414
aF204.84011840820312
aF-109.93692779541016
aa(lp17
F33.736534118652344
aF204.83633422851562
aF-109.92626953125
aa(lp18
F33.74779510498047
aF204.8361053466797
aF-109.90795135498047
aa(lp19
F33.757171630859375
aF204.8342742919922
aF-109.90535736083984
aa(lp20
F33.76381301879883
aF204.83248901367188
aF-109.90907287597656
aa(lp21
F33.76913070678711
aF204.83131408691406
aF-109.90830993652344
aa(lp22
F33.77370071411133
aF204.82965087890625
aF-109.89778137207031
aa(lp23
F33.77764892578125
aF204.8303680419922
aF-109.90419006347656
aa(lp24
F33.779319763183594
aF204.82620239257812
aF-109.90257263183594
aa(lp25
F33.781036376953125
aF204.8240966796875
aF-109.89305877685547
aa(lp26
F33.78305435180664
aF204.82672119140625
aF-109.8844985961914
aa(lp27
F33.78396224975586
aF204.82762145996094
aF-109.88613891601562
aa(lp28
F33.785362243652344
aF204.82907104492188
aF-109.8858871459961
aa(lp29
F33.786376953125
aF204.828125
aF-109.87213134765625
aa(lp30
F33.785728454589844
aF204.82342529296875
aF-109.87422180175781
aa(lp31
F33.78682327270508
aF204.8260955810547
aF-109.9082260131836
aa(lp32
F33.78603744506836
aF204.8217315673828
aF-109.9021987915039
aa(lp33
F33.786197662353516
aF204.8202667236328
aF-109.91732025146484
aa(lp34
F33.78583526611328
aF204.8176727294922
aF-109.9102554321289
aa(lp35
F33.786865234375
aF204.81936645507812
aF-109.91268157958984
aa(lp36
F33.787315368652344
aF204.81851196289062
aF-109.91741943359375
aa.