(lp0
(lp1
F45.19994354248047
aF208.5128173828125
aF-93.66773223876953
aa(lp2
F45.02751541137695
aF208.51779174804688
aF-93.82472229003906
aa(lp3
F44.748111724853516
aF208.52603149414062
aF-94.07977294921875
aa(lp4
F44.42755889892578
aF208.5342254638672
aF-94.37104797363281
aa(lp5
F43.97943115234375
aF208.54685974121094
aF-94.77824401855469
aa(lp6
F43.51393508911133
aF208.55984497070312
aF-95.20294952392578
aa(lp7
F42.896507263183594
aF208.57901000976562
aF-95.76529693603516
aa(lp8
F42.323272705078125
aF208.59591674804688
aF-96.28738403320312
aa(lp9
F41.68331527709961
aF208.6135711669922
aF-96.86771392822266
aa(lp10
F40.89992904663086
aF208.63653564453125
aF-97.57745361328125
aa(lp11
F40.18291473388672
aF208.65476989746094
aF-98.22821044921875
aa(lp12
F39.40731430053711
aF208.6749725341797
aF-98.9340591430664
aa(lp13
F38.61869430541992
aF208.6999053955078
aF-99.65507507324219
aa(lp14
F37.824825286865234
aF208.7249755859375
aF-100.37809753417969
aa(lp15
F37.109737396240234
aF208.74456787109375
aF-101.03272247314453
aa(lp16
F36.47151565551758
aF208.76087951660156
aF-101.61334991455078
aa(lp17
F35.853790283203125
aF208.77352905273438
aF-102.1667251586914
aa(lp18
F35.22971725463867
aF208.78721618652344
aF-102.73082733154297
aa(lp19
F34.71562194824219
aF208.8028564453125
aF-103.20101928710938
aa(lp20
F34.14244079589844
aF208.8227996826172
aF-103.72425079345703
aa(lp21
F33.69291305541992
aF208.83323669433594
aF-104.13856506347656
aa(lp22
F33.24606704711914
aF208.84471130371094
aF-104.54645538330078
aa(lp23
F32.916893005371094
aF208.84744262695312
aF-104.84144592285156
aa(lp24
F32.57563400268555
aF208.86618041992188
aF-105.15054321289062
aa(lp25
F32.29059600830078
aF208.86825561523438
aF-105.40447998046875
aa(lp26
F32.05440139770508
aF208.87403869628906
aF-105.61991119384766
aa(lp27
F31.807018280029297
aF208.88156127929688
aF-105.8422622680664
aa(lp28
F31.630054473876953
aF208.87359619140625
aF-105.99689483642578
aa(lp29
F31.474802017211914
aF208.88458251953125
aF-106.14448547363281
aa.