(lp0
(lp1
F31.147768020629883
aF204.93922424316406
aF-110.82264709472656
aa(lp2
F31.769845962524414
aF204.9310302734375
aF-110.64253234863281
aa(lp3
F32.25679397583008
aF204.91787719726562
aF-110.5126724243164
aa(lp4
F32.552974700927734
aF204.9213104248047
aF-110.43663024902344
aa(lp5
F32.82819747924805
aF204.91693115234375
aF-110.36920928955078
aa(lp6
F33.03208541870117
aF204.91085815429688
aF-110.3105239868164
aa(lp7
F33.17379379272461
aF204.9113311767578
aF-110.28170776367188
aa(lp8
F33.30270004272461
aF204.89859008789062
aF-110.25521850585938
aa(lp9
F33.409244537353516
aF204.90171813964844
aF-110.23784637451172
aa(lp10
F33.48420715332031
aF204.90115356445312
aF-110.2230224609375
aa(lp11
F33.5416145324707
aF204.89979553222656
aF-110.2289810180664
aa(lp12
F33.58601379394531
aF204.9024200439453
aF-110.23518371582031
aa(lp13
F33.61947250366211
aF204.9025115966797
aF-110.21421813964844
aa(lp14
F33.64599609375
aF204.90916442871094
aF-110.20520782470703
aa(lp15
F33.667396545410156
aF204.90245056152344
aF-110.2066879272461
aa(lp16
F33.683841705322266
aF204.90301513671875
aF-110.20352935791016
aa(lp17
F33.6990852355957
aF204.9008026123047
aF-110.21660614013672
aa(lp18
F33.709983825683594
aF204.90457153320312
aF-110.21611022949219
aa(lp19
F33.718467712402344
aF204.90115356445312
aF-110.21920776367188
aa(lp20
F33.72452926635742
aF204.90435791015625
aF-110.20037078857422
aa(lp21
F33.730560302734375
aF204.90719604492188
aF-110.20506286621094
aa(lp22
F33.733985900878906
aF204.9075469970703
aF-110.21340942382812
aa(lp23
F33.736778259277344
aF204.9043426513672
aF-110.20018768310547
aa(lp24
F33.73978805541992
aF204.9088592529297
aF-110.1816635131836
aa(lp25
F33.74114227294922
aF204.9099884033203
aF-110.1723403930664
aa(lp26
F33.741573333740234
aF204.90345764160156
aF-110.16104888916016
aa(lp27
F33.74267578125
aF204.9022674560547
aF-110.1540298461914
aa(lp28
F33.742496490478516
aF204.90232849121094
aF-110.1627426147461
aa(lp29
F33.74279022216797
aF204.90174865722656
aF-110.19139099121094
aa(lp30
F33.74254608154297
aF204.89886474609375
aF-110.19413757324219
aa(lp31
F33.741634368896484
aF204.8943328857422
aF-110.1994857788086
aa(lp32
F33.74227523803711
aF204.89218139648438
aF-110.20579528808594
aa(lp33
F33.74264144897461
aF204.89047241210938
aF-110.18234252929688
aa(lp34
F33.743717193603516
aF204.89588928222656
aF-110.17735290527344
aa.