(lp0
(lp1
F43.7596549987793
aF208.62335205078125
aF-94.80987548828125
aa(lp2
F43.7596549987793
aF208.62335205078125
aF-94.80987548828125
aa(lp3
F43.7596549987793
aF208.62335205078125
aF-94.80987548828125
aa(lp4
F43.7596549987793
aF208.62335205078125
aF-94.80987548828125
aa(lp5
F43.7596549987793
aF208.62335205078125
aF-94.80987548828125
aa(lp6
F43.7596549987793
aF208.62335205078125
aF-94.80987548828125
aa(lp7
F43.7596549987793
aF208.62335205078125
aF-94.80987548828125
aa(lp8
F43.7596549987793
aF208.62335205078125
aF-94.80987548828125
aa(lp9
F43.7596549987793
aF208.62335205078125
aF-94.80987548828125
aa(lp10
F43.7596549987793
aF208.62335205078125
aF-94.80987548828125
aa(lp11
F43.7596549987793
aF208.62335205078125
aF-94.80987548828125
aa(lp12
F43.759620666503906
aF208.6233673095703
aF-94.80990600585938
aa(lp13
F43.7318000793457
aF208.6240997314453
aF-94.83561706542969
aa(lp14
F43.624481201171875
aF208.6268310546875
aF-94.93497467041016
aa(lp15
F43.42009735107422
aF208.63092041015625
aF-95.12400817871094
aa(lp16
F43.11183547973633
aF208.6372833251953
aF-95.4090347290039
aa(lp17
F42.66356658935547
aF208.6461944580078
aF-95.82345581054688
aa(lp18
F42.15073776245117
aF208.6570587158203
aF-96.29718017578125
aa(lp19
F41.45992660522461
aF208.6725616455078
aF-96.93663787841797
aa(lp20
F40.77887725830078
aF208.68821716308594
aF-97.5680923461914
aa(lp21
F39.97905349731445
aF208.70164489746094
aF-98.3056411743164
aa(lp22
F39.366214752197266
aF208.71241760253906
aF-98.87181854248047
aa(lp23
F38.63578796386719
aF208.72439575195312
aF-99.54489135742188
aa(lp24
F38.03194808959961
aF208.73953247070312
aF-100.105224609375
aa(lp25
F37.47642517089844
aF208.75299072265625
aF-100.61952209472656
aa(lp26
F36.858253479003906
aF208.7636260986328
aF-101.19161224365234
aa(lp27
F36.30282211303711
aF208.77432250976562
aF-101.70567321777344
aa.