(lp0
(lp1
F44.60512924194336
aF208.57022094726562
aF-94.02188873291016
aa(lp2
F44.60512924194336
aF208.57022094726562
aF-94.02188873291016
aa(lp3
F44.60512924194336
aF208.57022094726562
aF-94.02188873291016
aa(lp4
F44.60512924194336
aF208.57022094726562
aF-94.02188873291016
aa(lp5
F44.60512924194336
aF208.57022094726562
aF-94.02188873291016
aa(lp6
F44.60512924194336
aF208.57022094726562
aF-94.02188873291016
aa(lp7
F44.60512924194336
aF208.57022094726562
aF-94.02188873291016
aa(lp8
F44.60512924194336
aF208.57022094726562
aF-94.02188873291016
aa(lp9
F44.60512924194336
aF208.57022094726562
aF-94.02188873291016
aa(lp10
F44.60512924194336
aF208.57022094726562
aF-94.02188873291016
aa(lp11
F44.60512924194336
aF208.57022094726562
aF-94.02188873291016
aa(lp12
F44.60512924194336
aF208.57022094726562
aF-94.02188873291016
aa(lp13
F44.60512924194336
aF208.57022094726562
aF-94.02188873291016
aa(lp14
F44.604820251464844
aF208.57022094726562
aF-94.02217102050781
aa(lp15
F44.578155517578125
aF208.57083129882812
aF-94.04651641845703
aa(lp16
F44.51605224609375
aF208.5723114013672
aF-94.1031494140625
aa(lp17
F44.42427062988281
aF208.57443237304688
aF-94.18685150146484
aa(lp18
F44.26251983642578
aF208.5782470703125
aF-94.33464050292969
aa(lp19
F44.05652618408203
aF208.58299255371094
aF-94.52299499511719
aa(lp20
F43.80219268798828
aF208.588134765625
aF-94.75448608398438
aa(lp21
F43.52968215942383
aF208.59457397460938
aF-95.00267028808594
aa(lp22
F43.259666442871094
aF208.60086059570312
aF-95.24894714355469
aa(lp23
F42.920936584472656
aF208.6085968017578
aF-95.55789947509766
aa(lp24
F42.585018157958984
aF208.6158905029297
aF-95.86404418945312
aa(lp25
F42.20390319824219
aF208.625732421875
aF-96.21186065673828
aa(lp26
F41.79402542114258
aF208.63580322265625
aF-96.58592987060547
aa(lp27
F41.299285888671875
aF208.64828491210938
aF-97.03772735595703
aa(lp28
F40.830650329589844
aF208.65924072265625
aF-97.46526336669922
aa.