(lp0
(lp1
F31.407421112060547
aF204.91323852539062
aF-110.510009765625
aa(lp2
F31.914464950561523
aF204.88229370117188
aF-110.39071655273438
aa(lp3
F32.281890869140625
aF204.864990234375
aF-110.3009033203125
aa(lp4
F32.56349563598633
aF204.8429718017578
aF-110.23774719238281
aa(lp5
F32.81202697753906
aF204.8302764892578
aF-110.17111206054688
aa(lp6
F32.99504470825195
aF204.82168579101562
aF-110.11488342285156
aa(lp7
F33.14219665527344
aF204.8107452392578
aF-110.08189392089844
aa(lp8
F33.267024993896484
aF204.80258178710938
aF-110.08228302001953
aa(lp9
F33.359153747558594
aF204.80194091796875
aF-110.05262756347656
aa(lp10
F33.445533752441406
aF204.7980194091797
aF-110.01317596435547
aa(lp11
F33.51039505004883
aF204.79380798339844
aF-110.0057601928711
aa(lp12
F33.56719207763672
aF204.79124450683594
aF-110.00750732421875
aa(lp13
F33.60859298706055
aF204.7897491455078
aF-109.97994995117188
aa(lp14
F33.64014434814453
aF204.79019165039062
aF-109.97444152832031
aa(lp15
F33.665771484375
aF204.7859344482422
aF-109.95175170898438
aa(lp16
F33.68806838989258
aF204.78260803222656
aF-109.92871856689453
aa(lp17
F33.705421447753906
aF204.7825469970703
aF-109.92971801757812
aa(lp18
F33.72087860107422
aF204.78309631347656
aF-109.93517303466797
aa(lp19
F33.729488372802734
aF204.7798309326172
aF-109.94349670410156
aa(lp20
F33.739315032958984
aF204.779052734375
aF-109.93081665039062
aa(lp21
F33.745819091796875
aF204.77821350097656
aF-109.91812896728516
aa(lp22
F33.75178527832031
aF204.77749633789062
aF-109.91339874267578
aa(lp23
F33.75658416748047
aF204.77767944335938
aF-109.90919494628906
aa(lp24
F33.75909423828125
aF204.77587890625
aF-109.92589569091797
aa(lp25
F33.761993408203125
aF204.77377319335938
aF-109.91716766357422
aa(lp26
F33.7655029296875
aF204.7778778076172
aF-109.92163848876953
aa(lp27
F33.768798828125
aF204.78477478027344
aF-109.91795349121094
aa(lp28
F33.77048873901367
aF204.78759765625
aF-109.91665649414062
aa(lp29
F33.771697998046875
aF204.7855224609375
aF-109.91424560546875
aa(lp30
F33.7730598449707
aF204.78749084472656
aF-109.91661834716797
aa(lp31
F33.774356842041016
aF204.79017639160156
aF-109.9117431640625
aa(lp32
F33.773807525634766
aF204.783203125
aF-109.90918731689453
aa(lp33
F33.773677825927734
aF204.7830047607422
aF-109.91327667236328
aa(lp34
F33.77366638183594
aF204.7823944091797
aF-109.91593170166016
aa(lp35
F33.77435302734375
aF204.7828369140625
aF-109.93396759033203
aa(lp36
F33.77362060546875
aF204.77867126464844
aF-109.93863677978516
aa(lp37
F33.77408981323242
aF204.7794952392578
aF-109.93040466308594
aa(lp38
F33.7744026184082
aF204.7788543701172
aF-109.93148040771484
aa(lp39
F33.77372741699219
aF204.77212524414062
aF-109.93495178222656
aa(lp40
F33.77414321899414
aF204.7722930908203
aF-109.93254852294922
aa.