(lp0
(lp1
F33.83928298950195
aF207.6575469970703
aF-107.50544738769531
aa(lp2
F33.82130813598633
aF207.67115783691406
aF-107.53167724609375
aa(lp3
F33.801883697509766
aF207.6773681640625
aF-107.54937744140625
aa(lp4
F33.79204559326172
aF207.68600463867188
aF-107.57637023925781
aa(lp5
F33.786415100097656
aF207.6834259033203
aF-107.58609008789062
aa(lp6
F33.78028106689453
aF207.67532348632812
aF-107.5914077758789
aa(lp7
F33.77826690673828
aF207.6875
aF-107.6031723022461
aa(lp8
F33.77414321899414
aF207.6804656982422
aF-107.6046142578125
aa(lp9
F33.77051544189453
aF207.6754150390625
aF-107.6063003540039
aa(lp10
F33.76605224609375
aF207.67469787597656
aF-107.6061019897461
aa(lp11
F33.766300201416016
aF207.67877197265625
aF-107.61276245117188
aa(lp12
F33.76268768310547
aF207.689453125
aF-107.61253356933594
aa(lp13
F33.75771713256836
aF207.66624450683594
aF-107.6070556640625
aa(lp14
F33.750953674316406
aF207.66046142578125
aF-107.60050964355469
aa(lp15
F33.74979782104492
aF207.65147399902344
aF-107.59671020507812
aa(lp16
F33.75170135498047
aF207.6551513671875
aF-107.59651947021484
aa(lp17
F33.754024505615234
aF207.6582489013672
aF-107.59749603271484
aa(lp18
F33.75429916381836
aF207.6569061279297
aF-107.59688568115234
aa(lp19
F33.75437545776367
aF207.66336059570312
aF-107.60004425048828
aa(lp20
F33.756717681884766
aF207.6681365966797
aF-107.60440063476562
aa(lp21
F33.755672454833984
aF207.66903686523438
aF-107.60565948486328
aa(lp22
F33.755062103271484
aF207.6766815185547
aF-107.6071548461914
aa(lp23
F33.747989654541016
aF207.6761474609375
aF-107.60862731933594
aa(lp24
F33.74757766723633
aF207.6661834716797
aF-107.60365295410156
aa(lp25
F33.746009826660156
aF207.6676788330078
aF-107.60015869140625
aa(lp26
F33.749542236328125
aF207.68272399902344
aF-107.6114273071289
aa(lp27
F33.74829864501953
aF207.6647491455078
aF-107.60409545898438
aa(lp28
F33.74570846557617
aF207.666015625
aF-107.59920501708984
aa(lp29
F33.750221252441406
aF207.67337036132812
aF-107.60429382324219
aa(lp30
F33.74634552001953
aF207.6695098876953
aF-107.60095977783203
aa(lp31
F33.74554443359375
aF207.66806030273438
aF-107.59796142578125
aa.