(lp0
(lp1
F31.647493362426758
aF200.70755004882812
aF8.766717910766602
aa(lp2
F31.646059036254883
aF200.70785522460938
aF8.76565933227539
aa(lp3
F31.644689559936523
aF200.708251953125
aF8.764612197875977
aa(lp4
F31.643430709838867
aF200.70864868164062
aF8.763399124145508
aa(lp5
F31.642162322998047
aF200.7089080810547
aF8.762286186218262
aa(lp6
F31.640869140625
aF200.70932006835938
aF8.761213302612305
aa(lp7
F31.639545440673828
aF200.70960998535156
aF8.760103225708008
aa(lp8
F31.638351440429688
aF200.70985412597656
aF8.758888244628906
aa(lp9
F31.6370792388916
aF200.7100830078125
aF8.757743835449219
aa(lp10
F31.63578224182129
aF200.7103729248047
aF8.756668090820312
aa(lp11
F31.634679794311523
aF200.71078491210938
aF8.755449295043945
aa(lp12
F31.633480072021484
aF200.711181640625
aF8.754267692565918
aa(lp13
F31.632230758666992
aF200.71173095703125
aF8.75321102142334
aa(lp14
F31.6311092376709
aF200.71237182617188
aF8.752025604248047
aa(lp15
F31.630136489868164
aF200.71311950683594
aF8.750811576843262
aa(lp16
F31.62898063659668
aF200.7136688232422
aF8.749619483947754
aa(lp17
F31.627840042114258
aF200.7145538330078
aF8.748435974121094
aa(lp18
F31.626670837402344
aF200.71519470214844
aF8.747294425964355
aa(lp19
F31.62547492980957
aF200.71568298339844
aF8.746164321899414
aa(lp20
F31.624282836914062
aF200.71621704101562
aF8.745092391967773
aa(lp21
F31.62305450439453
aF200.71669006347656
aF8.744072914123535
aa(lp22
F31.621875762939453
aF200.71734619140625
aF8.743013381958008
aa(lp23
F31.620635986328125
aF200.71762084960938
aF8.742016792297363
aa(lp24
F31.619539260864258
aF200.7180938720703
aF8.7408447265625
aa(lp25
F31.618427276611328
aF200.718505859375
aF8.739815711975098
aa(lp26
F31.617385864257812
aF200.71890258789062
aF8.73867416381836
aa(lp27
F31.614009857177734
aF200.7201385498047
aF8.735172271728516
aa(lp28
F31.613021850585938
aF200.7206573486328
aF8.733927726745605
aa(lp29
F31.611953735351562
aF200.72117614746094
aF8.732805252075195
aa(lp30
F31.6108341217041
aF200.72142028808594
aF8.73171329498291
aa(lp31
F31.60968589782715
aF200.7217254638672
aF8.7306547164917
aa(lp32
F31.608455657958984
aF200.72193908691406
aF8.729630470275879
aa(lp33
F31.60740852355957
aF200.72227478027344
aF8.728496551513672
aa(lp34
F31.606454849243164
aF200.7226104736328
aF8.727307319641113
aa(lp35
F31.605443954467773
aF200.72314453125
aF8.72615909576416
aa(lp36
F31.604368209838867
aF200.72361755371094
aF8.725140571594238
aa(lp37
F31.60344696044922
aF200.72438049316406
aF8.724085807800293
aa(lp38
F31.602394104003906
aF200.72476196289062
aF8.723048210144043
aa(lp39
F31.601289749145508
aF200.72508239746094
aF8.722112655639648
aa(lp40
F31.600160598754883
aF200.7255859375
aF8.721238136291504
aa(lp41
F31.599056243896484
aF200.72618103027344
aF8.720296859741211
aa(lp42
F31.597919464111328
aF200.72703552246094
aF8.719493865966797
aa(lp43
F31.59676742553711
aF200.72767639160156
aF8.718725204467773
aa(lp44
F31.595813751220703
aF200.7285919189453
aF8.717731475830078
aa(lp45
F31.594743728637695
aF200.72927856445312
aF8.716876983642578
aa(lp46
F31.59385108947754
aF200.72999572753906
aF8.715790748596191
aa(lp47
F31.592857360839844
aF200.7305145263672
aF8.714825630187988
aa(lp48
F31.59183692932129
aF200.73109436035156
aF8.71387004852295
aa(lp49
F31.590808868408203
aF200.73191833496094
aF8.712953567504883
aa(lp50
F31.589672088623047
aF200.732421875
aF8.712082862854004
aa(lp51
F31.588451385498047
aF200.73272705078125
aF8.711202621459961
aa(lp52
F31.587255477905273
aF200.7332305908203
aF8.710386276245117
aa(lp53
F31.586061477661133
aF200.7337646484375
aF8.709566116333008
aa(lp54
F31.584890365600586
aF200.7344207763672
aF8.708784103393555
aa(lp55
F31.58377456665039
aF200.73492431640625
aF8.70793342590332
aa(lp56
F31.582595825195312
aF200.73516845703125
aF8.70712661743164
aa(lp57
F31.5814266204834
aF200.7353515625
aF8.706328392028809
aa(lp58
F31.580263137817383
aF200.73538208007812
aF8.70546817779541
aa(lp59
F31.579320907592773
aF200.73582458496094
aF8.704476356506348
aa(lp60
F31.57828140258789
aF200.73619079589844
aF8.703476905822754
aa(lp61
F31.577205657958984
aF200.7364959716797
aF8.702574729919434
aa(lp62
F31.57628059387207
aF200.7369384765625
aF8.701607704162598
aa(lp63
F31.57528305053711
aF200.73739624023438
aF8.70071029663086
aa(lp64
F31.574268341064453
aF200.73779296875
aF8.699827194213867
aa(lp65
F31.57320785522461
aF200.738037109375
aF8.6989164352417
aa(lp66
F31.572168350219727
aF200.7383575439453
aF8.698079109191895
aa(lp67
F31.571144104003906
aF200.7388916015625
aF8.697214126586914
aa(lp68
F31.570280075073242
aF200.73948669433594
aF8.696209907531738
aa(lp69
F31.569374084472656
aF200.7401885986328
aF8.695343017578125
aa(lp70
F31.568525314331055
aF200.74066162109375
aF8.694379806518555
aa(lp71
F31.567602157592773
aF200.7412567138672
aF8.693488121032715
aa(lp72
F31.56678581237793
aF200.7418212890625
aF8.692502975463867
aa(lp73
F31.565927505493164
aF200.7425079345703
aF8.691617012023926
aa(lp74
F31.564960479736328
aF200.74301147460938
aF8.69078254699707
aa(lp75
F31.563932418823242
aF200.74337768554688
aF8.69003963470459
aa(lp76
F31.56294059753418
aF200.74365234375
aF8.689249038696289
aa(lp77
F31.562122344970703
aF200.74417114257812
aF8.68830394744873
aa(lp78
F31.56138801574707
aF200.7446746826172
aF8.687297821044922
aa(lp79
F31.560548782348633
aF200.74496459960938
aF8.686412811279297
aa(lp80
F31.559650421142578
aF200.7454071044922
aF8.685572624206543
aa(lp81
F31.55886459350586
aF200.7458953857422
aF8.684643745422363
aa(lp82
F31.558008193969727
aF200.74620056152344
aF8.683839797973633
aa(lp83
F31.5572566986084
aF200.74664306640625
aF8.6829195022583
aa(lp84
F31.556615829467773
aF200.74728393554688
aF8.681914329528809
aa(lp85
F31.55596160888672
aF200.74810791015625
aF8.680990219116211
aa(lp86
F31.555145263671875
aF200.74850463867188
aF8.680083274841309
aa(lp87
F31.554241180419922
aF200.74880981445312
aF8.679292678833008
aa(lp88
F31.553306579589844
aF200.749267578125
aF8.678532600402832
aa(lp89
F31.552379608154297
aF200.7497100830078
aF8.67783260345459
aa(lp90
F31.551340103149414
aF200.7498779296875
aF8.677227973937988
aa(lp91
F31.550323486328125
aF200.75009155273438
aF8.676599502563477
aa(lp92
F31.549327850341797
aF200.7503662109375
aF8.675992012023926
aa(lp93
F31.5484676361084
aF200.75070190429688
aF8.675240516662598
aa(lp94
F31.547561645507812
aF200.7510986328125
aF8.674552917480469
aa(lp95
F31.546619415283203
aF200.75149536132812
aF8.6739501953125
aa(lp96
F31.54570198059082
aF200.75173950195312
aF8.67325496673584
aa(lp97
F31.54497718811035
aF200.751953125
aF8.672334671020508
aa(lp98
F31.544160842895508
aF200.75204467773438
aF8.671566009521484
aa(lp99
F31.543466567993164
aF200.7522430419922
aF8.670700073242188
aa(lp100
F31.542747497558594
aF200.75259399414062
aF8.669872283935547
aa(lp101
F31.541933059692383
aF200.7527313232422
aF8.6691312789917
aa(lp102
F31.541059494018555
aF200.75303649902344
aF8.668442726135254
aa(lp103
F31.54017448425293
aF200.75338745117188
aF8.667757987976074
aa(lp104
F31.539255142211914
aF200.7535858154297
aF8.667162895202637
aa(lp105
F31.538373947143555
aF200.7538604736328
aF8.66653060913086
aa(lp106
F31.537431716918945
aF200.75399780273438
aF8.665948867797852
aa(lp107
F31.53645896911621
aF200.75404357910156
aF8.665404319763184
aa(lp108
F31.5355281829834
aF200.7540740966797
aF8.664748191833496
aa(lp109
F31.534561157226562
aF200.75411987304688
aF8.664196014404297
aa(lp110
F31.5338191986084
aF200.75436401367188
aF8.66352653503418
aa(lp111
F31.533029556274414
aF200.754638671875
aF8.662903785705566
aa(lp112
F31.53240203857422
aF200.75523376464844
aF8.662169456481934
aa(lp113
F31.53165054321289
aF200.7555694580078
aF8.661547660827637
aa(lp114
F31.530792236328125
aF200.75575256347656
aF8.66093921661377
aa(lp115
F31.530044555664062
aF200.75607299804688
aF8.660263061523438
aa(lp116
F31.529273986816406
aF200.75624084472656
aF8.65953254699707
aa(lp117
F31.528423309326172
aF200.75634765625
aF8.658846855163574
aa(lp118
F31.527803421020508
aF200.75697326660156
aF8.658025741577148
aa(lp119
F31.52705192565918
aF200.7574005126953
aF8.657254219055176
aa(lp120
F31.52625274658203
aF200.7578582763672
aF8.656547546386719
aa(lp121
F31.52543830871582
aF200.75819396972656
aF8.655813217163086
aa(lp122
F31.52463150024414
aF200.75831604003906
aF8.655045509338379
aa(lp123
F31.52376937866211
aF200.75840759277344
aF8.654309272766113
aa(lp124
F31.522872924804688
aF200.7582550048828
aF8.653545379638672
aa(lp125
F31.52215576171875
aF200.75840759277344
aF8.652684211730957
aa(lp126
F31.521408081054688
aF200.7587127685547
aF8.65188980102539
aa(lp127
F31.520633697509766
aF200.7591094970703
aF8.651174545288086
aa(lp128
F31.520030975341797
aF200.75975036621094
aF8.650362968444824
aa(lp129
F31.51947021484375
aF200.76010131835938
aF8.649456977844238
aa(lp130
F31.518783569335938
aF200.7602996826172
aF8.648627281188965
aa(lp131
F31.517993927001953
aF200.7603759765625
aF8.647954940795898
aa(lp132
F31.51719856262207
aF200.76058959960938
aF8.647348403930664
aa(lp133
F31.516368865966797
aF200.76063537597656
aF8.646793365478516
aa(lp134
F31.515722274780273
aF200.76104736328125
aF8.646148681640625
aa(lp135
F31.515047073364258
aF200.76158142089844
aF8.645564079284668
aa(lp136
F31.51429557800293
aF200.7617645263672
aF8.644933700561523
aa(lp137
F31.5135440826416
aF200.76220703125
aF8.644352912902832
aa(lp138
F31.51291847229004
aF200.76268005371094
aF8.643630981445312
aa(lp139
F31.512413024902344
aF200.76304626464844
aF8.64278793334961
aa(lp140
F31.51181411743164
aF200.76324462890625
aF8.64199447631836
aa(lp141
F31.511117935180664
aF200.76345825195312
aF8.641359329223633
aa(lp142
F31.510568618774414
aF200.763916015625
aF8.640567779541016
aa(lp143
F31.509979248046875
aF200.7644500732422
aF8.639860153198242
aa(lp144
F31.509469985961914
aF200.76498413085938
aF8.639047622680664
aa(lp145
F31.508846282958984
aF200.765380859375
aF8.638278007507324
aa(lp146
F31.50815200805664
aF200.7655792236328
aF8.637587547302246
aa(lp147
F31.50741195678711
aF200.7657470703125
aF8.636960983276367
aa(lp148
F31.50664520263672
aF200.7660675048828
aF8.636370658874512
aa(lp149
F31.506040573120117
aF200.76654052734375
aF8.635664939880371
aa(lp150
F31.505386352539062
aF200.7668914794922
aF8.63498306274414
aa(lp151
F31.504690170288086
aF200.76715087890625
aF8.634342193603516
aa(lp152
F31.50248908996582
aF200.76791381835938
aF8.632353782653809
aa(lp153
F31.501977920532227
aF200.76852416992188
aF8.631559371948242
aa(lp154
F31.50152015686035
aF200.76893615722656
aF8.630728721618652
aa(lp155
F31.500959396362305
aF200.76942443847656
aF8.630097389221191
aa(lp156
F31.50031089782715
aF200.76979064941406
aF8.629612922668457
aa(lp157
F31.499656677246094
aF200.770263671875
aF8.629154205322266
aa(lp158
F31.49895477294922
aF200.77052307128906
aF8.628605842590332
aa(lp159
F31.498197555541992
aF200.77064514160156
aF8.62806224822998
aa(lp160
F31.497467041015625
aF200.7706298828125
aF8.627452850341797
aa(lp161
F31.496686935424805
aF200.7703857421875
aF8.62681770324707
aa(lp162
F31.496074676513672
aF200.77041625976562
aF8.626147270202637
aa(lp163
F31.49536895751953
aF200.77020263671875
aF8.625470161437988
aa(lp164
F31.494590759277344
aF200.7699737548828
aF8.624914169311523
aa(lp165
F31.493831634521484
aF200.76991271972656
aF8.62440013885498
aa(lp166
F31.49323272705078
aF200.7699737548828
aF8.62375259399414
aa(lp167
F31.492565155029297
aF200.7699737548828
aF8.623170852661133
aa(lp168
F31.49186897277832
aF200.7701416015625
aF8.622715950012207
aa(lp169
F31.491104125976562
aF200.77015686035156
aF8.622293472290039
aa(lp170
F31.49036979675293
aF200.7702178955078
aF8.621813774108887
aa(lp171
F31.48959732055664
aF200.76998901367188
aF8.621306419372559
aa(lp172
F31.48887062072754
aF200.77008056640625
aF8.620884895324707
aa(lp173
F31.488126754760742
aF200.7700958251953
aF8.620476722717285
aa(lp174
F31.48740005493164
aF200.77011108398438
aF8.620049476623535
aa(lp175
F31.486644744873047
aF200.7698516845703
aF8.619612693786621
aa(lp176
F31.485836029052734
aF200.7694091796875
aF8.619161605834961
aa(lp177
F31.485246658325195
aF200.76939392089844
aF8.618557929992676
aa(lp178
F31.484664916992188
aF200.7694854736328
aF8.617938041687012
aa(lp179
F31.484235763549805
aF200.76983642578125
aF8.617242813110352
aa(lp180
F31.483749389648438
aF200.77027893066406
aF8.616621971130371
aa(lp181
F31.48318862915039
aF200.7703399658203
aF8.61596393585205
aa(lp182
F31.48257827758789
aF200.77044677734375
aF8.615400314331055
aa(lp183
F31.481922149658203
aF200.77024841308594
aF8.614818572998047
aa(lp184
F31.481224060058594
aF200.77023315429688
aF8.614322662353516
aa(lp185
F31.480562210083008
aF200.77024841308594
aF8.613829612731934
aa(lp186
F31.4798641204834
aF200.77035522460938
aF8.613397598266602
aa(lp187
F31.479190826416016
aF200.7706298828125
aF8.612959861755371
aa(lp188
F31.47846031188965
aF200.77072143554688
aF8.612563133239746
aa(lp189
F31.477741241455078
aF200.77099609375
aF8.612177848815918
aa(lp190
F31.47702407836914
aF200.7711944580078
aF8.611821174621582
aa(lp191
F31.476272583007812
aF200.77127075195312
aF8.611438751220703
aa(lp192
F31.47553825378418
aF200.77146911621094
aF8.61112117767334
aa(lp193
F31.474817276000977
aF200.771484375
aF8.610718727111816
aa(lp194
F31.474077224731445
aF200.7714385986328
aF8.610344886779785
aa(lp195
F31.473522186279297
aF200.77137756347656
aF8.60977840423584
aa(lp196
F31.472900390625
aF200.7711639404297
aF8.609272956848145
aa(lp197
F31.472278594970703
aF200.77105712890625
aF8.608827590942383
aa(lp198
F31.471641540527344
aF200.77101135253906
aF8.60837459564209
aa(lp199
F31.471107482910156
aF200.7709503173828
aF8.607836723327637
aa(lp200
F31.47052574157715
aF200.77088928222656
aF8.607409477233887
aa(lp201
F31.469945907592773
aF200.77102661132812
aF8.607001304626465
aa(lp202
F31.469343185424805
aF200.77096557617188
aF8.606520652770996
aa(lp203
F31.468734741210938
aF200.77110290527344
aF8.606087684631348
aa(lp204
F31.468101501464844
aF200.77105712890625
aF8.605639457702637
aa(lp205
F31.46746063232422
aF200.7708282470703
aF8.605093002319336
aa(lp206
F31.46681022644043
aF200.77069091796875
aF8.604607582092285
aa(lp207
F31.466106414794922
aF200.77066040039062
aF8.604164123535156
aa(lp208
F31.465473175048828
aF200.7706298828125
aF8.603667259216309
aa(lp209
F31.46484375
aF200.77059936523438
aF8.603242874145508
aa(lp210
F31.464385986328125
aF200.7708282470703
aF8.60270881652832
aa(lp211
F31.463857650756836
aF200.77084350585938
aF8.602210998535156
aa(lp212
F31.46343231201172
aF200.77101135253906
aF8.601689338684082
aa(lp213
F31.46299934387207
aF200.77114868164062
aF8.601136207580566
aa(lp214
F31.462566375732422
aF200.7716064453125
aF8.600653648376465
aa(lp215
F31.46206283569336
aF200.77194213867188
aF8.60020923614502
aa(lp216
F31.461511611938477
aF200.7720489501953
aF8.599698066711426
aa(lp217
F31.4609432220459
aF200.77223205566406
aF8.599262237548828
aa(lp218
F31.460546493530273
aF200.77264404296875
aF8.598739624023438
aa(lp219
F31.46010398864746
aF200.7730712890625
aF8.598246574401855
aa(lp220
F31.45958709716797
aF200.77337646484375
aF8.597899436950684
aa(lp221
F31.459165573120117
aF200.7736053466797
aF8.597452163696289
aa(lp222
F31.458833694458008
aF200.77386474609375
aF8.59686279296875
aa(lp223
F31.458410263061523
aF200.7741241455078
aF8.596423149108887
aa(lp224
F31.45803451538086
aF200.7740936279297
aF8.595905303955078
aa(lp225
F31.457605361938477
aF200.77413940429688
aF8.59538745880127
aa(lp226
F31.45712661743164
aF200.77420043945312
aF8.594893455505371
aa(lp227
F31.456605911254883
aF200.77439880371094
aF8.594529151916504
aa(lp228
F31.456045150756836
aF200.7745361328125
aF8.594148635864258
aa(lp229
F31.45564079284668
aF200.7747039794922
aF8.593605995178223
aa(lp230
F31.45515251159668
aF200.77493286132812
aF8.593169212341309
aa(lp231
F31.454814910888672
aF200.77528381347656
aF8.592597961425781
aa(lp232
F31.454395294189453
aF200.77554321289062
aF8.592140197753906
aa(lp233
F31.45390510559082
aF200.77578735351562
aF8.591748237609863
aa(lp234
F31.453411102294922
aF200.77606201171875
aF8.591403007507324
aa(lp235
F31.452898025512695
aF200.77638244628906
aF8.591062545776367
aa(lp236
F31.452491760253906
aF200.7767791748047
aF8.590584754943848
aa(lp237
F31.45197868347168
aF200.7770233154297
aF8.590238571166992
aa(lp238
F31.45147705078125
aF200.77706909179688
aF8.589844703674316
aa(lp239
F31.450952529907227
aF200.77706909179688
aF8.589468002319336
aa(lp240
F31.450538635253906
aF200.77691650390625
aF8.58896541595459
aa(lp241
F31.450061798095703
aF200.7769317626953
aF8.588619232177734
aa(lp242
F31.449552536010742
aF200.77674865722656
aF8.588240623474121
aa(lp243
F31.44900131225586
aF200.77685546875
aF8.587991714477539
aa(lp244
F31.448463439941406
aF200.77688598632812
aF8.587664604187012
aa(lp245
F31.447919845581055
aF200.7770233154297
aF8.587350845336914
aa(lp246
F31.44740104675293
aF200.77708435058594
aF8.5869779586792
aa(lp247
F31.44687843322754
aF200.7772216796875
aF8.586641311645508
aa(lp248
F31.446495056152344
aF200.77743530273438
aF8.58620834350586
aa(lp249
F31.44619369506836
aF200.7777862548828
aF8.585718154907227
aa(lp250
F31.44585418701172
aF200.77828979492188
aF8.585283279418945
aa(lp251
F31.44548797607422
aF200.77882385253906
aF8.584936141967773
aa(lp252
F31.445087432861328
aF200.77932739257812
aF8.58460521697998
aa(lp253
F31.444683074951172
aF200.77957153320312
aF8.584205627441406
aa(lp254
F31.444286346435547
aF200.78001403808594
aF8.583841323852539
aa(lp255
F31.44379997253418
aF200.78013610839844
aF8.583488464355469
aa(lp256
F31.443262100219727
aF200.7802734375
aF8.583247184753418
aa(lp257
F31.442686080932617
aF200.78030395507812
aF8.582983016967773
aa(lp258
F31.4421329498291
aF200.78053283691406
aF8.58276653289795
aa(lp259
F31.441587448120117
aF200.78060913085938
aF8.58259391784668
aa(lp260
F31.441024780273438
aF200.78045654296875
aF8.582356452941895
aa(lp261
F31.440475463867188
aF200.78030395507812
aF8.582054138183594
aa(lp262
F31.439931869506836
aF200.78018188476562
aF8.581823348999023
aa(lp263
F31.439430236816406
aF200.78013610839844
aF8.581538200378418
aa(lp264
F31.438886642456055
aF200.78005981445312
aF8.58129596710205
aa(lp265
F31.43839454650879
aF200.77992248535156
aF8.580970764160156
aa(lp266
F31.437908172607422
aF200.77984619140625
aF8.58061408996582
aa(lp267
F31.437463760375977
aF200.78009033203125
aF8.580313682556152
aa(lp268
F31.43715476989746
aF200.7803955078125
aF8.579896926879883
aa(lp269
F31.436981201171875
aF200.78073120117188
aF8.57934284210205
aa(lp270
F31.4366512298584
aF200.78094482421875
aF8.578916549682617
aa(lp271
F31.436290740966797
aF200.78103637695312
aF8.578439712524414
aa(lp272
F31.435863494873047
aF200.78118896484375
aF8.578080177307129
aa(lp273
F31.43547248840332
aF200.78146362304688
aF8.577749252319336
aa(lp274
F31.43519401550293
aF200.78163146972656
aF8.577256202697754
aa(lp275
F31.434951782226562
aF200.78175354003906
aF8.576741218566895
aa(lp276
F31.434717178344727
aF200.7820281982422
aF8.576281547546387
aa(lp277
F31.433862686157227
aF200.783203125
aF8.575035095214844
aa(lp278
F31.43340301513672
aF200.78338623046875
aF8.57483196258545
aa(lp279
F31.43294334411621
aF200.78370666503906
aF8.574573516845703
aa(lp280
F31.432464599609375
aF200.78392028808594
aF8.574285507202148
aa(lp281
F31.431983947753906
aF200.78424072265625
aF8.574031829833984
aa(lp282
F31.431495666503906
aF200.7845001220703
aF8.57379150390625
aa(lp283
F31.430992126464844
aF200.7845916748047
aF8.573521614074707
aa(lp284
F31.430694580078125
aF200.7849578857422
aF8.573066711425781
aa(lp285
F31.430255889892578
aF200.78504943847656
aF8.572672843933105
aa(lp286
F31.429773330688477
aF200.78521728515625
aF8.572372436523438
aa(lp287
F31.42925453186035
aF200.78526306152344
aF8.572078704833984
aa(lp288
F31.42876434326172
aF200.7855987548828
aF8.571883201599121
aa(lp289
F31.428272247314453
aF200.7859649658203
aF8.57171630859375
aa(lp290
F31.427780151367188
aF200.78619384765625
aF8.571581840515137
aa(lp291
F31.427278518676758
aF200.78639221191406
aF8.571433067321777
aa(lp292
F31.42696762084961
aF200.78671264648438
aF8.571128845214844
aa(lp293
F31.426584243774414
aF200.78697204589844
aF8.570856094360352
aa(lp294
F31.4261531829834
aF200.7870330810547
aF8.570581436157227
aa(lp295
F31.425697326660156
aF200.78717041015625
aF8.57028579711914
aa(lp296
F31.425180435180664
aF200.78704833984375
aF8.570058822631836
aa(lp297
F31.424638748168945
aF200.7869110107422
aF8.569841384887695
aa(lp298
F31.424243927001953
aF200.7869415283203
aF8.5695219039917
aa(lp299
F31.423818588256836
aF200.7871551513672
aF8.568462371826172
aa(lp300
F31.423580169677734
aF200.78717041015625
aF8.567911148071289
aa(lp301
F31.423303604125977
aF200.78756713867188
aF8.567541122436523
aa(lp302
F31.422954559326172
aF200.78790283203125
aF8.567276954650879
aa(lp303
F31.42262077331543
aF200.78817749023438
aF8.566991806030273
aa(lp304
F31.422229766845703
aF200.78831481933594
aF8.566718101501465
aa(lp305
F31.421850204467773
aF200.78866577148438
aF8.566476821899414
aa(lp306
F31.421417236328125
aF200.78880310058594
aF8.56621265411377
aa(lp307
F31.420982360839844
aF200.7888641357422
aF8.565971374511719
aa(lp308
F31.42047691345215
aF200.78860473632812
aF8.565709114074707
aa(lp309
F31.4200382232666
aF200.78846740722656
aF8.565434455871582
aa(lp310
F31.419788360595703
aF200.7887725830078
aF8.565041542053223
aa(lp311
F31.419431686401367
aF200.78871154785156
aF8.564722061157227
aa(lp312
F31.419057846069336
aF200.7884521484375
aF8.564329147338867
aa(lp313
F31.41866111755371
aF200.788330078125
aF8.563998222351074
aa(lp314
F31.418222427368164
aF200.78810119628906
aF8.56373119354248
aa(lp315
F31.417980194091797
aF200.78831481933594
aF8.563335418701172
aa(lp316
F31.41765594482422
aF200.78848266601562
aF8.562967300415039
aa(lp317
F31.41724395751953
aF200.78854370117188
aF8.562751770019531
aa(lp318
F31.417024612426758
aF200.7889862060547
aF8.562458992004395
aa(lp319
F31.41670036315918
aF200.78919982910156
aF8.562246322631836
aa(lp320
F31.416440963745117
aF200.78929138183594
aF8.561938285827637
aa(lp321
F31.41618537902832
aF200.7894744873047
aF8.561606407165527
aa(lp322
F31.415916442871094
aF200.78968811035156
aF8.561290740966797
aa(lp323
F31.415599822998047
aF200.78993225097656
aF8.561081886291504
aa(lp324
F31.415260314941406
aF200.79026794433594
aF8.560892105102539
aa(lp325
F31.415048599243164
aF200.79046630859375
aF8.560524940490723
aa(lp326
F31.41476058959961
aF200.79058837890625
aF8.560210227966309
aa(lp327
F31.41458511352539
aF200.7907257080078
aF8.559762954711914
aa(lp328
F31.4143009185791
aF200.79080200195312
aF8.559370040893555
aa(lp329
F31.41408348083496
aF200.7908172607422
aF8.558897018432617
aa(lp330
F31.413860321044922
aF200.7909698486328
aF8.558518409729004
aa(lp331
F31.413787841796875
aF200.79132080078125
aF8.558009147644043
aa(lp332
F31.413583755493164
aF200.79150390625
aF8.557586669921875
aa(lp333
F31.413299560546875
aF200.7913360595703
aF8.557136535644531
aa(lp334
F31.412967681884766
aF200.7914581298828
aF8.556877136230469
aa(lp335
F31.41262435913086
aF200.79156494140625
aF8.556692123413086
aa(lp336
F31.412235260009766
aF200.79171752929688
aF8.556520462036133
aa(lp337
F31.411834716796875
aF200.79202270507812
aF8.556397438049316
aa(lp338
F31.41143035888672
aF200.79251098632812
aF8.556374549865723
aa(lp339
F31.41094398498535
aF200.79263305664062
aF8.556342124938965
aa(lp340
F31.410423278808594
aF200.7925567626953
aF8.556339263916016
aa(lp341
F31.410123825073242
aF200.79275512695312
aF8.556126594543457
aa(lp342
F31.409778594970703
aF200.7928466796875
aF8.555913925170898
aa(lp343
F31.409547805786133
aF200.79287719726562
aF8.555603981018066
aa(lp344
F31.409271240234375
aF200.79302978515625
aF8.555315017700195
aa(lp345
F31.408952713012695
aF200.79312133789062
aF8.555047988891602
aa(lp346
F31.408775329589844
aF200.79348754882812
aF8.554666519165039
aa(lp347
F31.408554077148438
aF200.79376220703125
aF8.554325103759766
aa(lp348
F31.40827178955078
aF200.79405212402344
aF8.55405330657959
aa(lp349
F31.40814971923828
aF200.79454040527344
aF8.553657531738281
aa(lp350
F31.4079532623291
aF200.79498291015625
aF8.553316116333008
aa(lp351
F31.407672882080078
aF200.7953643798828
aF8.553053855895996
aa(lp352
F31.4075870513916
aF200.79583740234375
aF8.552664756774902
aa(lp353
F31.40744972229004
aF200.79638671875
aF8.552335739135742
aa(lp354
F31.407197952270508
aF200.7967529296875
aF8.552105903625488
aa(lp355
F31.407032012939453
aF200.7968292236328
aF8.55176830291748
aa(lp356
F31.406757354736328
aF200.7967071533203
aF8.551445960998535
aa(lp357
F31.40643882751465
aF200.79656982421875
aF8.55116081237793
aa(lp358
F31.406112670898438
aF200.796630859375
aF8.550963401794434
aa(lp359
F31.40576171875
aF200.7966766357422
aF8.550761222839355
aa(lp360
F31.405399322509766
aF200.79649353027344
aF8.550544738769531
aa(lp361
F31.405017852783203
aF200.79649353027344
aF8.55034065246582
aa(lp362
F31.404626846313477
aF200.79624938964844
aF8.550086975097656
aa(lp363
F31.404258728027344
aF200.79624938964844
aF8.549904823303223
aa(lp364
F31.40389060974121
aF200.79612731933594
aF8.549694061279297
aa(lp365
F31.403526306152344
aF200.796142578125
aF8.549501419067383
aa(lp366
F31.403244018554688
aF200.7959747314453
aF8.549163818359375
aa(lp367
F31.403108596801758
aF200.79615783691406
aF8.548773765563965
aa(lp368
F31.40289306640625
aF200.79598999023438
aF8.548394203186035
aa(lp369
F31.40264129638672
aF200.7959442138672
aF8.548142433166504
aa(lp370
F31.402469635009766
aF200.79591369628906
aF8.547801971435547
aa(lp371
F31.40223503112793
aF200.79598999023438
aF8.547621726989746
aa(lp372
F31.40213966369629
aF200.79623413085938
aF8.547296524047852
aa(lp373
F31.40190887451172
aF200.7962646484375
aF8.54711627960205
aa(lp374
F31.401653289794922
aF200.79620361328125
aF8.546887397766113
aa(lp375
F31.401357650756836
aF200.7962646484375
aF8.546630859375
aa(lp376
F31.40105438232422
aF200.79629516601562
aF8.546384811401367
aa(lp377
F31.400718688964844
aF200.79632568359375
aF8.546185493469238
aa(lp378
F31.400585174560547
aF200.7964630126953
aF8.54582405090332
aa(lp379
F31.40056610107422
aF200.79647827148438
aF8.545358657836914
aa(lp380
F31.400463104248047
aF200.79656982421875
aF8.544984817504883
aa(lp381
F31.40030288696289
aF200.79652404785156
aF8.54464054107666
aa(lp382
F31.40011215209961
aF200.79661560058594
aF8.544301986694336
aa(lp383
F31.39989471435547
aF200.79693603515625
aF8.544071197509766
aa(lp384
F31.39972496032715
aF200.79725646972656
aF8.543783187866211
aa(lp385
F31.39947509765625
aF200.7972412109375
aF8.543567657470703
aa(lp386
F31.39937973022461
aF200.7975311279297
aF8.543220520019531
aa(lp387
F31.399396896362305
aF200.79803466796875
aF8.542803764343262
aa(lp388
F31.399311065673828
aF200.79864501953125
aF8.542532920837402
aa(lp389
F31.39911460876465
aF200.79904174804688
aF8.542376518249512
aa(lp390
F31.39883041381836
aF200.79933166503906
aF8.542263984680176
aa(lp391
F31.398534774780273
aF200.7996826171875
aF8.542141914367676
aa(lp392
F31.39821434020996
aF200.79983520507812
aF8.54201602935791
aa(lp393
F31.39784049987793
aF200.79995727539062
aF8.542007446289062
aa(lp394
F31.39752769470215
aF200.8003692626953
aF8.541954040527344
aa(lp395
F31.397226333618164
aF200.8006591796875
aF8.541871070861816
aa(lp396
F31.39689826965332
aF200.8009033203125
aF8.541803359985352
aa(lp397
F31.39656639099121
aF200.80125427246094
aF8.541693687438965
aa(lp398
F31.3962459564209
aF200.8013916015625
aF8.5415620803833
aa(lp399
F31.395889282226562
aF200.8014373779297
aF8.541482925415039
aa(lp400
F31.395492553710938
aF200.80130004882812
aF8.541375160217285
aa(lp401
F31.39417839050293
aF200.80128479003906
aF8.54104232788086
aa(lp402
F31.393768310546875
aF200.80128479003906
aF8.541001319885254
aa(lp403
F31.393356323242188
aF200.80145263671875
aF8.541028022766113
aa(lp404
F31.39295196533203
aF200.8016357421875
aF8.54105281829834
aa(lp405
F31.392742156982422
aF200.80206298828125
aF8.540889739990234
aa(lp406
F31.3924617767334
aF200.80233764648438
aF8.54078197479248
aa(lp407
F31.392305374145508
aF200.802490234375
aF8.540499687194824
aa(lp408
F31.39207649230957
aF200.8023681640625
aF8.540221214294434
aa(lp409
F31.3919677734375
aF200.8022003173828
aF8.53986644744873
aa(lp410
F31.391714096069336
aF200.8019561767578
aF8.539682388305664
aa(lp411
F31.391420364379883
aF200.80184936523438
aF8.539528846740723
aa(lp412
F31.391098022460938
aF200.80169677734375
aF8.539379119873047
aa(lp413
F31.39069366455078
aF200.8013153076172
aF8.539311408996582
aa(lp414
F31.390443801879883
aF200.8010711669922
aF8.539117813110352
aa(lp415
F31.39030647277832
aF200.8009796142578
aF8.538826942443848
aa(lp416
F31.390127182006836
aF200.80088806152344
aF8.538562774658203
aa(lp417
F31.3898868560791
aF200.80076599121094
aF8.538398742675781
aa(lp418
F31.389589309692383
aF200.80059814453125
aF8.538214683532715
aa(lp419
F31.38927459716797
aF200.80064392089844
aF8.538130760192871
aa(lp420
F31.389114379882812
aF200.8007354736328
aF8.537878036499023
aa(lp421
F31.38888931274414
aF200.8009033203125
aF8.537731170654297
aa(lp422
F31.388671875
aF200.80111694335938
aF8.537566184997559
aa(lp423
F31.388391494750977
aF200.80093383789062
aF8.5374174118042
aa(lp424
F31.388154983520508
aF200.8010711669922
aF8.537254333496094
aa(lp425
F31.388042449951172
aF200.80123901367188
aF8.53699016571045
aa(lp426
F31.387840270996094
aF200.80120849609375
aF8.53683853149414
aa(lp427
F31.387596130371094
aF200.8011932373047
aF8.536774635314941
aa(lp428
F31.387367248535156
aF200.80136108398438
aF8.536624908447266
aa(lp429
F31.38707733154297
aF200.8013916015625
aF8.536558151245117
aa(lp430
F31.38701057434082
aF200.8017120361328
aF8.536370277404785
aa(lp431
F31.386865615844727
aF200.8019561767578
aF8.536203384399414
aa(lp432
F31.386667251586914
aF200.80239868164062
aF8.536177635192871
aa(lp433
F31.386459350585938
aF200.80267333984375
aF8.536114692687988
aa(lp434
F31.3862247467041
aF200.8030242919922
aF8.536116600036621
aa(lp435
F31.385940551757812
aF200.80311584472656
aF8.53607177734375
aa(lp436
F31.3856258392334
aF200.80299377441406
aF8.53594970703125
aa(lp437
F31.385345458984375
aF200.80294799804688
aF8.53575325012207
aa(lp438
F31.385000228881836
aF200.8028564453125
aF8.535679817199707
aa(lp439
F31.384641647338867
aF200.80282592773438
aF8.535661697387695
aa(lp440
F31.38428497314453
aF200.80258178710938
aF8.535563468933105
aa(lp441
F31.383987426757812
aF200.802490234375
aF8.535446166992188
aa(lp442
F31.383729934692383
aF200.80284118652344
aF8.53540325164795
aa(lp443
F31.383455276489258
aF200.80313110351562
aF8.53538990020752
aa(lp444
F31.383228302001953
aF200.8033905029297
aF8.535247802734375
aa(lp445
F31.382944107055664
aF200.80348205566406
aF8.535122871398926
aa(lp446
F31.382707595825195
aF200.80372619628906
aF8.535076141357422
aa(lp447
F31.38240623474121
aF200.80377197265625
aF8.535065650939941
aa(lp448
F31.382112503051758
aF200.80389404296875
aF8.535014152526855
aa(lp449
F31.38184928894043
aF200.80419921875
aF8.534928321838379
aa(lp450
F31.381568908691406
aF200.80462646484375
aF8.534951210021973
aa(lp451
F31.381338119506836
aF200.80496215820312
aF8.534897804260254
aa(lp452
F31.381086349487305
aF200.80531311035156
aF8.534850120544434
aa(lp453
F31.380924224853516
aF200.80545043945312
aF8.534685134887695
aa(lp454
F31.380708694458008
aF200.80577087402344
aF8.534573554992676
aa(lp455
F31.3804874420166
aF200.8057861328125
aF8.534416198730469
aa(lp456
F31.380416870117188
aF200.80601501464844
aF8.534138679504395
aa(lp457
F31.380273818969727
aF200.80612182617188
aF8.533930778503418
aa(lp458
F31.38010597229004
aF200.80630493164062
aF8.533814430236816
aa(lp459
F31.379898071289062
aF200.80628967285156
aF8.533722877502441
aa(lp460
F31.379688262939453
aF200.8063507080078
aF8.53365421295166
aa(lp461
F31.379436492919922
aF200.80630493164062
aF8.533612251281738
aa(lp462
F31.379192352294922
aF200.8061981201172
aF8.533483505249023
aa(lp463
F31.379127502441406
aF200.806396484375
aF8.53318977355957
aa(lp464
F31.37902069091797
aF200.8066864013672
aF8.532955169677734
aa(lp465
F31.37884521484375
aF200.8068389892578
aF8.53279972076416
aa(lp466
F31.378610610961914
aF200.806884765625
aF8.532735824584961
aa(lp467
F31.378372192382812
aF200.8070526123047
aF8.532693862915039
aa(lp468
F31.37816619873047
aF200.80755615234375
aF8.532732963562012
aa(lp469
F31.3779354095459
aF200.8077850341797
aF8.532679557800293
aa(lp470
F31.377662658691406
aF200.80764770507812
aF8.532554626464844
aa(lp471
F31.377351760864258
aF200.80764770507812
aF8.532444953918457
aa(lp472
F31.377038955688477
aF200.80780029296875
aF8.532356262207031
aa(lp473
F31.37672996520996
aF200.80770874023438
aF8.532258033752441
aa(lp474
F31.37642478942871
aF200.80764770507812
aF8.53218936920166
aa(lp475
F31.376113891601562
aF200.80764770507812
aF8.532139778137207
aa(lp476
F31.37600326538086
aF200.80776977539062
aF8.531952857971191
aa(lp477
F31.37587547302246
aF200.80783081054688
aF8.531757354736328
aa(lp478
F31.37566566467285
aF200.80787658691406
aF8.531685829162598
aa(lp479
F31.37546157836914
aF200.80812072753906
aF8.53156852722168
aa(lp480
F31.375452041625977
aF200.8085479736328
aF8.531251907348633
aa(lp481
F31.375402450561523
aF200.8091278076172
aF8.53105354309082
aa(lp482
F31.37526512145996
aF200.8094940185547
aF8.530946731567383
aa(lp483
F31.37508773803711
aF200.8096923828125
aF8.530773162841797
aa(lp484
F31.37486457824707
aF200.80967712402344
aF8.530660629272461
aa(lp485
F31.37485694885254
aF200.81002807617188
aF8.530400276184082
aa(lp486
F31.374692916870117
aF200.81002807617188
aF8.53027629852295
aa(lp487
F31.374670028686523
aF200.8101043701172
aF8.530013084411621
aa(lp488
F31.374757766723633
aF200.81031799316406
aF8.529685020446777
aa(lp489
F31.374719619750977
aF200.81039428710938
aF8.529505729675293
aa(lp490
F31.37482261657715
aF200.81076049804688
aF8.529191970825195
aa(lp491
F31.374866485595703
aF200.8112030029297
aF8.528922080993652
aa(lp492
F31.374794006347656
aF200.81146240234375
aF8.528656959533691
aa(lp493
F31.374679565429688
aF200.81178283691406
aF8.528532981872559
aa(lp494
F31.374492645263672
aF200.81199645996094
aF8.528440475463867
aa(lp495
F31.37425994873047
aF200.81211853027344
aF8.528449058532715
aa(lp496
F31.374197006225586
aF200.81243896484375
aF8.528312683105469
aa(lp497
F31.37407684326172
aF200.81280517578125
aF8.528242111206055
aa(lp498
F31.3739070892334
aF200.81292724609375
aF8.528142929077148
aa(lp499
F31.373865127563477
aF200.81314086914062
aF8.527945518493652
aa(lp500
F31.373931884765625
aF200.8133544921875
aF8.527674674987793
aa(lp501
F31.373912811279297
aF200.8135986328125
aF8.527542114257812
aa(lp502
F31.373823165893555
aF200.8138427734375
aF8.527375221252441
aa(lp503
F31.373851776123047
aF200.8140106201172
aF8.527056694030762
aa(lp504
F31.373947143554688
aF200.81430053710938
aF8.526683807373047
aa(lp505
F31.373910903930664
aF200.8145751953125
aF8.526521682739258
aa(lp506
F31.373783111572266
aF200.8145751953125
aF8.526365280151367
aa(lp507
F31.373804092407227
aF200.81478881835938
aF8.526094436645508
aa(lp508
F31.37397575378418
aF200.8153533935547
aF8.525781631469727
aa(lp509
F31.373977661132812
aF200.81581115722656
aF8.525518417358398
aa(lp510
F31.373882293701172
aF200.81619262695312
aF8.525314331054688
aa(lp511
F31.373735427856445
aF200.8164520263672
aF8.525169372558594
aa(lp512
F31.373491287231445
aF200.81625366210938
aF8.525049209594727
aa(lp513
F31.373254776000977
aF200.81600952148438
aF8.52486801147461
aa(lp514
F31.373226165771484
aF200.81602478027344
aF8.524552345275879
aa(lp515
F31.373050689697266
aF200.81588745117188
aF8.524372100830078
aa(lp516
F31.372848510742188
aF200.81573486328125
aF8.524199485778809
aa(lp517
F31.37281608581543
aF200.8157958984375
aF8.523942947387695
aa(lp518
F31.37273406982422
aF200.81590270996094
aF8.523773193359375
aa(lp519
F31.37259864807129
aF200.81590270996094
aF8.523602485656738
aa(lp520
F31.372400283813477
aF200.81581115722656
aF8.523454666137695
aa(lp521
F31.37238121032715
aF200.81578063964844
aF8.523212432861328
aa(lp522
F31.37224578857422
aF200.8156280517578
aF8.523014068603516
aa(lp523
F31.372194290161133
aF200.8155059814453
aF8.522743225097656
aa(lp524
F31.37225914001465
aF200.81558227539062
aF8.522377014160156
aa(lp525
F31.372392654418945
aF200.81585693359375
aF8.52197551727295
aa(lp526
F31.372573852539062
aF200.8171844482422
aF8.520928382873535
aa(lp527
F31.372535705566406
aF200.8175811767578
aF8.520720481872559
aa(lp528
F31.372426986694336
aF200.8178253173828
aF8.520581245422363
aa(lp529
F31.37226104736328
aF200.81785583496094
aF8.52039623260498
aa(lp530
F31.372108459472656
aF200.8179473876953
aF8.520194053649902
aa(lp531
F31.371896743774414
aF200.81787109375
aF8.520095825195312
aa(lp532
F31.371646881103516
aF200.81777954101562
aF8.520002365112305
aa(lp533
F31.37141227722168
aF200.8179473876953
aF8.51988697052002
aa(lp534
F31.371217727661133
aF200.81822204589844
aF8.519747734069824
aa(lp535
F31.370956420898438
aF200.8184051513672
aF8.519750595092773
aa(lp536
F31.37066078186035
aF200.8185577392578
aF8.519765853881836
aa(lp537
F31.370346069335938
aF200.8185272216797
aF8.519692420959473
aa(lp538
F31.370281219482422
aF200.81875610351562
aF8.519503593444824
aa(lp539
F31.370189666748047
aF200.81910705566406
aF8.519342422485352
aa(lp540
F31.370092391967773
aF200.81951904296875
aF8.519196510314941
aa(lp541
F31.36992073059082
aF200.819580078125
aF8.519099235534668
aa(lp542
F31.369747161865234
aF200.81973266601562
aF8.519026756286621
aa(lp543
F31.369720458984375
aF200.81991577148438
aF8.518800735473633
aa(lp544
F31.369577407836914
aF200.8199462890625
aF8.518725395202637
aa(lp545
F31.369359970092773
aF200.8197479248047
aF8.518606185913086
aa(lp546
F31.369232177734375
aF200.81961059570312
aF8.518389701843262
aa(lp547
F31.3690242767334
aF200.8193817138672
aF8.518217086791992
aa(lp548
F31.36887550354004
aF200.81935119628906
aF8.518102645874023
aa(lp549
F31.36871337890625
aF200.8191680908203
aF8.51790714263916
aa(lp550
F31.368484497070312
aF200.81886291503906
aF8.517851829528809
aa(lp551
F31.368318557739258
aF200.81869506835938
aF8.5177583694458
aa(lp552
F31.368064880371094
aF200.81842041015625
aF8.517724990844727
aa(lp553
F31.367774963378906
aF200.818115234375
aF8.51771068572998
aa(lp554
F31.367494583129883
aF200.8179931640625
aF8.517781257629395
aa(lp555
F31.36721420288086
aF200.81764221191406
aF8.517796516418457
aa(lp556
F31.366966247558594
aF200.8173065185547
aF8.517789840698242
aa(lp557
F31.366735458374023
aF200.8167724609375
aF8.51766586303711
aa(lp558
F31.366634368896484
aF200.81619262695312
aF8.517430305480957
aa(lp559
F31.36650276184082
aF200.81602478027344
aF8.517258644104004
aa(lp560
F31.36647605895996
aF200.81597900390625
aF8.517010688781738
aa(lp561
F31.36638069152832
aF200.81588745117188
aF8.516831398010254
aa(lp562
F31.366243362426758
aF200.81585693359375
aF8.516674995422363
aa(lp563
F31.366182327270508
aF200.81573486328125
aF8.516423225402832
aa(lp564
F31.366243362426758
aF200.81576538085938
aF8.516088485717773
aa(lp565
F31.366199493408203
aF200.81570434570312
aF8.515787124633789
aa(lp566
F31.366151809692383
aF200.81568908691406
aF8.515589714050293
aa(lp567
F31.366064071655273
aF200.8155975341797
aF8.515446662902832
aa(lp568
F31.365894317626953
aF200.8154754638672
aF8.515345573425293
aa(lp569
F31.36594009399414
aF200.81582641601562
aF8.515193939208984
aa(lp570
F31.365873336791992
aF200.8160858154297
aF8.515172004699707
aa(lp571
F31.365768432617188
aF200.8161163330078
aF8.515108108520508
aa(lp572
F31.36561393737793
aF200.8161163330078
aF8.515050888061523
aa(lp573
F31.36559295654297
aF200.81619262695312
aF8.514840126037598
aa(lp574
F31.365514755249023
aF200.81639099121094
aF8.514700889587402
aa(lp575
F31.3653564453125
aF200.81640625
aF8.514540672302246
aa(lp576
F31.365175247192383
aF200.8165283203125
aF8.514434814453125
aa(lp577
F31.36500358581543
aF200.81663513183594
aF8.514350891113281
aa(lp578
F31.364948272705078
aF200.8167724609375
aF8.514165878295898
aa(lp579
F31.364959716796875
aF200.8168182373047
aF8.513936996459961
aa(lp580
F31.364896774291992
aF200.81698608398438
aF8.513855934143066
aa(lp581
F31.364835739135742
aF200.81723022460938
aF8.513787269592285
aa(lp582
F31.364742279052734
aF200.8174591064453
aF8.513716697692871
aa(lp583
F31.364587783813477
aF200.81752014160156
aF8.513628005981445
aa(lp584
F31.364606857299805
aF200.81759643554688
aF8.513376235961914
aa(lp585
F31.36457061767578
aF200.81777954101562
aF8.51325798034668
aa(lp586
F31.364490509033203
aF200.8180389404297
aF8.51327133178711
aa(lp587
F31.364360809326172
aF200.81790161132812
aF8.51314640045166
aa(lp588
F31.364246368408203
aF200.81797790527344
aF8.513043403625488
aa(lp589
F31.364267349243164
aF200.81829833984375
aF8.51285457611084
aa(lp590
F31.364200592041016
aF200.8182830810547
aF8.51269245147705
aa(lp591
F31.364070892333984
aF200.8182373046875
aF8.51259708404541
aa(lp592
F31.363880157470703
aF200.81825256347656
aF8.512650489807129
aa(lp593
F31.363643646240234
aF200.8181610107422
aF8.512758255004883
aa(lp594
F31.363414764404297
aF200.818115234375
aF8.5128755569458
aa(lp595
F31.363157272338867
aF200.8180389404297
aF8.512989044189453
aa(lp596
F31.362960815429688
aF200.8179168701172
aF8.51302719116211
aa(lp597
F31.362716674804688
aF200.8178253173828
aF8.513120651245117
aa(lp598
F31.36248779296875
aF200.81768798828125
aF8.513140678405762
aa(lp599
F31.362215042114258
aF200.8175506591797
aF8.513093948364258
aa(lp600
F31.361942291259766
aF200.81741333007812
aF8.513118743896484
aa(lp601
F31.361690521240234
aF200.8173065185547
aF8.513139724731445
aa(lp602
F31.361438751220703
aF200.8172149658203
aF8.513151168823242
aa(lp603
F31.361188888549805
aF200.8170928955078
aF8.513128280639648
aa(lp604
F31.360960006713867
aF200.81707763671875
aF8.513150215148926
aa(lp605
F31.360761642456055
aF200.8170928955078
aF8.51311206817627
aa(lp606
F31.360536575317383
aF200.81723022460938
aF8.513185501098633
aa(lp607
F31.360286712646484
aF200.81729125976562
aF8.513253211975098
aa(lp608
F31.36004066467285
aF200.81723022460938
aF8.513326644897461
aa(lp609
F31.35979652404785
aF200.81700134277344
aF8.51331901550293
aa(lp610
F31.359580993652344
aF200.8165283203125
aF8.513258934020996
aa(lp611
F31.35935401916504
aF200.81617736816406
aF8.513246536254883
aa(lp612
F31.359149932861328
aF200.8160858154297
aF8.513218879699707
aa(lp613
F31.35911750793457
aF200.81605529785156
aF8.513070106506348
aa(lp614
F31.359004974365234
aF200.8158416748047
aF8.513025283813477
aa(lp615
F31.358901977539062
aF200.81576538085938
aF8.512983322143555
aa(lp616
F31.358749389648438
aF200.81564331054688
aF8.512968063354492
aa(lp617
F31.358612060546875
aF200.81573486328125
aF8.512994766235352
aa(lp618
F31.358415603637695
aF200.81568908691406
aF8.513021469116211
aa(lp619
F31.358369827270508
aF200.81565856933594
aF8.512911796569824
aa(lp620
F31.35831069946289
aF200.8157501220703
aF8.512810707092285
aa(lp621
F31.358150482177734
aF200.81556701660156
aF8.512661933898926
aa(lp622
F31.358078002929688
aF200.81520080566406
aF8.512417793273926
aa(lp623
F31.35797882080078
aF200.8150177001953
aF8.512226104736328
aa(lp624
F31.35787582397461
aF200.81500244140625
aF8.512138366699219
aa(lp625
F31.35772132873535
aF200.8151092529297
aF8.512069702148438
aa(lp626
F31.357572555541992
aF200.8153839111328
aF8.51209545135498
aa(lp627
F31.357398986816406
aF200.81552124023438
aF8.512085914611816
aa(lp628
F31.357284545898438
aF200.81610107421875
aF8.512120246887207
aa(lp629
F31.357280731201172
aF200.8165740966797
aF8.511990547180176
aa(lp630
F31.357242584228516
aF200.8168182373047
aF8.511852264404297
aa(lp631
F31.35728645324707
aF200.81715393066406
aF8.511674880981445
aa(lp632
F31.35741424560547
aF200.81747436523438
aF8.5114107131958
aa(lp633
F31.357412338256836
aF200.817626953125
aF8.511226654052734
aa(lp634
F31.35734748840332
aF200.8177490234375
aF8.511087417602539
aa(lp635
F31.357229232788086
aF200.8177490234375
aF8.510960578918457
aa(lp636
F31.357091903686523
aF200.81796264648438
aF8.510826110839844
aa(lp637
F31.356950759887695
aF200.81817626953125
aF8.510706901550293
aa(lp638
F31.35678482055664
aF200.81826782226562
aF8.510638236999512
aa(lp639
F31.356788635253906
aF200.81845092773438
aF8.510420799255371
aa(lp640
F31.356889724731445
aF200.81887817382812
aF8.510210037231445
aa(lp641
F31.35715675354004
aF200.81942749023438
aF8.509899139404297
aa(lp642
F31.35726547241211
aF200.81971740722656
aF8.50963020324707
aa(lp643
F31.35725975036621
aF200.81996154785156
aF8.509437561035156
aa(lp644
F31.357202529907227
aF200.82020568847656
aF8.509302139282227
aa(lp645
F31.357194900512695
aF200.8202362060547
aF8.509090423583984
aa(lp646
F31.35713768005371
aF200.8203887939453
aF8.508993148803711
aa(lp647
F31.35702896118164
aF200.82057189941406
aF8.5089111328125
aa(lp648
F31.357019424438477
aF200.82070922851562
aF8.508734703063965
aa(lp649
F31.356977462768555
aF200.82089233398438
aF8.508712768554688
aa(lp650
F31.356870651245117
aF200.82107543945312
aF8.508795738220215
aa(lp651
F31.356435775756836
aF200.8213653564453
aF8.508804321289062
aa(lp652
F31.35647964477539
aF200.82168579101562
aF8.508659362792969
aa(lp653
F31.356639862060547
aF200.82200622558594
aF8.508420944213867
aa(lp654
F31.356698989868164
aF200.8222198486328
aF8.50823974609375
aa(lp655
F31.35662078857422
aF200.82208251953125
aF8.508133888244629
aa(lp656
F31.356447219848633
aF200.8218231201172
aF8.508136749267578
aa(lp657
F31.356225967407227
aF200.82127380371094
aF8.508058547973633
aa(lp658
F31.356002807617188
aF200.8207550048828
aF8.508011817932129
aa(lp659
F31.355831146240234
aF200.82054138183594
aF8.507976531982422
aa(lp660
F31.355688095092773
aF200.8205108642578
aF8.508005142211914
aa(lp661
F31.355501174926758
aF200.82025146484375
aF8.508007049560547
aa(lp662
F31.355304718017578
aF200.8199920654297
aF8.508018493652344
aa(lp663
F31.35527992248535
aF200.820068359375
aF8.50790786743164
aa(lp664
F31.35518455505371
aF200.8201446533203
aF8.507830619812012
aa(lp665
F31.3550968170166
aF200.8203125
aF8.507853507995605
aa(lp666
F31.355133056640625
aF200.82040405273438
aF8.507753372192383
aa(lp667
F31.355117797851562
aF200.82041931152344
aF8.507680892944336
aa(lp668
F31.355186462402344
aF200.82034301757812
aF8.50745677947998
aa(lp669
F31.355180740356445
aF200.82029724121094
aF8.507255554199219
aa(lp670
F31.355106353759766
aF200.8202362060547
aF8.50712776184082
aa(lp671
F31.3549747467041
aF200.82015991210938
aF8.507034301757812
aa(lp672
F31.35480308532715
aF200.81996154785156
aF8.506939888000488
aa(lp673
F31.35462760925293
aF200.81996154785156
aF8.506985664367676
aa(lp674
F31.354488372802734
aF200.82015991210938
aF8.507006645202637
aa(lp675
F31.354475021362305
aF200.82037353515625
aF8.50692367553711
aa(lp676
F31.35448455810547
aF200.82083129882812
aF8.50692081451416
aa(lp677
F31.354389190673828
aF200.82101440429688
aF8.506919860839844
aa(lp678
F31.354297637939453
aF200.82135009765625
aF8.506933212280273
aa(lp679
F31.35416603088379
aF200.8214874267578
aF8.506895065307617
aa(lp680
F31.354001998901367
aF200.82159423828125
aF8.506804466247559
aa(lp681
F31.35381317138672
aF200.8216552734375
aF8.506781578063965
aa(lp682
F31.353811264038086
aF200.82188415527344
aF8.50669002532959
aa(lp683
F31.353702545166016
aF200.82192993164062
aF8.506711959838867
aa(lp684
F31.3536319732666
aF200.8219757080078
aF8.506681442260742
aa(lp685
F31.353519439697266
aF200.82188415527344
aF8.506640434265137
aa(lp686
F31.353364944458008
aF200.82188415527344
aF8.506669998168945
aa(lp687
F31.35318946838379
aF200.82186889648438
aF8.506665229797363
aa(lp688
F31.35295295715332
aF200.8214874267578
aF8.50663948059082
aa(lp689
F31.352783203125
aF200.82135009765625
aF8.50660228729248
aa(lp690
F31.352638244628906
aF200.82131958007812
aF8.506551742553711
aa(lp691
F31.35242462158203
aF200.8211669921875
aF8.506537437438965
aa(lp692
F31.35225486755371
aF200.8212127685547
aF8.50660514831543
aa(lp693
F31.35209846496582
aF200.82125854492188
aF8.506657600402832
aa(lp694
F31.351945877075195
aF200.82125854492188
aF8.506674766540527
aa(lp695
F31.351741790771484
aF200.8213348388672
aF8.50683307647705
aa(lp696
F31.351469039916992
aF200.82102966308594
aF8.50699234008789
aa(lp697
F31.351375579833984
aF200.8209686279297
aF8.50694751739502
aa(lp698
F31.35124397277832
aF200.82095336914062
aF8.506841659545898
aa(lp699
F31.35106086730957
aF200.8208770751953
aF8.506793022155762
aa(lp700
F31.350902557373047
aF200.82086181640625
aF8.506717681884766
aa(lp701
F31.350746154785156
aF200.8207244873047
aF8.506706237792969
aa(lp702
F31.3505859375
aF200.8206024169922
aF8.506743431091309
aa(lp703
F31.350414276123047
aF200.8204803466797
aF8.506743431091309
aa(lp704
F31.350200653076172
aF200.8202362060547
aF8.506767272949219
aa(lp705
F31.350013732910156
aF200.8201904296875
aF8.50678539276123
aa(lp706
F31.349794387817383
aF200.82015991210938
aF8.506794929504395
aa(lp707
F31.349613189697266
aF200.8202667236328
aF8.506743431091309
aa(lp708
F31.349437713623047
aF200.82040405273438
aF8.506733894348145
aa(lp709
F31.34929084777832
aF200.8205108642578
aF8.506729125976562
aa(lp710
F31.349105834960938
aF200.8204803466797
aF8.506743431091309
aa(lp711
F31.34893035888672
aF200.8206329345703
aF8.506802558898926
aa(lp712
F31.348751068115234
aF200.82069396972656
aF8.506821632385254
aa(lp713
F31.348587036132812
aF200.82089233398438
aF8.506857872009277
aa(lp714
F31.34842872619629
aF200.82107543945312
aF8.506869316101074
aa(lp715
F31.34827423095703
aF200.82122802734375
aF8.506823539733887
aa(lp716
F31.3481502532959
aF200.8214874267578
aF8.506745338439941
aa(lp717
F31.348140716552734
aF200.82168579101562
aF8.506599426269531
aa(lp718
F31.348060607910156
aF200.82179260253906
aF8.506542205810547
aa(lp719
F31.347990036010742
aF200.82179260253906
aF8.50650405883789
aa(lp720
F31.3478946685791
aF200.82188415527344
aF8.50656509399414
aa(lp721
F31.347801208496094
aF200.8222198486328
aF8.506685256958008
aa(lp722
F31.347736358642578
aF200.822509765625
aF8.5067777633667
aa(lp723
F31.34766387939453
aF200.82281494140625
aF8.50686264038086
aa(lp724
F31.34755516052246
aF200.8229217529297
aF8.506887435913086
aa(lp725
F31.347442626953125
aF200.822998046875
aF8.506929397583008
aa(lp726
F31.347352981567383
aF200.8231658935547
aF8.507018089294434
aa(lp727
F31.347251892089844
aF200.82318115234375
aF8.507071495056152
aa(lp728
F31.34734344482422
aF200.82325744628906
aF8.506922721862793
aa(lp729
F31.34737205505371
aF200.82333374023438
aF8.506840705871582
aa(lp730
F31.347360610961914
aF200.8234100341797
aF8.506783485412598
aa(lp731
F31.347320556640625
aF200.82327270507812
aF8.506674766540527
aa(lp732
F31.347227096557617
aF200.8231201171875
aF8.50657844543457
aa(lp733
F31.34727668762207
aF200.82318115234375
aF8.506363868713379
aa(lp734
F31.347347259521484
aF200.82296752929688
aF8.506144523620605
aa(lp735
F31.34739875793457
aF200.82327270507812
aF8.506006240844727
aa(lp736
F31.347366333007812
aF200.82339477539062
aF8.505849838256836
aa(lp737
F31.3472957611084
aF200.82347106933594
aF8.50570011138916
aa(lp738
F31.34717559814453
aF200.8231964111328
aF8.505579948425293
aa(lp739
F31.34701919555664
aF200.82286071777344
aF8.505498886108398
aa(lp740
F31.346851348876953
aF200.822509765625
aF8.505508422851562
aa(lp741
F31.346633911132812
aF200.82211303710938
aF8.50549602508545
aa(lp742
F31.346637725830078
aF200.8220672607422
aF8.505379676818848
aa(lp743
F31.346567153930664
aF200.82171630859375
aF8.505281448364258
aa(lp744
F31.346446990966797
aF200.82139587402344
aF8.505291938781738
aa(lp745
F31.346317291259766
aF200.8211212158203
aF8.505231857299805
aa(lp746
F31.346187591552734
aF200.82113647460938
aF8.505232810974121
aa(lp747
F31.346054077148438
aF200.8210906982422
aF8.50524616241455
aa(lp748
F31.346071243286133
aF200.8210906982422
aF8.505149841308594
aa(lp749
F31.345996856689453
aF200.82080078125
aF8.50513744354248
aa(lp750
F31.345884323120117
aF200.82061767578125
aF8.505143165588379
aa(lp751
F31.34593391418457
aF200.8206329345703
aF8.505008697509766
aa(lp752
F31.345890045166016
aF200.82054138183594
aF8.504871368408203
aa(lp753
F31.345998764038086
aF200.82061767578125
aF8.504538536071777
aa(lp754
F31.34600830078125
aF200.82058715820312
aF8.504385948181152
aa(lp755
F31.346141815185547
aF200.8206787109375
aF8.504108428955078
aa(lp756
F31.346145629882812
aF200.82049560546875
aF8.503872871398926
aa(lp757
F31.346036911010742
aF200.82005310058594
aF8.503684043884277
aa(lp758
F31.346050262451172
aF200.81982421875
aF8.503456115722656
aa(lp759
F31.346004486083984
aF200.81979370117188
aF8.503387451171875
aa(lp760
F31.3459415435791
aF200.81979370117188
aF8.503348350524902
aa(lp761
F31.345842361450195
aF200.8197784423828
aF8.503376007080078
aa(lp762
F31.34566307067871
aF200.81961059570312
aF8.503486633300781
aa(lp763
F31.345544815063477
aF200.8193817138672
aF8.503533363342285
aa(lp764
F31.345365524291992
aF200.81910705566406
aF8.503668785095215
aa(lp765
F31.34517478942871
aF200.81874084472656
aF8.503705978393555
aa(lp766
F31.34498405456543
aF200.81851196289062
aF8.503785133361816
aa(lp767
F31.344776153564453
aF200.81802368164062
aF8.503787994384766
aa(lp768
F31.344600677490234
aF200.8177947998047
aF8.503837585449219
aa(lp769
F31.344650268554688
aF200.81777954101562
aF8.503747940063477
aa(lp770
F31.34461784362793
aF200.81787109375
aF8.503775596618652
aa(lp771
F31.344722747802734
aF200.81820678710938
aF8.503687858581543
aa(lp772
F31.344745635986328
aF200.81829833984375
aF8.503629684448242
aa(lp773
F31.34476089477539
aF200.81834411621094
aF8.50351619720459
aa(lp774
F31.34467315673828
aF200.8182373046875
aF8.503532409667969
aa(lp775
F31.34461212158203
aF200.81837463378906
aF8.503457069396973
aa(lp776
F31.3443546295166
aF200.81874084472656
aF8.503250122070312
aa(lp777
F31.34430503845215
aF200.8190460205078
aF8.503240585327148
aa(lp778
F31.344161987304688
aF200.8188934326172
aF8.50330638885498
aa(lp779
F31.343997955322266
aF200.81875610351562
aF8.503384590148926
aa(lp780
F31.343852996826172
aF200.8187713623047
aF8.50341796875
aa(lp781
F31.34372329711914
aF200.81886291503906
aF8.503463745117188
aa(lp782
F31.343528747558594
aF200.81869506835938
aF8.503523826599121
aa(lp783
F31.343536376953125
aF200.81886291503906
aF8.503479957580566
aa(lp784
F31.343435287475586
aF200.8187255859375
aF8.503524780273438
aa(lp785
F31.34334373474121
aF200.81845092773438
aF8.503521919250488
aa(lp786
F31.343393325805664
aF200.81829833984375
aF8.503364562988281
aa(lp787
F31.343568801879883
aF200.81837463378906
aF8.503140449523926
aa(lp788
F31.343666076660156
aF200.81854248046875
aF8.503007888793945
aa(lp789
F31.343650817871094
aF200.8186492919922
aF8.5029296875
aa(lp790
F31.343597412109375
aF200.818603515625
aF8.502881050109863
aa(lp791
F31.34351348876953
aF200.81874084472656
aF8.502902030944824
aa(lp792
F31.34356689453125
aF200.8190155029297
aF8.502822875976562
aa(lp793
F31.343524932861328
aF200.81906127929688
aF8.502819061279297
aa(lp794
F31.343482971191406
aF200.81924438476562
aF8.502870559692383
aa(lp795
F31.343421936035156
aF200.81930541992188
aF8.502859115600586
aa(lp796
F31.343496322631836
aF200.81947326660156
aF8.50273323059082
aa(lp797
F31.343523025512695
aF200.81967163085938
aF8.50265121459961
aa(lp798
F31.343656539916992
aF200.81980895996094
aF8.502449035644531
aa(lp799
F31.34387969970703
aF200.81980895996094
aF8.502154350280762
aa(lp800
F31.34414291381836
aF200.81982421875
aF8.50180721282959
aa(lp801
F31.34427261352539
aF200.81993103027344
aF8.501592636108398
aa(lp802
F31.344375610351562
aF200.82025146484375
aF8.501465797424316
aa(lp803
F31.34436798095703
aF200.8204345703125
aF8.501418113708496
aa(lp804
F31.344364166259766
aF200.82081604003906
aF8.501452445983887
aa(lp805
F31.34433937072754
aF200.82130432128906
aF8.501511573791504
aa(lp806
F31.34425926208496
aF200.82156372070312
aF8.50157356262207
aa(lp807
F31.344160079956055
aF200.82180786132812
aF8.501641273498535
aa(lp808
F31.344043731689453
aF200.8219451904297
aF8.501766204833984
aa(lp809
F31.344058990478516
aF200.82191467285156
aF8.50165843963623
aa(lp810
F31.3439998626709
aF200.82156372070312
aF8.501556396484375
aa(lp811
F31.344058990478516
aF200.82139587402344
aF8.501387596130371
aa(lp812
F31.34406852722168
aF200.82142639160156
aF8.50131893157959
aa(lp813
F31.344003677368164
aF200.8214111328125
aF8.501294136047363
aa(lp814
F31.343894958496094
aF200.8212890625
aF8.50125503540039
aa(lp815
F31.343996047973633
aF200.82144165039062
aF8.501081466674805
aa(lp816
F31.34401512145996
aF200.8216094970703
aF8.500951766967773
aa(lp817
F31.343984603881836
aF200.82159423828125
aF8.50093936920166
aa(lp818
F31.34395408630371
aF200.8217315673828
aF8.500911712646484
aa(lp819
F31.344106674194336
aF200.82205200195312
aF8.500737190246582
aa(lp820
F31.34429931640625
aF200.8223114013672
aF8.500529289245605
aa(lp821
F31.344383239746094
aF200.82217407226562
aF8.500345230102539
aa(lp822
F31.344589233398438
aF200.8222198486328
aF8.500128746032715
aa(lp823
F31.344785690307617
aF200.82191467285156
aF8.499836921691895
aa(lp824
F31.34491539001465
aF200.8218536376953
aF8.49972152709961
aa(lp825
F31.34497833251953
aF200.82174682617188
aF8.499631881713867
aa(lp826
F31.344938278198242
aF200.82156372070312
aF8.499662399291992
aa(lp827
F31.345081329345703
aF200.82168579101562
aF8.499502182006836
aa(lp828
F31.34510612487793
aF200.82177734375
aF8.499412536621094
aa(lp829
F31.345121383666992
aF200.8218994140625
aF8.499326705932617
aa(lp830
F31.345218658447266
aF200.822021484375
aF8.499185562133789
aa(lp831
F31.345216751098633
aF200.82191467285156
aF8.499066352844238
aa(lp832
F31.345367431640625
aF200.8221893310547
aF8.498899459838867
aa(lp833
F31.34536361694336
aF200.82225036621094
aF8.49886417388916
aa(lp834
F31.345382690429688
aF200.8223419189453
aF8.498855590820312
aa(lp835
F31.345321655273438
aF200.82247924804688
aF8.49887466430664
aa(lp836
F31.345239639282227
aF200.82241821289062
aF8.498842239379883
aa(lp837
F31.345075607299805
aF200.82208251953125
aF8.498868942260742
aa(lp838
F31.344934463500977
aF200.82200622558594
aF8.49892520904541
aa(lp839
F31.344728469848633
aF200.82168579101562
aF8.49896240234375
aa(lp840
F31.344472885131836
aF200.82125854492188
aF8.49902057647705
aa(lp841
F31.344223022460938
aF200.8208465576172
aF8.499088287353516
aa(lp842
F31.343969345092773
aF200.82052612304688
aF8.499186515808105
aa(lp843
F31.343753814697266
aF200.82044982910156
aF8.499293327331543
aa(lp844
F31.343507766723633
aF200.82022094726562
aF8.499390602111816
aa(lp845
F31.343503952026367
aF200.8203887939453
aF8.499384880065918
aa(lp846
F31.34342384338379
aF200.8204803466797
aF8.499494552612305
aa(lp847
F31.343505859375
aF200.82077026367188
aF8.499452590942383
aa(lp848
F31.343515396118164
aF200.82080078125
aF8.499408721923828
aa(lp849
F31.343442916870117
aF200.82069396972656
aF8.499410629272461
aa(lp850
F31.34332847595215
aF200.82080078125
aF8.499539375305176
aa(lp851
F31.343347549438477
aF200.8208770751953
aF8.49954891204834
aa(lp852
F31.343358993530273
aF200.8210906982422
aF8.49951457977295
aa(lp853
F31.343320846557617
aF200.8210906982422
aF8.499502182006836
aa(lp854
F31.343345642089844
aF200.82127380371094
aF8.499451637268066
aa(lp855
F31.343326568603516
aF200.8214111328125
aF8.499399185180664
aa(lp856
F31.34325408935547
aF200.82159423828125
aF8.49942398071289
aa(lp857
F31.343101501464844
aF200.82168579101562
aF8.499452590942383
aa(lp858
F31.342945098876953
aF200.82199096679688
aF8.499571800231934
aa(lp859
F31.343015670776367
aF200.8223419189453
aF8.499417304992676
aa(lp860
F31.34321403503418
aF200.82278442382812
aF8.499166488647461
aa(lp861
F31.343307495117188
aF200.82305908203125
aF8.499032974243164
aa(lp862
F31.34334373474121
aF200.8234405517578
aF8.499055862426758
aa(lp863
F31.343273162841797
aF200.8236083984375
aF8.499091148376465
aa(lp864
F31.34317970275879
aF200.8236846923828
aF8.499100685119629
aa(lp865
F31.343244552612305
aF200.8238983154297
aF8.49896240234375
aa(lp866
F31.3432559967041
aF200.8242950439453
aF8.49889087677002
aa(lp867
F31.343433380126953
aF200.82485961914062
aF8.498732566833496
aa(lp868
F31.343482971191406
aF200.8251190185547
aF8.498623847961426
aa(lp869
F31.343488693237305
aF200.82533264160156
aF8.498659133911133
aa(lp870
F31.343414306640625
aF200.82534790039062
aF8.498679161071777
aa(lp871
F31.3435115814209
aF200.8255615234375
aF8.498587608337402
aa(lp872
F31.343528747558594
aF200.82579040527344
aF8.498523712158203
aa(lp873
F31.343656539916992
aF200.82601928710938
aF8.498333930969238
aa(lp874
F31.343706130981445
aF200.82620239257812
aF8.498282432556152
aa(lp875
F31.343751907348633
aF200.82647705078125
aF8.49824333190918
aa(lp876
F31.343690872192383
aF200.82666015625
aF8.498329162597656
aa(lp877
F31.34370231628418
aF200.82667541503906
aF8.498249053955078
aa(lp878
F31.34368133544922
aF200.82675170898438
aF8.498205184936523
aa(lp879
F31.34359359741211
aF200.82656860351562
aF8.498159408569336
aa(lp880
F31.343460083007812
aF200.8263702392578
aF8.498228073120117
aa(lp881
F31.34331512451172
aF200.82601928710938
aF8.498189926147461
aa(lp882
F31.34316635131836
aF200.82582092285156
aF8.498164176940918
aa(lp883
F31.343027114868164
aF200.82568359375
aF8.498173713684082
aa(lp884
F31.342844009399414
aF200.82528686523438
aF8.498165130615234
aa(lp885
F31.342679977416992
aF200.8250732421875
aF8.498167037963867
aa(lp886
F31.342540740966797
aF200.82504272460938
aF8.498215675354004
aa(lp887
F31.34238052368164
aF200.82493591308594
aF8.49825668334961
aa(lp888
F31.34224510192871
aF200.82484436035156
aF8.498295783996582
aa(lp889
F31.34215545654297
aF200.82484436035156
aF8.498311042785645
aa(lp890
F31.342071533203125
aF200.82464599609375
aF8.498286247253418
aa(lp891
F31.342084884643555
aF200.82420349121094
aF8.49809741973877
aa(lp892
F31.342018127441406
aF200.82371520996094
aF8.497979164123535
aa(lp893
F31.341943740844727
aF200.8235321044922
aF8.497933387756348
aa(lp894
F31.34185218811035
aF200.823486328125
aF8.497952461242676
aa(lp895
F31.341644287109375
aF200.82308959960938
aF8.4979829788208
aa(lp896
F31.341468811035156
aF200.8229217529297
aF8.49807071685791
aa(lp897
F31.341468811035156
aF200.82281494140625
aF8.497989654541016
aa(lp898
F31.341388702392578
aF200.8226318359375
aF8.497913360595703
aa(lp899
F31.341331481933594
aF200.82228088378906
aF8.497812271118164
aa(lp900
F31.341215133666992
aF200.8220672607422
aF8.497827529907227
aa(lp901
F31.340988159179688
aF200.8223419189453
aF8.49785041809082
aa(lp902
F31.340864181518555
aF200.82232666015625
aF8.497956275939941
aa(lp903
F31.340709686279297
aF200.82217407226562
aF8.498072624206543
aa(lp904
F31.340578079223633
aF200.82208251953125
aF8.498181343078613
aa(lp905
F31.34037971496582
aF200.82191467285156
aF8.498284339904785
aa(lp906
F31.34025001525879
aF200.82192993164062
aF8.498414039611816
aa(lp907
F31.340288162231445
aF200.82215881347656
aF8.498462677001953
aa(lp908
F31.340272903442383
aF200.82232666015625
aF8.49855899810791
aa(lp909
F31.340394973754883
aF200.82254028320312
aF8.498468399047852
aa(lp910
F31.340669631958008
aF200.8230743408203
aF8.498278617858887
aa(lp911
F31.340808868408203
aF200.823486328125
aF8.498113632202148
aa(lp912
F31.340890884399414
aF200.8237762451172
aF8.498043060302734
aa(lp913
F31.3410587310791
aF200.8238525390625
aF8.497843742370605
aa(lp914
F31.341123580932617
aF200.82395935058594
aF8.497796058654785
aa(lp915
F31.341129302978516
aF200.82398986816406
aF8.497817039489746
aa(lp916
F31.34123992919922
aF200.8240966796875
aF8.497793197631836
aa(lp917
F31.34126853942871
aF200.8243408203125
aF8.497879981994629
aa(lp918
F31.34147834777832
aF200.82476806640625
aF8.497849464416504
aa(lp919
F31.341577529907227
aF200.82492065429688
aF8.497823715209961
aa(lp920
F31.341794967651367
aF200.82533264160156
aF8.497733116149902
aa(lp921
F31.34192657470703
aF200.82574462890625
aF8.497682571411133
aa(lp922
F31.341928482055664
aF200.825927734375
aF8.497725486755371
aa(lp923
F31.341854095458984
aF200.8258819580078
aF8.497798919677734
aa(lp924
F31.341978073120117
aF200.82611083984375
aF8.49773120880127
aa(lp925
F31.3420352935791
aF200.82635498046875
aF8.497714042663574
aa(lp926
F31.342029571533203
aF200.82656860351562
aF8.49779987335205
aa(lp927
F31.342010498046875
aF200.82681274414062
aF8.497901916503906
aa(lp928
F31.342126846313477
aF200.82708740234375
aF8.497869491577148
aa(lp929
F31.342151641845703
aF200.82733154296875
aF8.497871398925781
aa(lp930
F31.342098236083984
aF200.82723999023438
aF8.497928619384766
aa(lp931
F31.34201431274414
aF200.82716369628906
aF8.498018264770508
aa(lp932
F31.34189224243164
aF200.82711791992188
aF8.49819278717041
aa(lp933
F31.3418025970459
aF200.82705688476562
aF8.498311996459961
aa(lp934
F31.341676712036133
aF200.8268585205078
aF8.49838638305664
aa(lp935
F31.34157943725586
aF200.82656860351562
aF8.49836254119873
aa(lp936
F31.341642379760742
aF200.82667541503906
aF8.498260498046875
aa(lp937
F31.341596603393555
aF200.82681274414062
aF8.498311042785645
aa(lp938
F31.341537475585938
aF200.82687377929688
aF8.498345375061035
aa(lp939
F31.34140396118164
aF200.82667541503906
aF8.498461723327637
aa(lp940
F31.341257095336914
aF200.82630920410156
aF8.498488426208496
aa(lp941
F31.34125328063965
aF200.82582092285156
aF8.498360633850098
aa(lp942
F31.34120750427246
aF200.82554626464844
aF8.49829387664795
aa(lp943
F31.341114044189453
aF200.82545471191406
aF8.498363494873047
aa(lp944
F31.341209411621094
aF200.8254852294922
aF8.498279571533203
aa(lp945
F31.341236114501953
aF200.82559204101562
aF8.498218536376953
aa(lp946
F31.34120750427246
aF200.82579040527344
aF8.498223304748535
aa(lp947
F31.341136932373047
aF200.82595825195312
aF8.498307228088379
aa(lp948
F31.341115951538086
aF200.82606506347656
aF8.49832534790039
aa(lp949
F31.341020584106445
aF200.825927734375
aF8.498373031616211
aa(lp950
F31.34088134765625
aF200.82583618164062
aF8.498434066772461
aa(lp951
F31.340757369995117
aF200.82589721679688
aF8.498541831970215
aa(lp952
F31.340648651123047
aF200.82608032226562
aF8.498631477355957
aa(lp953
F31.34073257446289
aF200.82632446289062
aF8.498580932617188
aa(lp954
F31.340749740600586
aF200.82667541503906
aF8.49865436553955
aa(lp955
F31.340776443481445
aF200.82711791992188
aF8.498713493347168
aa(lp956
F31.340782165527344
aF200.8275146484375
aF8.498779296875
aa(lp957
F31.34070587158203
aF200.8276824951172
aF8.498955726623535
aa(lp958
F31.34063148498535
aF200.82781982421875
aF8.4990816116333
aa(lp959
F31.34054183959961
aF200.82797241210938
aF8.499266624450684
aa(lp960
F31.340394973754883
aF200.82798767089844
aF8.499519348144531
aa(lp961
F31.340404510498047
aF200.82806396484375
aF8.499592781066895
aa(lp962
F31.34039878845215
aF200.8283233642578
aF8.49959945678711
aa(lp963
F31.340349197387695
aF200.82847595214844
aF8.499664306640625
aa(lp964
F31.340238571166992
aF200.82850646972656
aF8.499680519104004
aa(lp965
F31.340293884277344
aF200.8288116455078
aF8.499618530273438
aa(lp966
F31.340452194213867
aF200.82928466796875
aF8.499493598937988
aa(lp967
F31.3405704498291
aF200.82974243164062
aF8.499422073364258
aa(lp968
F31.340604782104492
aF200.83009338378906
aF8.499459266662598
aa(lp969
F31.34071922302246
aF200.83033752441406
aF8.499383926391602
aa(lp970
F31.34098243713379
aF200.83074951171875
aF8.499177932739258
aa(lp971
F31.34105110168457
aF200.83074951171875
aF8.499054908752441
aa(lp972
F31.341228485107422
aF200.83096313476562
aF8.498846054077148
aa(lp973
F31.34130859375
aF200.83108520507812
aF8.498735427856445
aa(lp974
F31.341506958007812
aF200.83135986328125
aF8.498533248901367
aa(lp975
F31.34157371520996
aF200.831298828125
aF8.498396873474121
aa(lp976
F31.341753005981445
aF200.83114624023438
aF8.498144149780273
aa(lp977
F31.341819763183594
aF200.83102416992188
aF8.497969627380371
aa(lp978
F31.34177017211914
aF200.83045959472656
aF8.497904777526855
aa(lp979
F31.341846466064453
aF200.83004760742188
aF8.497762680053711
aa(lp980
F31.341901779174805
aF200.8299560546875
aF8.497681617736816
aa(lp981
F31.341827392578125
aF200.82965087890625
aF8.497661590576172
aa(lp982
F31.341880798339844
aF200.82957458496094
aF8.497529983520508
aa(lp983
F31.341867446899414
aF200.82948303222656
aF8.497458457946777
aa(lp984
F31.34190559387207
aF200.8295440673828
aF8.497352600097656
aa(lp985
F31.341917037963867
aF200.82949829101562
aF8.497278213500977
aa(lp986
F31.34185218811035
aF200.82933044433594
aF8.497230529785156
aa(lp987
F31.34174919128418
aF200.82923889160156
aF8.497261047363281
aa(lp988
F31.341644287109375
aF200.8291778564453
aF8.497349739074707
aa(lp989
F31.34170913696289
aF200.8291778564453
aF8.497230529785156
aa(lp990
F31.341697692871094
aF200.82907104492188
aF8.49722957611084
aa(lp991
F31.341642379760742
aF200.8291473388672
aF8.497210502624512
aa(lp992
F31.34151268005371
aF200.8290557861328
aF8.49726390838623
aa(lp993
F31.341384887695312
aF200.82899475097656
aF8.497278213500977
aa(lp994
F31.341157913208008
aF200.82862854003906
aF8.497427940368652
aa(lp995
F31.340974807739258
aF200.82843017578125
aF8.497528076171875
aa(lp996
F31.34084701538086
aF200.82835388183594
aF8.497566223144531
aa(lp997
F31.340652465820312
aF200.82809448242188
aF8.497716903686523
aa(lp998
F31.340457916259766
aF200.82791137695312
aF8.497849464416504
aa(lp999
F31.340286254882812
aF200.82763671875
aF8.49792766571045
aa(lp1000
F31.34016227722168
aF200.82778930664062
aF8.498027801513672
aa(lp1001
F31.34008026123047
aF200.82810974121094
aF8.498149871826172
aa(lp1002
F31.34007453918457
aF200.82862854003906
aF8.498259544372559
aa(lp1003
F31.339998245239258
aF200.8287811279297
aF8.498291969299316
aa(lp1004
F31.339927673339844
aF200.82907104492188
aF8.49841594696045
aa(lp1005
F31.339824676513672
aF200.82933044433594
aF8.49854850769043
aa(lp1006
F31.339754104614258
aF200.82980346679688
aF8.498639106750488
aa(lp1007
F31.339632034301758
aF200.82984924316406
aF8.498697280883789
aa(lp1008
F31.339509963989258
aF200.83001708984375
aF8.498810768127441
aa(lp1009
F31.33954429626465
aF200.8301239013672
aF8.498779296875
aa(lp1010
F31.33953857421875
aF200.82997131347656
aF8.498700141906738
aa(lp1011
F31.33945083618164
aF200.82980346679688
aF8.498750686645508
aa(lp1012
F31.339338302612305
aF200.82949829101562
aF8.49870491027832
aa(lp1013
F31.33922576904297
aF200.82936096191406
aF8.498678207397461
aa(lp1014
F31.339109420776367
aF200.82908630371094
aF8.498650550842285
aa(lp1015
F31.338958740234375
aF200.82888793945312
aF8.498627662658691
aa(lp1016
F31.338848114013672
aF200.82882690429688
aF8.498661041259766
aa(lp1017
F31.33880615234375
aF200.82887268066406
aF8.498723983764648
aa(lp1018
F31.3387393951416
aF200.82879638671875
aF8.498741149902344
aa(lp1019
F31.338642120361328
aF200.82879638671875
aF8.498767852783203
aa(lp1020
F31.3384952545166
aF200.82872009277344
aF8.49881649017334
aa(lp1021
F31.338520050048828
aF200.8287811279297
aF8.498711585998535
aa(lp1022
F31.338499069213867
aF200.82875061035156
aF8.498625755310059
aa(lp1023
F31.33843994140625
aF200.82858276367188
aF8.498568534851074
aa(lp1024
F31.33835792541504
aF200.82850646972656
aF8.498586654663086
aa(lp1025
F31.338401794433594
aF200.8284912109375
aF8.49850082397461
aa(lp1026
F31.338457107543945
aF200.82855224609375
aF8.498525619506836
aa(lp1027
F31.338603973388672
aF200.8288116455078
aF8.498493194580078
aa(lp1028
F31.338623046875
aF200.82901000976562
aF8.498536109924316
aa(lp1029
F31.33861541748047
aF200.8292236328125
aF8.498568534851074
aa(lp1030
F31.338544845581055
aF200.8292999267578
aF8.498677253723145
aa(lp1031
F31.338468551635742
aF200.8293914794922
aF8.498703956604004
aa(lp1032
F31.33831787109375
aF200.82923889160156
aF8.49876594543457
aa(lp1033
F31.338226318359375
aF200.82949829101562
aF8.49882984161377
aa(lp1034
F31.338092803955078
aF200.82960510253906
aF8.498918533325195
aa(lp1035
F31.337940216064453
aF200.82945251464844
aF8.498885154724121
aa(lp1036
F31.337865829467773
aF200.82936096191406
aF8.498824119567871
aa(lp1037
F31.33774757385254
aF200.82931518554688
aF8.498920440673828
aa(lp1038
F31.337810516357422
aF200.82949829101562
aF8.498818397521973
aa(lp1039
F31.337860107421875
aF200.82981872558594
aF8.49881649017334
aa(lp1040
F31.33802604675293
aF200.83026123046875
aF8.498759269714355
aa(lp1041
F31.338268280029297
aF200.83065795898438
aF8.498604774475098
aa(lp1042
F31.338367462158203
aF200.83082580566406
aF8.498538970947266
aa(lp1043
F31.33837890625
aF200.8308563232422
aF8.498458862304688
aa(lp1044
F31.33833885192871
aF200.830810546875
aF8.498493194580078
aa(lp1045
F31.33827018737793
aF200.83094787597656
aF8.498610496520996
aa(lp1046
F31.33812141418457
aF200.83065795898438
aF8.498678207397461
aa(lp1047
F31.337980270385742
aF200.83038330078125
aF8.49878215789795
aa(lp1048
F31.337833404541016
aF200.8301239013672
aF8.498902320861816
aa(lp1049
F31.337690353393555
aF200.83004760742188
aF8.499027252197266
aa(lp1050
F31.33753776550293
aF200.8297576904297
aF8.499093055725098
aa(lp1051
F31.337398529052734
aF200.82940673828125
aF8.499122619628906
aa(lp1052
F31.337223052978516
aF200.8291015625
aF8.499234199523926
aa(lp1053
F31.337072372436523
aF200.82888793945312
aF8.499341011047363
aa(lp1054
F31.33710289001465
aF200.82891845703125
aF8.499321937561035
aa(lp1055
F31.337129592895508
aF200.82888793945312
aF8.499261856079102
aa(lp1056
F31.337127685546875
aF200.82891845703125
aF8.499221801757812
aa(lp1057
F31.337066650390625
aF200.82904052734375
aF8.499215126037598
aa(lp1058
F31.33699607849121
aF200.82913208007812
aF8.499262809753418
aa(lp1059
F31.336912155151367
aF200.829345703125
aF8.499334335327148
aa(lp1060
F31.336814880371094
aF200.82955932617188
aF8.499406814575195
aa(lp1061
F31.33673667907715
aF200.82965087890625
aF8.499418258666992
aa(lp1062
F31.336641311645508
aF200.8297119140625
aF8.499445915222168
aa(lp1063
F31.336528778076172
aF200.82969665527344
aF8.499436378479004
aa(lp1064
F31.336488723754883
aF200.8298797607422
aF8.49942398071289
aa(lp1065
F31.336437225341797
aF200.8301239013672
aF8.499459266662598
aa(lp1066
F31.336410522460938
aF200.8302459716797
aF8.499496459960938
aa(lp1067
F31.336559295654297
aF200.8305206298828
aF8.499322891235352
aa(lp1068
F31.336769104003906
aF200.83065795898438
aF8.499082565307617
aa(lp1069
F31.33702278137207
aF200.83067321777344
aF8.498735427856445
aa(lp1070
F31.337146759033203
aF200.83067321777344
aF8.49848747253418
aa(lp1071
F31.337175369262695
aF200.83065795898438
aF8.498340606689453
aa(lp1072
F31.337200164794922
aF200.83078002929688
aF8.498210906982422
aa(lp1073
F31.33716583251953
aF200.83087158203125
aF8.498146057128906
aa(lp1074
F31.337081909179688
aF200.83078002929688
aF8.498147964477539
aa(lp1075
F31.336942672729492
aF200.83079528808594
aF8.498218536376953
aa(lp1076
F31.336790084838867
aF200.8307647705078
aF8.498273849487305
aa(lp1077
F31.336692810058594
aF200.8306884765625
aF8.498265266418457
aa(lp1078
F31.336498260498047
aF200.83035278320312
aF8.498377799987793
aa(lp1079
F31.336502075195312
aF200.83030700683594
aF8.498364448547363
aa(lp1080
F31.336454391479492
aF200.83029174804688
aF8.498444557189941
aa(lp1081
F31.336406707763672
aF200.83035278320312
aF8.498483657836914
aa(lp1082
F31.33635139465332
aF200.83038330078125
aF8.498520851135254
aa(lp1083
F31.336292266845703
aF200.83029174804688
aF8.498581886291504
aa(lp1084
F31.336181640625
aF200.830078125
aF8.498652458190918
aa(lp1085
F31.3360538482666
aF200.82992553710938
aF8.498674392700195
aa(lp1086
F31.33594512939453
aF200.82974243164062
aF8.498649597167969
aa(lp1087
F31.335847854614258
aF200.82968139648438
aF8.498675346374512
aa(lp1088
F31.33574104309082
aF200.8295440673828
aF8.498652458190918
aa(lp1089
F31.335641860961914
aF200.82937622070312
aF8.498644828796387
aa(lp1090
F31.33553695678711
aF200.8295135498047
aF8.498680114746094
aa(lp1091
F31.33551025390625
aF200.82965087890625
aF8.498726844787598
aa(lp1092
F31.33563232421875
aF200.82981872558594
aF8.4985933303833
aa(lp1093
F31.33588981628418
aF200.8301544189453
aF8.498312950134277
aa(lp1094
F31.33616828918457
aF200.83042907714844
aF8.49799633026123
aa(lp1095
F31.336349487304688
aF200.83078002929688
aF8.497835159301758
aa(lp1096
F31.3364315032959
aF200.8307647705078
aF8.497703552246094
aa(lp1097
F31.336498260498047
aF200.83079528808594
aF8.497581481933594
aa(lp1098
F31.336545944213867
aF200.83082580566406
aF8.497443199157715
aa(lp1099
F31.336549758911133
aF200.83071899414062
aF8.497322082519531
aa(lp1100
F31.33643341064453
aF200.83033752441406
aF8.497255325317383
aa(lp1101
F31.33637237548828
aF200.83010864257812
aF8.497159957885742
aa(lp1102
F31.336320877075195
aF200.83018493652344
aF8.497112274169922
aa(lp1103
F31.33623504638672
aF200.83021545410156
aF8.497056007385254
aa(lp1104
F31.336151123046875
aF200.83023071289062
aF8.497014999389648
aa(lp1105
F31.3360538482666
aF200.83016967773438
aF8.4970064163208
aa(lp1106
F31.335952758789062
aF200.83001708984375
aF8.49699878692627
aa(lp1107
F31.335798263549805
aF200.82969665527344
aF8.497014999389648
aa(lp1108
F31.335708618164062
aF200.8296661376953
aF8.496981620788574
aa(lp1109
F31.335620880126953
aF200.8296356201172
aF8.49695873260498
aa(lp1110
F31.335481643676758
aF200.82955932617188
aF8.496981620788574
aa(lp1111
F31.335378646850586
aF200.8292694091797
aF8.496896743774414
aa(lp1112
F31.335315704345703
aF200.82919311523438
aF8.496831893920898
aa(lp1113
F31.335369110107422
aF200.8289794921875
aF8.496634483337402
aa(lp1114
F31.335386276245117
aF200.82891845703125
aF8.496508598327637
aa(lp1115
F31.335298538208008
aF200.82870483398438
aF8.496539115905762
aa(lp1116
F31.335227966308594
aF200.8285369873047
aF8.496488571166992
aa(lp1117
F31.33527183532715
aF200.82843017578125
aF8.496325492858887
aa(lp1118
F31.33529281616211
aF200.82859802246094
aF8.49622917175293
aa(lp1119
F31.335275650024414
aF200.8288116455078
aF8.496192932128906
aa(lp1120
F31.33521842956543
aF200.8291015625
aF8.496232986450195
aa(lp1121
F31.335142135620117
aF200.8292236328125
aF8.496315002441406
aa(lp1122
F31.335023880004883
aF200.8293914794922
aF8.49643611907959
aa(lp1123
F31.33502960205078
aF200.82955932617188
aF8.496395111083984
aa(lp1124
F31.335166931152344
aF200.8298797607422
aF8.496267318725586
aa(lp1125
F31.335241317749023
aF200.8301544189453
aF8.496185302734375
aa(lp1126
F31.335243225097656
aF200.83001708984375
aF8.496087074279785
aa(lp1127
F31.335237503051758
aF200.830078125
aF8.4960355758667
aa(lp1128
F31.33517074584961
aF200.8301544189453
aF8.496037483215332
aa(lp1129
F31.3348445892334
aF200.8299560546875
aF8.496491432189941
aa(lp1130
F31.334884643554688
aF200.83004760742188
aF8.496562004089355
aa(lp1131
F31.33509635925293
aF200.830322265625
aF8.496434211730957
aa(lp1132
F31.335351943969727
aF200.83055114746094
aF8.496207237243652
aa(lp1133
F31.335695266723633
aF200.83106994628906
aF8.495962142944336
aa(lp1134
F31.33589744567871
aF200.8314208984375
aF8.495912551879883
aa(lp1135
F31.336044311523438
aF200.83180236816406
aF8.495857238769531
aa(lp1136
F31.336095809936523
aF200.83218383789062
aF8.495871543884277
aa(lp1137
F31.33629035949707
aF200.83250427246094
aF8.49574089050293
aa(lp1138
F31.33656883239746
aF200.8330841064453
aF8.49555778503418
aa(lp1139
F31.33690643310547
aF200.8335418701172
aF8.495326042175293
aa(lp1140
F31.33710289001465
aF200.83389282226562
aF8.495207786560059
aa(lp1141
F31.337324142456055
aF200.83407592773438
aF8.495031356811523
aa(lp1142
F31.33747673034668
aF200.83419799804688
aF8.494894027709961
aa(lp1143
F31.337562561035156
aF200.8342742919922
aF8.4948148727417
aa(lp1144
F31.33757781982422
aF200.83409118652344
aF8.49470329284668
aa(lp1145
F31.337602615356445
aF200.83404541015625
aF8.49463176727295
aa(lp1146
F31.33759307861328
aF200.83395385742188
aF8.494600296020508
aa(lp1147
F31.337684631347656
aF200.833984375
aF8.494481086730957
aa(lp1148
F31.337787628173828
aF200.83419799804688
aF8.494349479675293
aa(lp1149
F31.33790397644043
aF200.83457946777344
aF8.49425983428955
aa(lp1150
F31.338167190551758
aF200.83587646484375
aF8.494104385375977
aa(lp1151
F31.338193893432617
aF200.8360595703125
aF8.494053840637207
aa(lp1152
F31.338171005249023
aF200.8362274169922
aF8.49407958984375
aa(lp1153
F31.33808135986328
aF200.83615112304688
aF8.494206428527832
aa(lp1154
F31.337921142578125
aF200.83602905273438
aF8.494287490844727
aa(lp1155
F31.33795166015625
aF200.83612060546875
aF8.494179725646973
aa(lp1156
F31.337953567504883
aF200.83609008789062
aF8.49411678314209
aa(lp1157
F31.337923049926758
aF200.8361053466797
aF8.494147300720215
aa(lp1158
F31.33786964416504
aF200.83604431152344
aF8.494142532348633
aa(lp1159
F31.337928771972656
aF200.83621215820312
aF8.494037628173828
aa(lp1160
F31.337900161743164
aF200.8358917236328
aF8.493914604187012
aa(lp1161
F31.3378849029541
aF200.8358154296875
aF8.493927001953125
aa(lp1162
F31.337852478027344
aF200.83560180664062
aF8.493934631347656
aa(lp1163
F31.33783531188965
aF200.8355712890625
aF8.493915557861328
aa(lp1164
F31.337825775146484
aF200.83567810058594
aF8.4939603805542
aa(lp1165
F31.33774185180664
aF200.83563232421875
aF8.494083404541016
aa(lp1166
F31.337709426879883
aF200.83572387695312
aF8.494142532348633
aa(lp1167
F31.337614059448242
aF200.83572387695312
aF8.494202613830566
aa(lp1168
F31.337566375732422
aF200.83599853515625
aF8.494216918945312
aa(lp1169
F31.337507247924805
aF200.83604431152344
aF8.494145393371582
aa(lp1170
F31.337610244750977
aF200.8362579345703
aF8.494000434875488
aa(lp1171
F31.337785720825195
aF200.83619689941406
aF8.493780136108398
aa(lp1172
F31.337846755981445
aF200.8361358642578
aF8.493675231933594
aa(lp1173
F31.33782958984375
aF200.83609008789062
aF8.493661880493164
aa(lp1174
F31.337797164916992
aF200.8361053466797
aF8.493719100952148
aa(lp1175
F31.337923049926758
aF200.8363037109375
aF8.493674278259277
aa(lp1176
F31.337997436523438
aF200.83636474609375
aF8.493602752685547
aa(lp1177
F31.33808135986328
aF200.8365020751953
aF8.493538856506348
aa(lp1178
F31.338104248046875
aF200.836669921875
aF8.493563652038574
aa(lp1179
F31.338029861450195
aF200.83663940429688
aF8.49366569519043
aa(lp1180
F31.337923049926758
aF200.8363800048828
aF8.493756294250488
aa(lp1181
F31.337812423706055
aF200.83612060546875
aF8.493825912475586
aa(lp1182
F31.337690353393555
aF200.83583068847656
aF8.493968963623047
aa(lp1183
F31.33776092529297
aF200.8358612060547
aF8.493993759155273
aa(lp1184
F31.337936401367188
aF200.8358154296875
aF8.49382495880127
aa(lp1185
F31.338054656982422
aF200.83578491210938
aF8.493697166442871
aa(lp1186
F31.33807373046875
aF200.83543395996094
aF8.493624687194824
aa(lp1187
F31.33816909790039
aF200.83502197265625
aF8.493471145629883
aa(lp1188
F31.338191986083984
aF200.83489990234375
aF8.493388175964355
aa(lp1189
F31.338171005249023
aF200.834716796875
aF8.493341445922852
aa(lp1190
F31.33814239501953
aF200.83480834960938
aF8.493372917175293
aa(lp1191
F31.338058471679688
aF200.8348388671875
aF8.493510246276855
aa(lp1192
F31.337968826293945
aF200.83493041992188
aF8.493727684020996
aa(lp1193
F31.337890625
aF200.8347930908203
aF8.493857383728027
aa(lp1194
F31.337848663330078
aF200.8349151611328
aF8.493931770324707
aa(lp1195
F31.337749481201172
aF200.83489990234375
aF8.494057655334473
aa(lp1196
F31.33759307861328
aF200.83462524414062
aF8.494241714477539
aa(lp1197
F31.337345123291016
aF200.83421325683594
aF8.49443244934082
aa(lp1198
F31.337142944335938
aF200.83384704589844
aF8.494589805603027
aa(lp1199
F31.33711814880371
aF200.8337860107422
aF8.494627952575684
aa(lp1200
F31.33704948425293
aF200.83349609375
aF8.494654655456543
aa(lp1201
F31.337013244628906
aF200.83328247070312
aF8.494721412658691
aa(lp1202
F31.336898803710938
aF200.8329315185547
aF8.494879722595215
aa(lp1203
F31.336936950683594
aF200.83274841308594
aF8.49487018585205
aa(lp1204
F31.33684730529785
aF200.8323516845703
aF8.494837760925293
aa(lp1205
F31.336830139160156
aF200.83218383789062
aF8.494815826416016
aa(lp1206
F31.336788177490234
aF200.8321075439453
aF8.494811058044434
aa(lp1207
F31.336715698242188
aF200.83192443847656
aF8.4948091506958
aa(lp1208
F31.336572647094727
aF200.8316192626953
aF8.494937896728516
aa(lp1209
F31.33647918701172
aF200.8316192626953
aF8.495060920715332
aa(lp1210
F31.336139678955078
aF200.83119201660156
aF8.4954195022583
aa(lp1211
F31.335813522338867
aF200.83111572265625
aF8.495879173278809
aa(lp1212
F31.33554458618164
aF200.83103942871094
aF8.496243476867676
aa(lp1213
F31.335323333740234
aF200.83091735839844
aF8.496469497680664
aa(lp1214
F31.33535385131836
aF200.83123779296875
aF8.496492385864258
aa(lp1215
F31.335342407226562
aF200.8312530517578
aF8.496463775634766
aa(lp1216
F31.33545684814453
aF200.83140563964844
aF8.496322631835938
aa(lp1217
F31.335506439208984
aF200.8314971923828
aF8.496277809143066
aa(lp1218
F31.335535049438477
aF200.83180236816406
aF8.496235847473145
aa(lp1219
F31.335493087768555
aF200.83163452148438
aF8.496185302734375
aa(lp1220
F31.335460662841797
aF200.8315887451172
aF8.496139526367188
aa(lp1221
F31.33539390563965
aF200.8313751220703
aF8.49611759185791
aa(lp1222
F31.335290908813477
aF200.8312530517578
aF8.496237754821777
aa(lp1223
F31.33517837524414
aF200.8311004638672
aF8.496338844299316
aa(lp1224
F31.3352108001709
aF200.83108520507812
aF8.496320724487305
aa(lp1225
F31.33515739440918
aF200.83091735839844
aF8.496315956115723
aa(lp1226
F31.335079193115234
aF200.8308563232422
aF8.496304512023926
aa(lp1227
F31.33498764038086
aF200.83090209960938
aF8.496269226074219
aa(lp1228
F31.334829330444336
aF200.8305206298828
aF8.496210098266602
aa(lp1229
F31.33486557006836
aF200.8302764892578
aF8.496048927307129
aa(lp1230
F31.334951400756836
aF200.82994079589844
aF8.495810508728027
aa(lp1231
F31.335031509399414
aF200.8299102783203
aF8.495651245117188
aa(lp1232
F31.335063934326172
aF200.83004760742188
aF8.495589256286621
aa(lp1233
F31.335046768188477
aF200.830078125
aF8.495626449584961
aa(lp1234
F31.33500099182129
aF200.83004760742188
aF8.495671272277832
aa(lp1235
F31.334980010986328
aF200.830322265625
aF8.495818138122559
aa(lp1236
F31.33509063720703
aF200.8305206298828
aF8.495859146118164
aa(lp1237
F31.33510398864746
aF200.83053588867188
aF8.495983123779297
aa(lp1238
F31.335063934326172
aF200.83050537109375
aF8.496073722839355
aa(lp1239
F31.334989547729492
aF200.83059692382812
aF8.496192932128906
aa(lp1240
F31.334848403930664
aF200.8304443359375
aF8.496308326721191
aa(lp1241
F31.334678649902344
aF200.8302764892578
aF8.496519088745117
aa(lp1242
F31.334726333618164
aF200.8304443359375
aF8.496586799621582
aa(lp1243
F31.334672927856445
aF200.83050537109375
aF8.496733665466309
aa(lp1244
F31.334657669067383
aF200.8306427001953
aF8.496777534484863
aa(lp1245
F31.334579467773438
aF200.83062744140625
aF8.496907234191895
aa(lp1246
F31.33465576171875
aF200.83087158203125
aF8.496968269348145
aa(lp1247
F31.33456802368164
aF200.83074951171875
aF8.497105598449707
aa(lp1248
F31.334474563598633
aF200.83082580566406
aF8.497244834899902
aa(lp1249
F31.334379196166992
aF200.8311309814453
aF8.49736499786377
aa(lp1250
F31.33429527282715
aF200.8313751220703
aF8.497475624084473
aa(lp1251
F31.334148406982422
aF200.83140563964844
aF8.497662544250488
aa(lp1252
F31.333988189697266
aF200.83120727539062
aF8.49781322479248
aa(lp1253
F31.334083557128906
aF200.83116149902344
aF8.497693061828613
aa(lp1254
F31.334033966064453
aF200.8308868408203
aF8.497727394104004
aa(lp1255
F31.333984375
aF200.83065795898438
aF8.49771785736084
aa(lp1256
F31.33408546447754
aF200.83056640625
aF8.497591018676758
aa(lp1257
F31.334278106689453
aF200.8302001953125
aF8.49732780456543
aa(lp1258
F31.3345947265625
aF200.83004760742188
aF8.497002601623535
aa(lp1259
F31.334814071655273
aF200.82989501953125
aF8.496752738952637
aa(lp1260
F31.334945678710938
aF200.82997131347656
aF8.496580123901367
aa(lp1261
F31.33498764038086
aF200.82994079589844
aF8.496482849121094
aa(lp1262
F31.334989547729492
aF200.82984924316406
aF8.496420860290527
aa(lp1263
F31.335004806518555
aF200.83004760742188
aF8.496395111083984
aa(lp1264
F31.33493995666504
aF200.830078125
aF8.496479034423828
aa(lp1265
F31.334857940673828
aF200.8302459716797
aF8.496586799621582
aa(lp1266
F31.33477020263672
aF200.83041381835938
aF8.496748924255371
aa(lp1267
F31.334869384765625
aF200.83065795898438
aF8.496683120727539
aa(lp1268
F31.334871292114258
aF200.83091735839844
aF8.496767044067383
aa(lp1269
F31.334871292114258
aF200.83143615722656
aF8.496893882751465
aa(lp1270
F31.33498191833496
aF200.831787109375
aF8.496854782104492
aa(lp1271
F31.335012435913086
aF200.83212280273438
aF8.496868133544922
aa(lp1272
F31.335163116455078
aF200.83258056640625
aF8.496748924255371
aa(lp1273
F31.3352108001709
aF200.8329315185547
aF8.496788024902344
aa(lp1274
F31.335269927978516
aF200.83421325683594
aF8.49711799621582
aa(lp1275
F31.335264205932617
aF200.83460998535156
aF8.49724006652832
aa(lp1276
F31.335237503051758
aF200.83494567871094
aF8.497355461120605
aa(lp1277
F31.335201263427734
aF200.83505249023438
aF8.497478485107422
aa(lp1278
F31.33513641357422
aF200.83522033691406
aF8.497608184814453
aa(lp1279
F31.335264205932617
aF200.83566284179688
aF8.497579574584961
aa(lp1280
F31.33526611328125
aF200.83578491210938
aF8.497530937194824
aa(lp1281
F31.335403442382812
aF200.83590698242188
aF8.497356414794922
aa(lp1282
F31.335664749145508
aF200.8362579345703
aF8.497109413146973
aa(lp1283
F31.335783004760742
aF200.8363037109375
aF8.496917724609375
aa(lp1284
F31.335765838623047
aF200.8362274169922
aF8.4968843460083
aa(lp1285
F31.335773468017578
aF200.8361358642578
aF8.49686336517334
aa(lp1286
F31.335731506347656
aF200.8360595703125
aF8.496942520141602
aa(lp1287
F31.335657119750977
aF200.8358154296875
aF8.496996879577637
aa(lp1288
F31.335542678833008
aF200.83567810058594
aF8.497135162353516
aa(lp1289
F31.3354434967041
aF200.835693359375
aF8.497252464294434
aa(lp1290
F31.33531951904297
aF200.8357696533203
aF8.497337341308594
aa(lp1291
F31.335189819335938
aF200.83590698242188
aF8.49752426147461
aa(lp1292
F31.334997177124023
aF200.8356475830078
aF8.497672080993652
aa(lp1293
F31.33486557006836
aF200.8356475830078
aF8.497775077819824
aa(lp1294
F31.334745407104492
aF200.83547973632812
aF8.497830390930176
aa(lp1295
F31.334644317626953
aF200.83526611328125
aF8.497859954833984
aa(lp1296
F31.334548950195312
aF200.8350830078125
aF8.497939109802246
aa(lp1297
F31.334487915039062
aF200.8349151611328
aF8.497984886169434
aa(lp1298
F31.334552764892578
aF200.8347930908203
aF8.497916221618652
aa(lp1299
F31.33458137512207
aF200.83489990234375
aF8.497908592224121
aa(lp1300
F31.334535598754883
aF200.8350372314453
aF8.498018264770508
aa(lp1301
F31.334440231323242
aF200.83506774902344
aF8.498208045959473
aa(lp1302
F31.334495544433594
aF200.835205078125
aF8.498269081115723
aa(lp1303
F31.334510803222656
aF200.83547973632812
aF8.498332977294922
aa(lp1304
F31.334501266479492
aF200.83566284179688
aF8.498452186584473
aa(lp1305
F31.334470748901367
aF200.8357391357422
aF8.498516082763672
aa(lp1306
F31.3343505859375
aF200.83563232421875
aF8.498576164245605
aa(lp1307
F31.33420753479004
aF200.8355255126953
aF8.498639106750488
aa(lp1308
F31.334077835083008
aF200.8354949951172
aF8.498730659484863
aa(lp1309
F31.33392906188965
aF200.83534240722656
aF8.498882293701172
aa(lp1310
F31.333765029907227
aF200.83502197265625
aF8.49902057647705
aa(lp1311
F31.333642959594727
aF200.83494567871094
aF8.4992036819458
aa(lp1312
F31.333526611328125
aF200.83493041992188
aF8.499361991882324
aa(lp1313
F31.333477020263672
aF200.83523559570312
aF8.499475479125977
aa(lp1314
F31.333406448364258
aF200.8352508544922
aF8.49950885772705
aa(lp1315
F31.333295822143555
aF200.8351593017578
aF8.499650955200195
aa(lp1316
F31.333234786987305
aF200.83499145507812
aF8.499662399291992
aa(lp1317
F31.333309173583984
aF200.83494567871094
aF8.49958324432373
aa(lp1318
F31.333297729492188
aF200.83470153808594
aF8.499537467956543
aa(lp1319
F31.333452224731445
aF200.83474731445312
aF8.49936294555664
aa(lp1320
F31.333518981933594
aF200.83473205566406
aF8.499317169189453
aa(lp1321
F31.333694458007812
aF200.8347625732422
aF8.499188423156738
aa(lp1322
F31.334014892578125
aF200.83518981933594
aF8.498953819274902
aa(lp1323
F31.33421516418457
aF200.83563232421875
aF8.498902320861816
aa(lp1324
F31.334300994873047
aF200.8358917236328
aF8.498929977416992
aa(lp1325
F31.334367752075195
aF200.83621215820312
aF8.499032974243164
aa(lp1326
F31.334531784057617
aF200.8365020751953
aF8.498929977416992
aa(lp1327
F31.33477210998535
aF200.83685302734375
aF8.498737335205078
aa(lp1328
F31.33492088317871
aF200.83712768554688
aF8.498597145080566
aa(lp1329
F31.33500862121582
aF200.83738708496094
aF8.498517036437988
aa(lp1330
F31.33506202697754
aF200.83779907226562
aF8.4984712600708
aa(lp1331
F31.335063934326172
aF200.83822631835938
aF8.498490333557129
aa(lp1332
F31.335044860839844
aF200.8385009765625
aF8.498540878295898
aa(lp1333
F31.334959030151367
aF200.83837890625
aF8.498522758483887
aa(lp1334
F31.334848403930664
aF200.8380584716797
aF8.498445510864258
aa(lp1335
F31.334735870361328
aF200.83787536621094
aF8.498498916625977
aa(lp1336
F31.334566116333008
aF200.8374786376953
aF8.4985990524292
aa(lp1337
F31.334598541259766
aF200.83721923828125
aF8.498534202575684
aa(lp1338
F31.334619522094727
aF200.83692932128906
aF8.498454093933105
aa(lp1339
F31.334558486938477
aF200.8365936279297
aF8.498419761657715
aa(lp1340
F31.334684371948242
aF200.83653259277344
aF8.49829387664795
aa(lp1341
F31.334733963012695
aF200.83651733398438
aF8.498204231262207
aa(lp1342
F31.334732055664062
aF200.83651733398438
aF8.498130798339844
aa(lp1343
F31.33469009399414
aF200.83651733398438
aF8.498085975646973
aa(lp1344
F31.33461570739746
aF200.83645629882812
aF8.498077392578125
aa(lp1345
F31.33455467224121
aF200.8365478515625
aF8.498019218444824
aa(lp1346
F31.33469009399414
aF200.8367919921875
aF8.497811317443848
aa(lp1347
F31.334720611572266
aF200.83656311035156
aF8.497658729553223
aa(lp1348
F31.334697723388672
aF200.8363037109375
aF8.497577667236328
aa(lp1349
F31.334794998168945
aF200.83595275878906
aF8.497406959533691
aa(lp1350
F31.334810256958008
aF200.83580017089844
aF8.497406005859375
aa(lp1351
F31.33477020263672
aF200.8357391357422
aF8.497389793395996
aa(lp1352
F31.334636688232422
aF200.83546447753906
aF8.497490882873535
aa(lp1353
F31.334552764892578
aF200.83543395996094
aF8.4975004196167
aa(lp1354
F31.33446502685547
aF200.83529663085938
aF8.497577667236328
aa(lp1355
F31.334367752075195
aF200.83531188964844
aF8.497699737548828
aa(lp1356
F31.33429527282715
aF200.8353271484375
aF8.49777603149414
aa(lp1357
F31.33420181274414
aF200.83526611328125
aF8.4978666305542
aa(lp1358
F31.33426856994629
aF200.83526611328125
aF8.497788429260254
aa(lp1359
F31.33428192138672
aF200.83509826660156
aF8.49776554107666
aa(lp1360
F31.334226608276367
aF200.83482360839844
aF8.497807502746582
aa(lp1361
F31.33411979675293
aF200.83450317382812
aF8.49781608581543
aa(lp1362
F31.333988189697266
aF200.83416748046875
aF8.49792194366455
aa(lp1363
F31.33384132385254
aF200.83377075195312
aF8.497984886169434
aa(lp1364
F31.333715438842773
aF200.83352661132812
aF8.498019218444824
aa(lp1365
F31.33360481262207
aF200.83346557617188
aF8.498089790344238
aa(lp1366
F31.33348846435547
aF200.8334503173828
aF8.498202323913574
aa(lp1367
F31.333356857299805
aF200.83335876464844
aF8.49826431274414
aa(lp1368
F31.333240509033203
aF200.8334503173828
aF8.498286247253418
aa(lp1369
F31.333158493041992
aF200.83348083496094
aF8.498234748840332
aa(lp1370
F31.333093643188477
aF200.83346557617188
aF8.498186111450195
aa(lp1371
F31.333026885986328
aF200.83343505859375
aF8.498104095458984
aa(lp1372
F31.332950592041016
aF200.8336181640625
aF8.498148918151855
aa(lp1373
F31.33287811279297
aF200.83389282226562
aF8.498126983642578
aa(lp1374
F31.332700729370117
aF200.8337860107422
aF8.498190879821777
aa(lp1375
F31.332576751708984
aF200.83387756347656
aF8.498212814331055
aa(lp1376
F31.332406997680664
aF200.83363342285156
aF8.498250961303711
aa(lp1377
F31.332290649414062
aF200.83349609375
aF8.49822998046875
aa(lp1378
F31.33213996887207
aF200.83323669433594
aF8.498231887817383
aa(lp1379
F31.331981658935547
aF200.8330078125
aF8.49826431274414
aa(lp1380
F31.33182144165039
aF200.8327178955078
aF8.498311996459961
aa(lp1381
F31.331722259521484
aF200.8328094482422
aF8.498395919799805
aa(lp1382
F31.331642150878906
aF200.8328857421875
aF8.498485565185547
aa(lp1383
F31.33157730102539
aF200.83294677734375
aF8.498492240905762
aa(lp1384
F31.331626892089844
aF200.8330078125
aF8.498398780822754
aa(lp1385
F31.331809997558594
aF200.83326721191406
aF8.498244285583496
aa(lp1386
F31.33194351196289
aF200.8335418701172
aF8.49809741973877
aa(lp1387
F31.331979751586914
aF200.8335723876953
aF8.49806022644043
aa(lp1388
F31.331985473632812
aF200.833740234375
aF8.498019218444824
aa(lp1389
F31.33194351196289
aF200.8338623046875
aF8.498051643371582
aa(lp1390
F31.33188247680664
aF200.83396911621094
aF8.498035430908203
aa(lp1391
F31.331804275512695
aF200.83399963378906
aF8.497991561889648
aa(lp1392
F31.33171272277832
aF200.8338165283203
aF8.497954368591309
aa(lp1393
F31.331621170043945
aF200.833740234375
aF8.498023986816406
aa(lp1394
F31.331558227539062
aF200.8337860107422
aF8.498085975646973
aa(lp1395
F31.33150291442871
aF200.83401489257812
aF8.498234748840332
aa(lp1396
F31.33143424987793
aF200.83424377441406
aF8.498425483703613
aa(lp1397
F31.331340789794922
aF200.83448791503906
aF8.498544692993164
aa(lp1398
F31.331254959106445
aF200.8347625732422
aF8.498619079589844
aa(lp1399
F31.330915451049805
aF200.83502197265625
aF8.498781204223633
aa(lp1400
F31.330821990966797
aF200.83518981933594
aF8.498915672302246
aa(lp1401
F31.330707550048828
aF200.8349609375
aF8.498991966247559
aa(lp1402
F31.330589294433594
aF200.83499145507812
aF8.499165534973145
aa(lp1403
F31.330480575561523
aF200.83505249023438
aF8.499313354492188
aa(lp1404
F31.330400466918945
aF200.83523559570312
aF8.499491691589355
aa(lp1405
F31.330289840698242
aF200.8352813720703
aF8.499612808227539
aa(lp1406
F31.330204010009766
aF200.83514404296875
aF8.499650001525879
aa(lp1407
F31.330167770385742
aF200.8350830078125
aF8.499618530273438
aa(lp1408
F31.330080032348633
aF200.8349151611328
aF8.499595642089844
aa(lp1409
F31.33000946044922
aF200.8347930908203
aF8.499531745910645
aa(lp1410
F31.329896926879883
aF200.8345184326172
aF8.499517440795898
aa(lp1411
F31.329742431640625
aF200.83424377441406
aF8.499577522277832
aa(lp1412
F31.329578399658203
aF200.83404541015625
aF8.499608039855957
aa(lp1413
F31.329442977905273
aF200.83395385742188
aF8.499701499938965
aa(lp1414
F31.329326629638672
aF200.8340301513672
aF8.499761581420898
aa(lp1415
F31.329275131225586
aF200.8341064453125
aF8.499811172485352
aa(lp1416
F31.329164505004883
aF200.83401489257812
aF8.49979305267334
aa(lp1417
F31.329017639160156
aF200.83372497558594
aF8.499874114990234
aa(lp1418
F31.328838348388672
aF200.8333740234375
aF8.49992561340332
aa(lp1419
F31.328678131103516
aF200.83299255371094
aF8.499983787536621
aa(lp1420
F31.328561782836914
aF200.83265686035156
aF8.499930381774902
aa(lp1421
F31.328449249267578
aF200.83245849609375
aF8.499853134155273
aa(lp1422
F31.32853126525879
aF200.83253479003906
aF8.499723434448242
aa(lp1423
F31.328563690185547
aF200.83250427246094
aF8.499610900878906
aa(lp1424
F31.32862663269043
aF200.832763671875
aF8.499464988708496
aa(lp1425
F31.328590393066406
aF200.8328399658203
aF8.499478340148926
aa(lp1426
F31.328514099121094
aF200.83287048339844
aF8.499532699584961
aa(lp1427
F31.32843589782715
aF200.8327178955078
aF8.499481201171875
aa(lp1428
F31.328405380249023
aF200.8326873779297
aF8.499432563781738
aa(lp1429
F31.328393936157227
aF200.8326416015625
aF8.499345779418945
aa(lp1430
F31.32831382751465
aF200.83236694335938
aF8.499305725097656
aa(lp1431
F31.328248977661133
aF200.8323516845703
aF8.499284744262695
aa(lp1432
F31.328128814697266
aF200.83206176757812
aF8.499279975891113
aa(lp1433
F31.328031539916992
aF200.8317413330078
aF8.499217987060547
aa(lp1434
F31.327964782714844
aF200.83160400390625
aF8.49907112121582
aa(lp1435
F31.327890396118164
aF200.8313751220703
aF8.498895645141602
aa(lp1436
F31.327831268310547
aF200.83123779296875
aF8.4987211227417
aa(lp1437
F31.327743530273438
aF200.83106994628906
aF8.498673439025879
aa(lp1438
F31.32764434814453
aF200.83084106445312
aF8.498541831970215
aa(lp1439
F31.32754898071289
aF200.83074951171875
aF8.498528480529785
aa(lp1440
F31.3275146484375
aF200.83071899414062
aF8.49850845336914
aa(lp1441
F31.32748794555664
aF200.8306427001953
aF8.498430252075195
aa(lp1442
F31.327421188354492
aF200.8305206298828
aF8.498309135437012
aa(lp1443
F31.327388763427734
aF200.83042907714844
aF8.498189926147461
aa(lp1444
F31.327360153198242
aF200.830322265625
aF8.4981050491333
aa(lp1445
F31.32733917236328
aF200.8304901123047
aF8.498092651367188
aa(lp1446
F31.327302932739258
aF200.83062744140625
aF8.498065948486328
aa(lp1447
F31.327213287353516
aF200.8306121826172
aF8.498108863830566
aa(lp1448
F31.327190399169922
aF200.83082580566406
aF8.498138427734375
aa(lp1449
F31.327123641967773
aF200.83084106445312
aF8.498141288757324
aa(lp1450
F31.327024459838867
aF200.83067321777344
aF8.498109817504883
aa(lp1451
F31.326942443847656
aF200.83045959472656
aF8.498067855834961
aa(lp1452
F31.32684326171875
aF200.83010864257812
aF8.497932434082031
aa(lp1453
F31.32679557800293
aF200.8299102783203
aF8.497822761535645
aa(lp1454
F31.326698303222656
aF200.82968139648438
aF8.497817993164062
aa(lp1455
F31.3266658782959
aF200.82977294921875
aF8.497779846191406
aa(lp1456
F31.326562881469727
aF200.82962036132812
aF8.497719764709473
aa(lp1457
F31.32646369934082
aF200.82931518554688
aF8.497594833374023
aa(lp1458
F31.326318740844727
aF200.82876586914062
aF8.497495651245117
aa(lp1459
F31.326160430908203
aF200.828125
aF8.49733829498291
aa(lp1460
F31.326013565063477
aF200.8275604248047
aF8.49727725982666
aa(lp1461
F31.325849533081055
aF200.82693481445312
aF8.497194290161133
aa(lp1462
F31.32571792602539
aF200.82672119140625
aF8.497230529785156
aa(lp1463
F31.325637817382812
aF200.82681274414062
aF8.497358322143555
aa(lp1464
F31.325611114501953
aF200.82720947265625
aF8.497455596923828
aa(lp1465
F31.325456619262695
aF200.82705688476562
aF8.4975004196167
aa(lp1466
F31.3253116607666
aF200.82676696777344
aF8.497535705566406
aa(lp1467
F31.32525062561035
aF200.82666015625
aF8.49750804901123
aa(lp1468
F31.325225830078125
aF200.82688903808594
aF8.497552871704102
aa(lp1469
F31.325206756591797
aF200.8271942138672
aF8.497593879699707
aa(lp1470
F31.32512664794922
aF200.8273162841797
aF8.497624397277832
aa(lp1471
F31.32499122619629
aF200.82717895507812
aF8.497660636901855
aa(lp1472
F31.324928283691406
aF200.82723999023438
aF8.497669219970703
aa(lp1473
F31.32490348815918
aF200.82745361328125
aF8.497611045837402
aa(lp1474
F31.324804306030273
aF200.82730102539062
aF8.497570037841797
aa(lp1475
F31.324647903442383
aF200.82696533203125
aF8.497547149658203
aa(lp1476
F31.324586868286133
aF200.82691955566406
aF8.497441291809082
aa(lp1477
F31.324542999267578
aF200.8267822265625
aF8.49735164642334
aa(lp1478
F31.324499130249023
aF200.82672119140625
aF8.497315406799316
aa(lp1479
F31.32442855834961
aF200.8267822265625
aF8.497384071350098
aa(lp1480
F31.32435417175293
aF200.82679748535156
aF8.497356414794922
aa(lp1481
F31.324268341064453
aF200.826904296875
aF8.497340202331543
aa(lp1482
F31.3242244720459
aF200.82705688476562
aF8.497323036193848
aa(lp1483
F31.32415771484375
aF200.8269805908203
aF8.497323036193848
aa(lp1484
F31.324098587036133
aF200.8269805908203
aF8.497265815734863
aa(lp1485
F31.324003219604492
aF200.8269500732422
aF8.497349739074707
aa(lp1486
F31.323904037475586
aF200.8267059326172
aF8.497304916381836
aa(lp1487
F31.323829650878906
aF200.82659912109375
aF8.497298240661621
aa(lp1488
F31.323814392089844
aF200.8267822265625
aF8.497371673583984
aa(lp1489
F31.323766708374023
aF200.82687377929688
aF8.497379302978516
aa(lp1490
F31.32373809814453
aF200.82699584960938
aF8.49736499786377
aa(lp1491
F31.323692321777344
aF200.82730102539062
aF8.4974946975708
aa(lp1492
F31.323596954345703
aF200.82728576660156
aF8.497496604919434
aa(lp1493
F31.32353401184082
aF200.8273162841797
aF8.497502326965332
aa(lp1494
F31.32345199584961
aF200.8272247314453
aF8.497488021850586
aa(lp1495
F31.323373794555664
aF200.82736206054688
aF8.497550010681152
aa(lp1496
F31.32322883605957
aF200.82723999023438
aF8.497540473937988
aa(lp1497
F31.323152542114258
aF200.8273162841797
aF8.497486114501953
aa(lp1498
F31.32306480407715
aF200.82728576660156
aF8.497405052185059
aa(lp1499
F31.322980880737305
aF200.82740783691406
aF8.497442245483398
aa(lp1500
F31.322908401489258
aF200.827392578125
aF8.497403144836426
aa(lp1501
F31.3228816986084
aF200.8274688720703
aF8.497331619262695
aa(lp1502
F31.32283592224121
aF200.8275909423828
aF8.497314453125
aa(lp1503
F31.322816848754883
aF200.82763671875
aF8.497322082519531
aa(lp1504
F31.322847366333008
aF200.82778930664062
aF8.49722671508789
aa(lp1505
F31.32302474975586
aF200.8280487060547
aF8.497058868408203
aa(lp1506
F31.323190689086914
aF200.82861328125
aF8.496932983398438
aa(lp1507
F31.323286056518555
aF200.8289794921875
aF8.496857643127441
aa(lp1508
F31.32335090637207
aF200.82948303222656
aF8.496828079223633
aa(lp1509
F31.3233585357666
aF200.82965087890625
aF8.496721267700195
aa(lp1510
F31.323402404785156
aF200.82974243164062
aF8.496594429016113
aa(lp1511
F31.32359504699707
aF200.82998657226562
aF8.496321678161621
aa(lp1512
F31.32369041442871
aF200.8298797607422
aF8.496047973632812
aa(lp1513
F31.323732376098633
aF200.82968139648438
aF8.495827674865723
aa(lp1514
F31.323760986328125
aF200.82969665527344
aF8.495739936828613
aa(lp1515
F31.323781967163086
aF200.82992553710938
aF8.495736122131348
aa(lp1516
F31.32377815246582
aF200.83023071289062
aF8.4957857131958
aa(lp1517
F31.323747634887695
aF200.83041381835938
aF8.495826721191406
aa(lp1518
F31.32360076904297
aF200.83035278320312
aF8.495890617370605
aa(lp1519
F31.323537826538086
aF200.8304443359375
aF8.495977401733398
aa(lp1520
F31.323457717895508
aF200.83050537109375
aF8.496062278747559
aa(lp1521
F31.323402404785156
aF200.83067321777344
aF8.496146202087402
aa(lp1522
F31.323339462280273
aF200.83114624023438
aF8.496241569519043
aa(lp1523
F31.323957443237305
aF200.83343505859375
aF8.496004104614258
aa(lp1524
F31.324039459228516
aF200.83396911621094
aF8.49596881866455
aa(lp1525
F31.324010848999023
aF200.834228515625
aF8.496050834655762
aa(lp1526
F31.3239688873291
aF200.83447265625
aF8.496150970458984
aa(lp1527
F31.323965072631836
aF200.83486938476562
aF8.496211051940918
aa(lp1528
F31.323938369750977
aF200.83514404296875
aF8.496283531188965
aa(lp1529
F31.323869705200195
aF200.8351593017578
aF8.496322631835938
aa(lp1530
F31.323841094970703
aF200.83526611328125
aF8.496272087097168
aa(lp1531
F31.32383155822754
aF200.83535766601562
aF8.496223449707031
aa(lp1532
F31.3238582611084
aF200.835693359375
aF8.496146202087402
aa(lp1533
F31.323881149291992
aF200.8361358642578
aF8.496072769165039
aa(lp1534
F31.3238582611084
aF200.83641052246094
aF8.496121406555176
aa(lp1535
F31.323863983154297
aF200.83673095703125
aF8.496055603027344
aa(lp1536
F31.323884963989258
aF200.83697509765625
aF8.495979309082031
aa(lp1537
F31.32390594482422
aF200.83706665039062
aF8.495918273925781
aa(lp1538
F31.323930740356445
aF200.8372802734375
aF8.495918273925781
aa(lp1539
F31.32391929626465
aF200.8373565673828
aF8.495985984802246
aa(lp1540
F31.323890686035156
aF200.83753967285156
aF8.496073722839355
aa(lp1541
F31.323896408081055
aF200.83795166015625
aF8.496162414550781
aa(lp1542
F31.323869705200195
aF200.8382568359375
aF8.496310234069824
aa(lp1543
F31.323806762695312
aF200.83824157714844
aF8.496417999267578
aa(lp1544
F31.323776245117188
aF200.83831787109375
aF8.4965181350708
aa(lp1545
F31.32373809814453
aF200.8383331298828
aF8.496562004089355
aa(lp1546
F31.323837280273438
aF200.83847045898438
aF8.496437072753906
aa(lp1547
F31.323902130126953
aF200.83860778808594
aF8.49635124206543
aa(lp1548
F31.323949813842773
aF200.83889770507812
aF8.496273040771484
aa(lp1549
F31.323945999145508
aF200.83905029296875
aF8.496310234069824
aa(lp1550
F31.323909759521484
aF200.83914184570312
aF8.496426582336426
aa(lp1551
F31.323871612548828
aF200.8392333984375
aF8.496524810791016
aa(lp1552
F31.32379913330078
aF200.8392791748047
aF8.496498107910156
aa(lp1553
F31.32368278503418
aF200.8391876220703
aF8.496594429016113
aa(lp1554
F31.323659896850586
aF200.8394012451172
aF8.496606826782227
aa(lp1555
F31.323638916015625
aF200.8395233154297
aF8.49665641784668
aa(lp1556
F31.323535919189453
aF200.8393096923828
aF8.496702194213867
aa(lp1557
F31.323394775390625
aF200.8390350341797
aF8.496819496154785
aa(lp1558
F31.32320785522461
aF200.83847045898438
aF8.496895790100098
aa(lp1559
F31.32307243347168
aF200.83798217773438
aF8.496905326843262
aa(lp1560
F31.322956085205078
aF200.8375244140625
aF8.496947288513184
aa(lp1561
F31.322847366333008
aF200.83721923828125
aF8.496962547302246
aa(lp1562
F31.322734832763672
aF200.83689880371094
aF8.496973991394043
aa(lp1563
F31.322715759277344
aF200.83697509765625
aF8.496968269348145
aa(lp1564
F31.322711944580078
aF200.83685302734375
aF8.496899604797363
aa(lp1565
F31.32269859313965
aF200.83677673339844
aF8.496883392333984
aa(lp1566
F31.322633743286133
aF200.83676147460938
aF8.496994018554688
aa(lp1567
F31.322589874267578
aF200.83689880371094
aF8.497071266174316
aa(lp1568
F31.32256317138672
aF200.83714294433594
aF8.497084617614746
aa(lp1569
F31.322532653808594
aF200.8372039794922
aF8.497056007385254
aa(lp1570
F31.322505950927734
aF200.8373565673828
aF8.497061729431152
aa(lp1571
F31.32248306274414
aF200.83749389648438
aF8.497119903564453
aa(lp1572
F31.32246971130371
aF200.83761596679688
aF8.497106552124023
aa(lp1573
F31.32244110107422
aF200.8377685546875
aF8.497125625610352
aa(lp1574
F31.322372436523438
aF200.83782958984375
aF8.497089385986328
aa(lp1575
F31.32233428955078
aF200.83787536621094
aF8.497005462646484
aa(lp1576
F31.322296142578125
aF200.8378448486328
aF8.496920585632324
aa(lp1577
F31.32227325439453
aF200.83770751953125
aF8.496827125549316
aa(lp1578
F31.322248458862305
aF200.83755493164062
aF8.496832847595215
aa(lp1579
F31.322206497192383
aF200.8372344970703
aF8.496822357177734
aa(lp1580
F31.322219848632812
aF200.8372344970703
aF8.496895790100098
aa(lp1581
F31.322261810302734
aF200.83729553222656
aF8.496893882751465
aa(lp1582
F31.32229995727539
aF200.83737182617188
aF8.49695110321045
aa(lp1583
F31.32239532470703
aF200.8374481201172
aF8.496935844421387
aa(lp1584
F31.32248878479004
aF200.83755493164062
aF8.49683666229248
aa(lp1585
F31.322525024414062
aF200.83755493164062
aF8.496752738952637
aa(lp1586
F31.322574615478516
aF200.83775329589844
aF8.49670124053955
aa(lp1587
F31.32259178161621
aF200.83799743652344
aF8.496639251708984
aa(lp1588
F31.32253074645996
aF200.8380126953125
aF8.496623992919922
aa(lp1589
F31.322458267211914
aF200.837890625
aF8.496655464172363
aa(lp1590
F31.322477340698242
aF200.8379669189453
aF8.496639251708984
aa(lp1591
F31.32248878479004
aF200.83778381347656
aF8.496542930603027
aa(lp1592
F31.322484970092773
aF200.83770751953125
aF8.496533393859863
aa(lp1593
F31.322410583496094
aF200.8376922607422
aF8.496671676635742
aa(lp1594
F31.322317123413086
aF200.83746337890625
aF8.496702194213867
aa(lp1595
F31.322288513183594
aF200.8376007080078
aF8.496757507324219
aa(lp1596
F31.32229232788086
aF200.837646484375
aF8.496750831604004
aa(lp1597
F31.32230567932129
aF200.83787536621094
aF8.496726989746094
aa(lp1598
F31.322296142578125
aF200.83799743652344
aF8.496674537658691
aa(lp1599
F31.32230567932129
aF200.83807373046875
aF8.496683120727539
aa(lp1600
F31.322309494018555
aF200.8381805419922
aF8.49674129486084
aa(lp1601
F31.322330474853516
aF200.8385009765625
aF8.496835708618164
aa(lp1602
F31.322290420532227
aF200.8385772705078
aF8.496891021728516
aa(lp1603
F31.32218360900879
aF200.83843994140625
aF8.496952056884766
aa(lp1604
F31.32211685180664
aF200.83834838867188
aF8.497049331665039
aa(lp1605
F31.322172164916992
aF200.83828735351562
aF8.496977806091309
aa(lp1606
F31.322200775146484
aF200.83822631835938
aF8.496905326843262
aa(lp1607
F31.32220458984375
aF200.83827209472656
aF8.496889114379883
aa(lp1608
F31.322214126586914
aF200.8383331298828
aF8.496885299682617
aa(lp1609
F31.322261810302734
aF200.83856201171875
aF8.496838569641113
aa(lp1610
F31.32227897644043
aF200.83885192871094
aF8.496846199035645
aa(lp1611
F31.322250366210938
aF200.83900451660156
aF8.49683952331543
aa(lp1612
F31.322214126586914
aF200.83914184570312
aF8.496835708618164
aa(lp1613
F31.322168350219727
aF200.8391571044922
aF8.496905326843262
aa(lp1614
F31.322120666503906
aF200.83920288085938
aF8.496878623962402
aa(lp1615
F31.322031021118164
aF200.83900451660156
aF8.496835708618164
aa(lp1616
F31.321941375732422
aF200.83885192871094
aF8.496821403503418
aa(lp1617
F31.32181739807129
aF200.83859252929688
aF8.49673080444336
aa(lp1618
F31.321697235107422
aF200.83815002441406
aF8.496648788452148
aa(lp1619
F31.321626663208008
aF200.8378448486328
aF8.496599197387695
aa(lp1620
F31.321550369262695
aF200.83737182617188
aF8.496512413024902
aa(lp1621
F31.32151222229004
aF200.8370361328125
aF8.49639892578125
aa(lp1622
F31.32149314880371
aF200.83676147460938
aF8.496353149414062
aa(lp1623
F31.321453094482422
aF200.83663940429688
aF8.49634838104248
aa(lp1624
F31.321399688720703
aF200.8365478515625
aF8.49636173248291
aa(lp1625
F31.321319580078125
aF200.83648681640625
aF8.496368408203125
aa(lp1626
F31.321243286132812
aF200.83644104003906
aF8.496420860290527
aa(lp1627
F31.321155548095703
aF200.83642578125
aF8.496537208557129
aa(lp1628
F31.321250915527344
aF200.8363800048828
aF8.496513366699219
aa(lp1629
F31.321317672729492
aF200.83644104003906
aF8.496508598327637
aa(lp1630
F31.321348190307617
aF200.8365020751953
aF8.496513366699219
aa(lp1631
F31.321352005004883
aF200.83657836914062
aF8.496576309204102
aa(lp1632
F31.321352005004883
aF200.8366241455078
aF8.4966402053833
aa(lp1633
F31.321290969848633
aF200.83645629882812
aF8.496685028076172
aa(lp1634
F31.321237564086914
aF200.83636474609375
aF8.496681213378906
aa(lp1635
F31.321163177490234
aF200.8363037109375
aF8.496716499328613
aa(lp1636
F31.321128845214844
aF200.83615112304688
aF8.496715545654297
aa(lp1637
F31.3210506439209
aF200.8358917236328
aF8.496807098388672
aa(lp1638
F31.320974349975586
aF200.83580017089844
aF8.496813774108887
aa(lp1639
F31.320880889892578
aF200.83544921875
aF8.496813774108887
aa(lp1640
F31.320837020874023
aF200.8352813720703
aF8.496722221374512
aa(lp1641
F31.320755004882812
aF200.8349609375
aF8.496572494506836
aa(lp1642
F31.32068634033203
aF200.83482360839844
aF8.496481895446777
aa(lp1643
F31.320579528808594
aF200.83477783203125
aF8.49643325805664
aa(lp1644
F31.320478439331055
aF200.83465576171875
aF8.496444702148438
aa(lp1645
F31.320438385009766
aF200.8345947265625
aF8.496455192565918
aa(lp1646
F31.320415496826172
aF200.83456420898438
aF8.496514320373535
aa(lp1647
F31.320329666137695
aF200.83436584472656
aF8.496590614318848
aa(lp1648
F31.320127487182617
aF200.8340606689453
aF8.4964017868042
aa(lp1649
F31.320152282714844
aF200.8341522216797
aF8.496248245239258
aa(lp1650
F31.320119857788086
aF200.8340301513672
aF8.496201515197754
aa(lp1651
F31.320058822631836
aF200.83372497558594
aF8.49614143371582
aa(lp1652
F31.320011138916016
aF200.83351135253906
aF8.49606990814209
aa(lp1653
F31.319910049438477
aF200.83314514160156
aF8.49613094329834
aa(lp1654
F31.319747924804688
aF200.8327178955078
aF8.496257781982422
aa(lp1655
F31.31964111328125
aF200.8323974609375
aF8.496313095092773
aa(lp1656
F31.319561004638672
aF200.8321990966797
aF8.496359825134277
aa(lp1657
F31.319517135620117
aF200.83193969726562
aF8.496308326721191
aa(lp1658
F31.319412231445312
aF200.83175659179688
aF8.496280670166016
aa(lp1659
F31.31930160522461
aF200.83155822753906
aF8.4962158203125
aa(lp1660
F31.319225311279297
aF200.8315887451172
aF8.496249198913574
aa(lp1661
F31.319202423095703
aF200.83152770996094
aF8.496159553527832
aa(lp1662
F31.319114685058594
aF200.83135986328125
aF8.496203422546387
aa(lp1663
F31.319034576416016
aF200.83135986328125
aF8.496269226074219
aa(lp1664
F31.31901741027832
aF200.8313751220703
aF8.496283531188965
aa(lp1665
F31.319032669067383
aF200.8316192626953
aF8.496373176574707
aa(lp1666
F31.319034576416016
aF200.83181762695312
aF8.496410369873047
aa(lp1667
F31.319040298461914
aF200.83218383789062
aF8.496476173400879
aa(lp1668
F31.31903839111328
aF200.83241271972656
aF8.496502876281738
aa(lp1669
F31.319055557250977
aF200.83279418945312
aF8.496557235717773
aa(lp1670
F31.31903839111328
aF200.83302307128906
aF8.496590614318848
aa(lp1671
F31.319015502929688
aF200.8331298828125
aF8.496664047241211
aa(lp1672
F31.31892204284668
aF200.83290100097656
aF8.496678352355957
aa(lp1673
F31.31890296936035
aF200.83285522460938
aF8.496634483337402
aa(lp1674
F31.31888198852539
aF200.83287048339844
aF8.496566772460938
aa(lp1675
F31.318851470947266
aF200.8328857421875
aF8.496576309204102
aa(lp1676
F31.31888198852539
aF200.83285522460938
aF8.496496200561523
aa(lp1677
F31.318866729736328
aF200.83279418945312
aF8.496515274047852
aa(lp1678
F31.318851470947266
aF200.83274841308594
aF8.496454238891602
aa(lp1679
F31.31883430480957
aF200.83277893066406
aF8.496468544006348
aa(lp1680
F31.318782806396484
aF200.83267211914062
aF8.496399879455566
aa(lp1681
F31.318737030029297
aF200.83267211914062
aF8.496306419372559
aa(lp1682
F31.3187313079834
aF200.83285522460938
aF8.496271133422852
aa(lp1683
F31.31876564025879
aF200.83322143554688
aF8.49624252319336
aa(lp1684
F31.3187313079834
aF200.83335876464844
aF8.49629020690918
aa(lp1685
F31.31865882873535
aF200.83346557617188
aF8.496329307556152
aa(lp1686
F31.31875228881836
aF200.83335876464844
aF8.496192932128906
aa(lp1687
F31.318763732910156
aF200.8331756591797
aF8.496070861816406
aa(lp1688
F31.318744659423828
aF200.83282470703125
aF8.495891571044922
aa(lp1689
F31.31871223449707
aF200.8326416015625
aF8.495780944824219
aa(lp1690
F31.318660736083984
aF200.83242797851562
aF8.495681762695312
aa(lp1691
F31.318660736083984
aF200.83248901367188
aF8.495622634887695
aa(lp1692
F31.318603515625
aF200.8323974609375
aF8.495644569396973
aa(lp1693
F31.31854248046875
aF200.8322296142578
aF8.495558738708496
aa(lp1694
F31.318490982055664
aF200.83212280273438
aF8.49547290802002
aa(lp1695
F31.318439483642578
aF200.83197021484375
aF8.495363235473633
aa(lp1696
F31.31838035583496
aF200.83200073242188
aF8.495280265808105
aa(lp1697
F31.318470001220703
aF200.83213806152344
aF8.49514102935791
aa(lp1698
F31.318531036376953
aF200.8323516845703
aF8.495048522949219
aa(lp1699
F31.31855010986328
aF200.8326416015625
aF8.495026588439941
aa(lp1700
F31.318588256835938
aF200.83291625976562
aF8.495049476623535
aa(lp1701
F31.318618774414062
aF200.83326721191406
aF8.495126724243164
aa(lp1702
F31.318641662597656
aF200.83338928222656
aF8.495134353637695
aa(lp1703
F31.318622589111328
aF200.83328247070312
aF8.495101928710938
aa(lp1704
F31.318767547607422
aF200.83338928222656
aF8.49492359161377
aa(lp1705
F31.318803787231445
aF200.83323669433594
aF8.494865417480469
aa(lp1706
F31.318803787231445
aF200.8331298828125
aF8.49477767944336
aa(lp1707
F31.318851470947266
aF200.8332061767578
aF8.49475383758545
aa(lp1708
F31.318864822387695
aF200.8330841064453
aF8.494769096374512
aa(lp1709
F31.318775177001953
aF200.83279418945312
aF8.494871139526367
aa(lp1710
F31.318666458129883
aF200.83267211914062
aF8.49496078491211
aa(lp1711
F31.318607330322266
aF200.83251953125
aF8.4949312210083
aa(lp1712
F31.31856918334961
aF200.83258056640625
aF8.494856834411621
aa(lp1713
F31.318695068359375
aF200.83265686035156
aF8.494646072387695
aa(lp1714
F31.318727493286133
aF200.83282470703125
aF8.494491577148438
aa(lp1715
F31.31873893737793
aF200.83303833007812
aF8.494457244873047
aa(lp1716
F31.31868553161621
aF200.83306884765625
aF8.494437217712402
aa(lp1717
F31.318653106689453
aF200.83291625976562
aF8.494404792785645
aa(lp1718
F31.318641662597656
aF200.83274841308594
aF8.494270324707031
aa(lp1719
F31.318578720092773
aF200.83251953125
aF8.494190216064453
aa(lp1720
F31.318498611450195
aF200.83233642578125
aF8.494117736816406
aa(lp1721
F31.31842041015625
aF200.83230590820312
aF8.494172096252441
aa(lp1722
F31.3183536529541
aF200.83241271972656
aF8.494181632995605
aa(lp1723
F31.31830406188965
aF200.8324432373047
aF8.494179725646973
aa(lp1724
F31.3182430267334
aF200.83250427246094
aF8.49422836303711
aa(lp1725
F31.318157196044922
aF200.83258056640625
aF8.49424934387207
aa(lp1726
F31.318077087402344
aF200.83261108398438
aF8.494197845458984
aa(lp1727
F31.318037033081055
aF200.83274841308594
aF8.494243621826172
aa(lp1728
F31.317970275878906
aF200.8329315185547
aF8.494261741638184
aa(lp1729
F31.317901611328125
aF200.83297729492188
aF8.49429988861084
aa(lp1730
F31.318004608154297
aF200.83306884765625
aF8.49415397644043
aa(lp1731
F31.31804847717285
aF200.83314514160156
aF8.494131088256836
aa(lp1732
F31.31812858581543
aF200.83328247070312
aF8.494064331054688
aa(lp1733
F31.318147659301758
aF200.8334503173828
aF8.494071960449219
aa(lp1734
F31.318130493164062
aF200.83343505859375
aF8.494070053100586
aa(lp1735
F31.318071365356445
aF200.8333740234375
aF8.494179725646973
aa(lp1736
F31.318021774291992
aF200.83343505859375
aF8.494251251220703
aa(lp1737
F31.31792640686035
aF200.83331298828125
aF8.494253158569336
aa(lp1738
F31.317798614501953
aF200.83282470703125
aF8.494244575500488
aa(lp1739
F31.317710876464844
aF200.8325958251953
aF8.494328498840332
aa(lp1740
F31.317644119262695
aF200.8325653076172
aF8.494424819946289
aa(lp1741
F31.317626953125
aF200.83258056640625
aF8.494453430175781
aa(lp1742
F31.31759262084961
aF200.8325653076172
aF8.494437217712402
aa(lp1743
F31.317584991455078
aF200.83248901367188
aF8.494379997253418
aa(lp1744
F31.31760025024414
aF200.83241271972656
aF8.494318008422852
aa(lp1745
F31.3176326751709
aF200.83255004882812
aF8.494247436523438
aa(lp1746
F31.317617416381836
aF200.83258056640625
aF8.494241714477539
aa(lp1747
F31.317604064941406
aF200.83262634277344
aF8.49421501159668
aa(lp1748
F31.317598342895508
aF200.83245849609375
aF8.494084358215332
aa(lp1749
F31.31761360168457
aF200.83262634277344
aF8.494038581848145
aa(lp1750
F31.317623138427734
aF200.8325958251953
aF8.493985176086426
aa(lp1751
F31.317583084106445
aF200.83251953125
aF8.493865966796875
aa(lp1752
F31.317522048950195
aF200.8324737548828
aF8.493881225585938
aa(lp1753
F31.31749153137207
aF200.8325653076172
aF8.493886947631836
aa(lp1754
F31.317447662353516
aF200.8325958251953
aF8.493873596191406
aa(lp1755
F31.317411422729492
aF200.8327178955078
aF8.493941307067871
aa(lp1756
F31.317359924316406
aF200.83267211914062
aF8.49399185180664
aa(lp1757
F31.317501068115234
aF200.83291625976562
aF8.493904113769531
aa(lp1758
F31.317546844482422
aF200.83309936523438
aF8.493880271911621
aa(lp1759
F31.317588806152344
aF200.83338928222656
aF8.493946075439453
aa(lp1760
F31.317584991455078
aF200.8335723876953
aF8.4939546585083
aa(lp1761
F31.317583084106445
aF200.83358764648438
aF8.493870735168457
aa(lp1762
F31.317642211914062
aF200.8339385986328
aF8.493819236755371
aa(lp1763
F31.317659378051758
aF200.83413696289062
aF8.4937744140625
aa(lp1764
F31.317670822143555
aF200.83447265625
aF8.493852615356445
aa(lp1765
F31.317665100097656
aF200.8345947265625
aF8.493888854980469
aa(lp1766
F31.31761932373047
aF200.834716796875
aF8.493892669677734
aa(lp1767
F31.31764030456543
aF200.83514404296875
aF8.493876457214355
aa(lp1768
F31.317663192749023
aF200.83531188964844
aF8.4938325881958
aa(lp1769
F31.317626953125
aF200.8354034423828
aF8.493831634521484
aa(lp1770
F31.31757354736328
aF200.83560180664062
aF8.493892669677734
aa(lp1771
F31.31756019592285
aF200.83592224121094
aF8.494025230407715
aa(lp1772
F31.317581176757812
aF200.8363800048828
aF8.494141578674316
aa(lp1773
F31.317853927612305
aF200.83836364746094
aF8.494431495666504
aa(lp1774
F31.317880630493164
aF200.83892822265625
aF8.494637489318848
aa(lp1775
F31.31784439086914
aF200.8389892578125
aF8.494744300842285
aa(lp1776
F31.317785263061523
aF200.83888244628906
aF8.49489688873291
aa(lp1777
F31.3177547454834
aF200.83897399902344
aF8.495010375976562
aa(lp1778
F31.3177433013916
aF200.83926391601562
aF8.495107650756836
aa(lp1779
F31.31770133972168
aF200.83961486816406
aF8.495183944702148
aa(lp1780
F31.317699432373047
aF200.84022521972656
aF8.495379447937012
aa(lp1781
F31.317703247070312
aF200.8408203125
aF8.495535850524902
aa(lp1782
F31.317718505859375
aF200.8411407470703
aF8.495513916015625
aa(lp1783
F31.3177547454834
aF200.8412322998047
aF8.495414733886719
aa(lp1784
F31.317821502685547
aF200.841552734375
aF8.495343208312988
aa(lp1785
F31.317838668823242
aF200.8417510986328
aF8.495336532592773
aa(lp1786
F31.31785011291504
aF200.84197998046875
aF8.495383262634277
aa(lp1787
F31.3178768157959
aF200.84230041503906
aF8.495526313781738
aa(lp1788
F31.3178653717041
aF200.84246826171875
aF8.495637893676758
aa(lp1789
F31.317798614501953
aF200.8424072265625
aF8.495768547058105
aa(lp1790
F31.317787170410156
aF200.84254455566406
aF8.495821952819824
aa(lp1791
F31.317729949951172
aF200.8423614501953
aF8.495770454406738
aa(lp1792
F31.31773567199707
aF200.8422393798828
aF8.495736122131348
aa(lp1793
F31.31772232055664
aF200.84217834472656
aF8.495711326599121
aa(lp1794
F31.3177433013916
aF200.84234619140625
aF8.495735168457031
aa(lp1795
F31.3177547454834
aF200.8425750732422
aF8.495805740356445
aa(lp1796
F31.317922592163086
aF200.84280395507812
aF8.495699882507324
aa(lp1797
F31.318029403686523
aF200.84315490722656
aF8.495694160461426
aa(lp1798
F31.318117141723633
aF200.8434600830078
aF8.49571418762207
aa(lp1799
F31.318151473999023
aF200.84373474121094
aF8.495715141296387
aa(lp1800
F31.31816291809082
aF200.84384155273438
aF8.495662689208984
aa(lp1801
F31.318161010742188
aF200.84408569335938
aF8.495595932006836
aa(lp1802
F31.31821632385254
aF200.8445587158203
aF8.495589256286621
aa(lp1803
F31.31818199157715
aF200.84474182128906
aF8.495587348937988
aa(lp1804
F31.318218231201172
aF200.8450927734375
aF8.495589256286621
aa(lp1805
F31.3182373046875
aF200.8453826904297
aF8.49555492401123
aa(lp1806
F31.318201065063477
aF200.84539794921875
aF8.495600700378418
aa(lp1807
F31.318138122558594
aF200.8455047607422
aF8.495688438415527
aa(lp1808
F31.318115234375
aF200.84567260742188
aF8.495701789855957
aa(lp1809
F31.318077087402344
aF200.8458251953125
aF8.495683670043945
aa(lp1810
F31.31805419921875
aF200.84605407714844
aF8.495696067810059
aa(lp1811
F31.31802749633789
aF200.8460235595703
aF8.495641708374023
aa(lp1812
F31.31803321838379
aF200.84596252441406
aF8.495576858520508
aa(lp1813
F31.31801986694336
aF200.84573364257812
aF8.495491981506348
aa(lp1814
F31.3179988861084
aF200.84556579589844
aF8.495494842529297
aa(lp1815
F31.317989349365234
aF200.8455352783203
aF8.49551010131836
aa(lp1816
F31.317989349365234
aF200.84564208984375
aF8.495577812194824
aa(lp1817
F31.31795310974121
aF200.845703125
aF8.495662689208984
aa(lp1818
F31.317855834960938
aF200.84548950195312
aF8.495782852172852
aa(lp1819
F31.31779670715332
aF200.84519958496094
aF8.495843887329102
aa(lp1820
F31.317764282226562
aF200.8450927734375
aF8.49590015411377
aa(lp1821
F31.317798614501953
aF200.84507751464844
aF8.495914459228516
aa(lp1822
F31.317811965942383
aF200.8448944091797
aF8.495845794677734
aa(lp1823
F31.317977905273438
aF200.8448486328125
aF8.49557876586914
aa(lp1824
F31.31805992126465
aF200.84478759765625
aF8.495495796203613
aa(lp1825
F31.318078994750977
aF200.8446044921875
aF8.495465278625488
aa(lp1826
F31.318077087402344
aF200.84439086914062
aF8.495465278625488
aa(lp1827
F31.31805419921875
aF200.84408569335938
aF8.495441436767578
aa(lp1828
F31.318099975585938
aF200.84414672851562
aF8.495352745056152
aa(lp1829
F31.318145751953125
aF200.8441619873047
aF8.495335578918457
aa(lp1830
F31.31817054748535
aF200.84417724609375
aF8.495288848876953
aa(lp1831
F31.318225860595703
aF200.84425354003906
aF8.495320320129395
aa(lp1832
F31.318214416503906
aF200.84413146972656
aF8.495335578918457
aa(lp1833
F31.318180084228516
aF200.8440704345703
aF8.495370864868164
aa(lp1834
F31.31813621520996
aF200.84388732910156
aF8.495347023010254
aa(lp1835
F31.31812858581543
aF200.8438720703125
aF8.495302200317383
aa(lp1836
F31.3181209564209
aF200.8437042236328
aF8.495218276977539
aa(lp1837
F31.318117141723633
aF200.8436279296875
aF8.495145797729492
aa(lp1838
F31.31812858581543
aF200.84356689453125
aF8.495156288146973
aa(lp1839
F31.31810188293457
aF200.8434600830078
aF8.495134353637695
aa(lp1840
F31.318124771118164
aF200.8436279296875
aF8.495095252990723
aa(lp1841
F31.318078994750977
aF200.84327697753906
aF8.494977951049805
aa(lp1842
F31.317989349365234
aF200.84300231933594
aF8.495013236999512
aa(lp1843
F31.317983627319336
aF200.843017578125
aF8.495034217834473
aa(lp1844
F31.317955017089844
aF200.84292602539062
aF8.495097160339355
aa(lp1845
F31.317956924438477
aF200.84303283691406
aF8.495096206665039
aa(lp1846
F31.317981719970703
aF200.84304809570312
aF8.4950590133667
aa(lp1847
F31.317991256713867
aF200.84312438964844
aF8.495100975036621
aa(lp1848
F31.317930221557617
aF200.84298706054688
aF8.495094299316406
aa(lp1849
F31.3178653717041
aF200.8429718017578
aF8.49509334564209
aa(lp1850
F31.317790985107422
aF200.84275817871094
aF8.495073318481445
aa(lp1851
F31.31778907775879
aF200.84266662597656
aF8.495038032531738
aa(lp1852
F31.317747116088867
aF200.84254455566406
aF8.495100021362305
aa(lp1853
F31.31774139404297
aF200.8424835205078
aF8.49512767791748
aa(lp1854
F31.31768798828125
aF200.84231567382812
aF8.49513053894043
aa(lp1855
F31.317651748657227
aF200.84234619140625
aF8.495194435119629
aa(lp1856
F31.317535400390625
aF200.8422088623047
aF8.495229721069336
aa(lp1857
F31.317481994628906
aF200.84207153320312
aF8.495185852050781
aa(lp1858
F31.317495346069336
aF200.84214782714844
aF8.49509334564209
aa(lp1859
F31.317459106445312
aF200.84205627441406
aF8.495112419128418
aa(lp1860
F31.3175048828125
aF200.84249877929688
aF8.495174407958984
aa(lp1861
F31.31744956970215
aF200.8425750732422
aF8.49517822265625
aa(lp1862
F31.31742286682129
aF200.8425750732422
aF8.495156288146973
aa(lp1863
F31.3173828125
aF200.84259033203125
aF8.495087623596191
aa(lp1864
F31.31735610961914
aF200.84283447265625
aF8.495047569274902
aa(lp1865
F31.317358016967773
aF200.8431396484375
aF8.494990348815918
aa(lp1866
F31.317344665527344
aF200.84312438964844
aF8.494853973388672
aa(lp1867
F31.317359924316406
aF200.8431854248047
aF8.494693756103516
aa(lp1868
F31.317401885986328
aF200.8433074951172
aF8.494535446166992
aa(lp1869
F31.317398071289062
aF200.8432159423828
aF8.49450969696045
aa(lp1870
F31.317358016967773
aF200.84324645996094
aF8.494548797607422
aa(lp1871
F31.317289352416992
aF200.8428497314453
aF8.494524955749512
aa(lp1872
F31.317258834838867
aF200.8426513671875
aF8.494453430175781
aa(lp1873
F31.317251205444336
aF200.8424072265625
aF8.494307518005371
aa(lp1874
F31.31724739074707
aF200.84243774414062
aF8.494246482849121
aa(lp1875
F31.317235946655273
aF200.84243774414062
aF8.494272232055664
aa(lp1876
F31.317148208618164
aF200.84237670898438
aF8.49437427520752
aa(lp1877
F31.3171443939209
aF200.8424530029297
aF8.494466781616211
aa(lp1878
F31.317094802856445
aF200.84239196777344
aF8.494479179382324
aa(lp1879
F31.317033767700195
aF200.84225463867188
aF8.494455337524414
aa(lp1880
F31.31693458557129
aF200.84207153320312
aF8.494475364685059
aa(lp1881
F31.316850662231445
aF200.84205627441406
aF8.494582176208496
aa(lp1882
F31.316789627075195
aF200.84228515625
aF8.494757652282715
aa(lp1883
F31.316791534423828
aF200.842529296875
aF8.49488353729248
aa(lp1884
F31.316741943359375
aF200.84262084960938
aF8.494964599609375
aa(lp1885
F31.316699981689453
aF200.842529296875
aF8.494887351989746
aa(lp1886
F31.31670379638672
aF200.84255981445312
aF8.494794845581055
aa(lp1887
F31.316682815551758
aF200.84231567382812
aF8.494780540466309
aa(lp1888
F31.316646575927734
aF200.84222412109375
aF8.494757652282715
aa(lp1889
F31.316619873046875
aF200.84201049804688
aF8.494709968566895
aa(lp1890
F31.31658935546875
aF200.8419952392578
aF8.494706153869629
aa(lp1891
F31.316570281982422
aF200.8419647216797
aF8.4946928024292
aa(lp1892
F31.31656265258789
aF200.84210205078125
aF8.494691848754883
aa(lp1893
F31.3165340423584
aF200.84217834472656
aF8.494709968566895
aa(lp1894
F31.316482543945312
aF200.8420867919922
aF8.494690895080566
aa(lp1895
F31.316478729248047
aF200.84231567382812
aF8.494783401489258
aa(lp1896
F31.316547393798828
aF200.8424530029297
aF8.49481201171875
aa(lp1897
F31.31660270690918
aF200.84274291992188
aF8.494789123535156
aa(lp1898
F31.316726684570312
aF200.8435516357422
aF8.494650840759277
aa(lp1899
F31.316728591918945
aF200.84371948242188
aF8.494702339172363
aa(lp1900
F31.316694259643555
aF200.8436279296875
aF8.494665145874023
aa(lp1901
F31.31658363342285
aF200.84339904785156
aF8.494741439819336
aa(lp1902
F31.31647300720215
aF200.8430938720703
aF8.494728088378906
aa(lp1903
F31.316396713256836
aF200.8429412841797
aF8.494684219360352
aa(lp1904
F31.316354751586914
aF200.84304809570312
aF8.494659423828125
aa(lp1905
F31.316326141357422
aF200.84307861328125
aF8.494632720947266
aa(lp1906
F31.31631088256836
aF200.8431396484375
aF8.494622230529785
aa(lp1907
F31.3162841796875
aF200.84335327148438
aF8.494731903076172
aa(lp1908
F31.316267013549805
aF200.84368896484375
aF8.494823455810547
aa(lp1909
F31.31627082824707
aF200.84397888183594
aF8.494902610778809
aa(lp1910
F31.316198348999023
aF200.84397888183594
aF8.495102882385254
aa(lp1911
F31.31614875793457
aF200.8439483642578
aF8.495208740234375
aa(lp1912
F31.316072463989258
aF200.84371948242188
aF8.4952392578125
aa(lp1913
F31.31599998474121
aF200.84344482421875
aF8.495344161987305
aa(lp1914
F31.315885543823242
aF200.8431854248047
aF8.495532035827637
aa(lp1915
F31.31583595275879
aF200.84317016601562
aF8.49566650390625
aa(lp1916
F31.31582260131836
aF200.84310913085938
aF8.495701789855957
aa(lp1917
F31.315832138061523
aF200.8433074951172
aF8.495795249938965
aa(lp1918
F31.31577491760254
aF200.8433380126953
aF8.495861053466797
aa(lp1919
F31.315725326538086
aF200.84344482421875
aF8.495977401733398
aa(lp1920
F31.315738677978516
aF200.84373474121094
aF8.49599838256836
aa(lp1921
F31.31571388244629
aF200.84378051757812
aF8.496084213256836
aa(lp1922
F31.31566619873047
aF200.84371948242188
aF8.496170997619629
aa(lp1923
F31.31561851501465
aF200.84388732910156
aF8.496286392211914
aa(lp1924
F31.315624237060547
aF200.84413146972656
aF8.496402740478516
aa(lp1925
F31.31556510925293
aF200.8442840576172
aF8.496520042419434
aa(lp1926
F31.315481185913086
aF200.84429931640625
aF8.496699333190918
aa(lp1927
F31.315359115600586
aF200.843994140625
aF8.496769905090332
aa(lp1928
F31.315305709838867
aF200.8439483642578
aF8.496869087219238
aa(lp1929
F31.315261840820312
aF200.84388732910156
aF8.496933937072754
aa(lp1930
F31.315311431884766
aF200.843994140625
aF8.496981620788574
aa(lp1931
F31.31532096862793
aF200.843994140625
aF8.497011184692383
aa(lp1932
F31.315343856811523
aF200.84417724609375
aF8.497106552124023
aa(lp1933
F31.315336227416992
aF200.84425354003906
aF8.497197151184082
aa(lp1934
F31.315370559692383
aF200.84463500976562
aF8.497346878051758
aa(lp1935
F31.31542205810547
aF200.84495544433594
aF8.497420310974121
aa(lp1936
F31.315441131591797
aF200.8452606201172
aF8.49756145477295
aa(lp1937
F31.315488815307617
aF200.8456573486328
aF8.497578620910645
aa(lp1938
F31.31551170349121
aF200.84600830078125
aF8.497679710388184
aa(lp1939
F31.315532684326172
aF200.84603881835938
aF8.497732162475586
aa(lp1940
F31.31553077697754
aF200.84571838378906
aF8.497762680053711
aa(lp1941
F31.315507888793945
aF200.84547424316406
aF8.497825622558594
aa(lp1942
F31.31549644470215
aF200.84539794921875
aF8.497922897338867
aa(lp1943
F31.31541633605957
aF200.84519958496094
aF8.498056411743164
aa(lp1944
F31.315364837646484
aF200.84510803222656
aF8.498157501220703
aa(lp1945
F31.31528091430664
aF200.84503173828125
aF8.4983549118042
aa(lp1946
F31.315235137939453
aF200.84494018554688
aF8.498397827148438
aa(lp1947
F31.315200805664062
aF200.8449249267578
aF8.498477935791016
aa(lp1948
F31.31522560119629
aF200.84483337402344
aF8.498461723327637
aa(lp1949
F31.315216064453125
aF200.8446502685547
aF8.49848747253418
aa(lp1950
F31.31515121459961
aF200.84458923339844
aF8.498575210571289
aa(lp1951
F31.315073013305664
aF200.8444061279297
aF8.498688697814941
aa(lp1952
F31.315195083618164
aF200.8442840576172
aF8.498628616333008
aa(lp1953
F31.3153133392334
aF200.8444366455078
aF8.498590469360352
aa(lp1954
F31.315446853637695
aF200.8445587158203
aF8.498530387878418
aa(lp1955
F31.31553077697754
aF200.84446716308594
aF8.498478889465332
aa(lp1956
F31.31556510925293
aF200.84445190429688
aF8.498544692993164
aa(lp1957
F31.31553077697754
aF200.84446716308594
aF8.498717308044434
aa(lp1958
F31.31548309326172
aF200.84463500976562
aF8.498917579650879
aa(lp1959
F31.3154354095459
aF200.84469604492188
aF8.499059677124023
aa(lp1960
F31.315414428710938
aF200.84490966796875
aF8.499153137207031
aa(lp1961
F31.31537437438965
aF200.84495544433594
aF8.499139785766602
aa(lp1962
F31.31528091430664
aF200.8448944091797
aF8.49917984008789
aa(lp1963
F31.31527328491211
aF200.84498596191406
aF8.499127388000488
aa(lp1964
F31.315231323242188
aF200.84518432617188
aF8.499201774597168
aa(lp1965
F31.315174102783203
aF200.84518432617188
aF8.499336242675781
aa(lp1966
F31.315078735351562
aF200.8450469970703
aF8.49952220916748
aa(lp1967
F31.315019607543945
aF200.8448944091797
aF8.499638557434082
aa(lp1968
F31.314977645874023
aF200.84463500976562
aF8.499760627746582
aa(lp1969
F31.31499671936035
aF200.84457397460938
aF8.4998140335083
aa(lp1970
F31.315000534057617
aF200.8445587158203
aF8.499898910522461
aa(lp1971
F31.31500816345215
aF200.84457397460938
aF8.499950408935547
aa(lp1972
F31.315073013305664
aF200.84471130371094
aF8.499948501586914
aa(lp1973
F31.315101623535156
aF200.84471130371094
aF8.499964714050293
aa(lp1974
F31.315082550048828
aF200.8446807861328
aF8.500054359436035
aa(lp1975
F31.315048217773438
aF200.8445587158203
aF8.50008487701416
aa(lp1976
F31.315086364746094
aF200.8447265625
aF8.500094413757324
aa(lp1977
F31.31512451171875
aF200.84494018554688
aF8.500106811523438
aa(lp1978
F31.315141677856445
aF200.84519958496094
aF8.500195503234863
aa(lp1979
F31.315147399902344
aF200.8452606201172
aF8.50021743774414
aa(lp1980
F31.315147399902344
aF200.845458984375
aF8.5003023147583
aa(lp1981
F31.31509017944336
aF200.84535217285156
aF8.50033187866211
aa(lp1982
F31.3150634765625
aF200.84552001953125
aF8.500365257263184
aa(lp1983
F31.315032958984375
aF200.84561157226562
aF8.500397682189941
aa(lp1984
F31.31502914428711
aF200.84580993652344
aF8.500444412231445
aa(lp1985
F31.31498146057129
aF200.84593200683594
aF8.500524520874023
aa(lp1986
F31.31494903564453
aF200.84620666503906
aF8.500619888305664
aa(lp1987
F31.314924240112305
aF200.84637451171875
aF8.500659942626953
aa(lp1988
F31.314924240112305
aF200.84664916992188
aF8.500696182250977
aa(lp1989
F31.31492805480957
aF200.84681701660156
aF8.500694274902344
aa(lp1990
F31.31496238708496
aF200.84713745117188
aF8.500631332397461
aa(lp1991
F31.314956665039062
aF200.84725952148438
aF8.50053882598877
aa(lp1992
F31.314939498901367
aF200.84722900390625
aF8.50051212310791
aa(lp1993
F31.314910888671875
aF200.8472900390625
aF8.50052547454834
aa(lp1994
F31.314931869506836
aF200.84751892089844
aF8.500561714172363
aa(lp1995
F31.314945220947266
aF200.84768676757812
aF8.500683784484863
aa(lp1996
F31.31493377685547
aF200.84783935546875
aF8.500700950622559
aa(lp1997
F31.314950942993164
aF200.8482208251953
aF8.500785827636719
aa(lp1998
F31.314971923828125
aF200.84832763671875
aF8.500823020935059
aa(lp1999
F31.31497573852539
aF200.84837341308594
aF8.500892639160156
aa(lp2000
F31.315006256103516
aF200.84848022460938
aF8.500848770141602
aa(lp2001
F31.315004348754883
aF200.84866333007812
aF8.500858306884766
aa(lp2002
F31.314939498901367
aF200.84861755371094
aF8.500933647155762
aa(lp2003
F31.314924240112305
aF200.84869384765625
aF8.500920295715332
aa(lp2004
F31.314891815185547
aF200.84861755371094
aF8.500894546508789
aa(lp2005
F31.314849853515625
aF200.84852600097656
aF8.50082778930664
aa(lp2006
F31.314828872680664
aF200.8483123779297
aF8.500678062438965
aa(lp2007
F31.315000534057617
aF200.84844970703125
aF8.500460624694824
aa(lp2008
F31.31511688232422
aF200.8486328125
aF8.500397682189941
aa(lp2009
F31.31524085998535
aF200.84898376464844
aF8.500328063964844
aa(lp2010
F31.315296173095703
aF200.8489990234375
aF8.50020694732666
aa(lp2011
F31.3153076171875
aF200.84901428222656
aF8.50019645690918
aa(lp2012
F31.315343856811523
aF200.84922790527344
aF8.500152587890625
aa(lp2013
F31.315353393554688
aF200.84930419921875
aF8.50017261505127
aa(lp2014
F31.315534591674805
aF200.84954833984375
aF8.500083923339844
aa(lp2015
F31.315662384033203
aF200.849853515625
aF8.500029563903809
aa(lp2016
F31.31571388244629
aF200.8499755859375
aF8.499948501586914
aa(lp2017
F31.315780639648438
aF200.85023498535156
aF8.499910354614258
aa(lp2018
F31.315792083740234
aF200.85028076171875
aF8.499815940856934
aa(lp2019
F31.31573486328125
aF200.8501434326172
aF8.499829292297363
aa(lp2020
F31.315702438354492
aF200.84991455078125
aF8.499850273132324
aa(lp2021
F31.315658569335938
aF200.84959411621094
aF8.499920845031738
aa(lp2022
F31.315610885620117
aF200.84927368164062
aF8.499961853027344
aa(lp2023
F31.315631866455078
aF200.84927368164062
aF8.499889373779297
aa(lp2024
F31.31558609008789
aF200.84922790527344
aF8.499855995178223
aa(lp2025
F31.3155517578125
aF200.84939575195312
aF8.499846458435059
aa(lp2026
F31.315513610839844
aF200.84950256347656
aF8.499923706054688
aa(lp2027
F31.315500259399414
aF200.84967041015625
aF8.499929428100586
aa(lp2028
F31.315433502197266
aF200.849609375
aF8.499923706054688
aa(lp2029
F31.315397262573242
aF200.849609375
aF8.49990177154541
aa(lp2030
F31.315332412719727
aF200.84951782226562
aF8.499968528747559
aa(lp2031
F31.315261840820312
aF200.84918212890625
aF8.499948501586914
aa(lp2032
F31.31521987915039
aF200.8490753173828
aF8.5
aa(lp2033
F31.31517791748047
aF200.84902954101562
aF8.500044822692871
aa(lp2034
F31.315120697021484
aF200.84909057617188
aF8.500101089477539
aa(lp2035
F31.315052032470703
aF200.84890747070312
aF8.500054359436035
aa(lp2036
F31.315019607543945
aF200.8489227294922
aF8.500017166137695
aa(lp2037
F31.314971923828125
aF200.84886169433594
aF8.49992847442627
aa(lp2038
F31.31490135192871
aF200.8486328125
aF8.499858856201172
aa(lp2039
F31.314863204956055
aF200.84864807128906
aF8.49988842010498
aa(lp2040
F31.31487274169922
aF200.84866333007812
aF8.499874114990234
aa(lp2041
F31.31486701965332
aF200.84869384765625
aF8.499841690063477
aa(lp2042
F31.314817428588867
aF200.8484344482422
aF8.499879837036133
aa(lp2043
F31.314966201782227
aF200.8485107421875
aF8.499702453613281
aa(lp2044
F31.31508445739746
aF200.84864807128906
aF8.499590873718262
aa(lp2045
F31.315120697021484
aF200.84877014160156
aF8.499545097351074
aa(lp2046
F31.315155029296875
aF200.84902954101562
aF8.499578475952148
aa(lp2047
F31.315139770507812
aF200.8492889404297
aF8.4996337890625
aa(lp2048
F31.315128326416016
aF200.84963989257812
aF8.499712944030762
aa(lp2049
F31.315147399902344
aF200.84986877441406
aF8.499689102172852
aa(lp2050
F31.315196990966797
aF200.85015869140625
aF8.499763488769531
aa(lp2051
F31.315231323242188
aF200.85040283203125
aF8.49974536895752
aa(lp2052
F31.315244674682617
aF200.85055541992188
aF8.499725341796875
aa(lp2053
F31.31528091430664
aF200.8509979248047
aF8.499736785888672
aa(lp2054
F31.315261840820312
aF200.85110473632812
aF8.499724388122559
aa(lp2055
F31.315250396728516
aF200.85130310058594
aF8.499711036682129
aa(lp2056
F31.315263748168945
aF200.85154724121094
aF8.499689102172852
aa(lp2057
F31.31528091430664
aF200.85174560546875
aF8.499677658081055
aa(lp2058
F31.315305709838867
aF200.8520050048828
aF8.49968147277832
aa(lp2059
F31.31529426574707
aF200.85208129882812
aF8.49962329864502
aa(lp2060
F31.31532096862793
aF200.85223388671875
aF8.499556541442871
aa(lp2061
F31.315324783325195
aF200.85238647460938
aF8.49946117401123
aa(lp2062
F31.3153133392334
aF200.8523712158203
aF8.499374389648438
aa(lp2063
F31.315317153930664
aF200.85227966308594
aF8.499268531799316
aa(lp2064
F31.315324783325195
aF200.85211181640625
aF8.499091148376465
aa(lp2065
F31.3153018951416
aF200.85186767578125
aF8.498992919921875
aa(lp2066
F31.315284729003906
aF200.85189819335938
aF8.498906135559082
aa(lp2067
F31.315256118774414
aF200.8518829345703
aF8.498910903930664
aa(lp2068
F31.315229415893555
aF200.85189819335938
aF8.498985290527344
aa(lp2069
F31.31519889831543
aF200.85195922851562
aF8.499042510986328
aa(lp2070
F31.315168380737305
aF200.85205078125
aF8.499102592468262
aa(lp2071
F31.315120697021484
aF200.8520050048828
aF8.499127388000488
aa(lp2072
F31.315326690673828
aF200.8522186279297
aF8.498991966247559
aa(lp2073
F31.315433502197266
aF200.85235595703125
aF8.49893856048584
aa(lp2074
F31.315526962280273
aF200.85238647460938
aF8.498865127563477
aa(lp2075
F31.315553665161133
aF200.85235595703125
aF8.498834609985352
aa(lp2076
F31.315563201904297
aF200.85250854492188
aF8.498886108398438
aa(lp2077
F31.31561279296875
aF200.85269165039062
aF8.498881340026855
aa(lp2078
F31.315582275390625
aF200.85275268554688
aF8.498974800109863
aa(lp2079
F31.3155574798584
aF200.852783203125
aF8.499019622802734
aa(lp2080
F31.3155574798584
aF200.8527374267578
aF8.499034881591797
aa(lp2081
F31.315523147583008
aF200.85255432128906
aF8.498958587646484
aa(lp2082
F31.31547737121582
aF200.8523406982422
aF8.498896598815918
aa(lp2083
F31.315439224243164
aF200.85238647460938
aF8.498889923095703
aa(lp2084
F31.31537628173828
aF200.852294921875
aF8.4989595413208
aa(lp2085
F31.31536102294922
aF200.8524932861328
aF8.498943328857422
aa(lp2086
F31.315345764160156
aF200.8526153564453
aF8.498990058898926
aa(lp2087
F31.315271377563477
aF200.85252380371094
aF8.499053001403809
aa(lp2088
F31.31524658203125
aF200.85238647460938
aF8.499027252197266
aa(lp2089
F31.315204620361328
aF200.85227966308594
aF8.499053001403809
aa(lp2090
F31.315166473388672
aF200.8522186279297
aF8.499152183532715
aa(lp2091
F31.315113067626953
aF200.85211181640625
aF8.499164581298828
aa(lp2092
F31.3150691986084
aF200.85203552246094
aF8.499235153198242
aa(lp2093
F31.31503677368164
aF200.85218811035156
aF8.49933910369873
aa(lp2094
F31.315025329589844
aF200.8521728515625
aF8.499398231506348
aa(lp2095
F31.314992904663086
aF200.8522491455078
aF8.499550819396973
aa(lp2096
F31.315038681030273
aF200.8524627685547
aF8.499628067016602
aa(lp2097
F31.315095901489258
aF200.8528594970703
aF8.499700546264648
aa(lp2098
F31.315109252929688
aF200.85304260253906
aF8.499768257141113
aa(lp2099
F31.31511116027832
aF200.85321044921875
aF8.499812126159668
aa(lp2100
F31.315059661865234
aF200.8531494140625
aF8.499831199645996
aa(lp2101
F31.31498908996582
aF200.85304260253906
aF8.499917030334473
aa(lp2102
F31.314966201782227
aF200.85287475585938
aF8.499923706054688
aa(lp2103
F31.314937591552734
aF200.85244750976562
aF8.49980640411377
aa(lp2104
F31.31489372253418
aF200.85214233398438
aF8.499734878540039
aa(lp2105
F31.31484031677246
aF200.85208129882812
aF8.499792098999023
aa(lp2106
F31.314807891845703
aF200.85194396972656
aF8.499844551086426
aa(lp2107
F31.31476402282715
aF200.8517608642578
aF8.499817848205566
aa(lp2108
F31.3147029876709
aF200.85169982910156
aF8.499818801879883
aa(lp2109
F31.31462860107422
aF200.8516082763672
aF8.499833106994629
aa(lp2110
F31.314533233642578
aF200.8512725830078
aF8.499770164489746
aa(lp2111
F31.31449317932129
aF200.85104370117188
aF8.4996919631958
aa(lp2112
F31.31447982788086
aF200.85086059570312
aF8.499567031860352
aa(lp2113
F31.3144474029541
aF200.8507080078125
aF8.499541282653809
aa(lp2114
F31.314437866210938
aF200.8506622314453
aF8.499476432800293
aa(lp2115
F31.314435958862305
aF200.8507080078125
aF8.499430656433105
aa(lp2116
F31.314430236816406
aF200.850830078125
aF8.499449729919434
aa(lp2117
F31.314435958862305
aF200.850830078125
aF8.499418258666992
aa(lp2118
F31.314455032348633
aF200.8507080078125
aF8.49932861328125
aa(lp2119
F31.314451217651367
aF200.8506317138672
aF8.49929428100586
aa(lp2120
F31.31447410583496
aF200.8507080078125
aF8.499346733093262
aa(lp2121
F31.314512252807617
aF200.8506317138672
aF8.499305725097656
aa(lp2122
F31.314558029174805
aF200.8507080078125
aF8.499302864074707
aa(lp2123
F31.31460189819336
aF200.85055541992188
aF8.499180793762207
aa(lp2124
F31.314603805541992
aF200.85047912597656
aF8.499070167541504
aa(lp2125
F31.314613342285156
aF200.85052490234375
aF8.498997688293457
aa(lp2126
F31.31462860107422
aF200.85067749023438
aF8.498931884765625
aa(lp2127
F31.314571380615234
aF200.8505401611328
aF8.49892807006836
aa(lp2128
F31.314537048339844
aF200.85055541992188
aF8.498990058898926
aa(lp2129
F31.31453514099121
aF200.85061645507812
aF8.499039649963379
aa(lp2130
F31.314489364624023
aF200.85069274902344
aF8.499073028564453
aa(lp2131
F31.31446647644043
aF200.85060119628906
aF8.499112129211426
aa(lp2132
F31.314434051513672
aF200.8505096435547
aF8.499176979064941
aa(lp2133
F31.314449310302734
aF200.8506317138672
aF8.499231338500977
aa(lp2134
F31.31442642211914
aF200.8505096435547
aF8.499247550964355
aa(lp2135
F31.31434440612793
aF200.85044860839844
aF8.499385833740234
aa(lp2136
F31.31435203552246
aF200.8507080078125
aF8.499422073364258
aa(lp2137
F31.314302444458008
aF200.85061645507812
aF8.499486923217773
aa(lp2138
F31.314266204833984
aF200.8503875732422
aF8.49946403503418
aa(lp2139
F31.314239501953125
aF200.85011291503906
aF8.499408721923828
aa(lp2140
F31.31418800354004
aF200.8496856689453
aF8.499327659606934
aa(lp2141
F31.31432342529297
aF200.84959411621094
aF8.499143600463867
aa(lp2142
F31.3144474029541
aF200.84970092773438
aF8.498950958251953
aa(lp2143
F31.31452751159668
aF200.84983825683594
aF8.498905181884766
aa(lp2144
F31.31460189819336
aF200.8500213623047
aF8.498910903930664
aa(lp2145
F31.314599990844727
aF200.8500213623047
aF8.498884201049805
aa(lp2146
F31.31458282470703
aF200.84983825683594
aF8.49889087677002
aa(lp2147
F31.314590454101562
aF200.84979248046875
aF8.498839378356934
aa(lp2148
F31.3145751953125
aF200.84922790527344
aF8.498391151428223
aa(lp2149
F31.314565658569336
aF200.84906005859375
aF8.498239517211914
aa(lp2150
F31.314584732055664
aF200.84906005859375
aF8.498226165771484
aa(lp2151
F31.314598083496094
aF200.84902954101562
aF8.498222351074219
aa(lp2152
F31.314577102661133
aF200.84877014160156
aF8.498228073120117
aa(lp2153
F31.31460189819336
aF200.8485870361328
aF8.498175621032715
aa(lp2154
F31.31464958190918
aF200.84857177734375
aF8.498204231262207
aa(lp2155
F31.31463623046875
aF200.8485565185547
aF8.49825382232666
aa(lp2156
F31.314603805541992
aF200.8485565185547
aF8.49830150604248
aa(lp2157
F31.314573287963867
aF200.84861755371094
aF8.498337745666504
aa(lp2158
F31.314498901367188
aF200.84866333007812
aF8.498475074768066
aa(lp2159
F31.31449317932129
aF200.8488006591797
aF8.498533248901367
aa(lp2160
F31.314422607421875
aF200.84872436523438
aF8.498598098754883
aa(lp2161
F31.314373016357422
aF200.8486785888672
aF8.498625755310059
aa(lp2162
F31.31436538696289
aF200.84886169433594
aF8.498661994934082
aa(lp2163
F31.314348220825195
aF200.84912109375
aF8.498669624328613
aa(lp2164
F31.314355850219727
aF200.849365234375
aF8.49864673614502
aa(lp2165
F31.31433868408203
aF200.8496551513672
aF8.49868392944336
aa(lp2166
F31.314348220825195
aF200.84983825683594
aF8.498719215393066
aa(lp2167
F31.314294815063477
aF200.84994506835938
aF8.498833656311035
aa(lp2168
F31.314220428466797
aF200.84976196289062
aF8.498841285705566
aa(lp2169
F31.314163208007812
aF200.84959411621094
aF8.498754501342773
aa(lp2170
F31.314043045043945
aF200.8492889404297
aF8.498751640319824
aa(lp2171
F31.313947677612305
aF200.8491973876953
aF8.498780250549316
aa(lp2172
F31.313894271850586
aF200.84934997558594
aF8.498830795288086
aa(lp2173
F31.313838958740234
aF200.8494415283203
aF8.498855590820312
aa(lp2174
F31.31382942199707
aF200.84957885742188
aF8.49891471862793
aa(lp2175
F31.3138484954834
aF200.8497772216797
aF8.498930931091309
aa(lp2176
F31.313859939575195
aF200.8500518798828
aF8.49902629852295
aa(lp2177
F31.313791275024414
aF200.8499755859375
aF8.499072074890137
aa(lp2178
F31.313749313354492
aF200.84982299804688
aF8.499127388000488
aa(lp2179
F31.313697814941406
aF200.84971618652344
aF8.499197959899902
aa(lp2180
F31.313674926757812
aF200.84967041015625
aF8.499300003051758
aa(lp2181
F31.31371307373047
aF200.849853515625
aF8.499384880065918
aa(lp2182
F31.313678741455078
aF200.84976196289062
aF8.499516487121582
aa(lp2183
F31.313650131225586
aF200.84974670410156
aF8.49965763092041
aa(lp2184
F31.31363296508789
aF200.8496551513672
aF8.499801635742188
aa(lp2185
F31.313613891601562
aF200.849609375
aF8.499932289123535
aa(lp2186
F31.31357192993164
aF200.84959411621094
aF8.500005722045898
aa(lp2187
F31.31357765197754
aF200.84979248046875
aF8.500029563903809
aa(lp2188
F31.31356430053711
aF200.84986877441406
aF8.500112533569336
aa(lp2189
F31.313575744628906
aF200.85000610351562
aF8.500151634216309
aa(lp2190
F31.31352996826172
aF200.85018920898438
aF8.500188827514648
aa(lp2191
F31.31350326538086
aF200.8505096435547
aF8.500340461730957
aa(lp2192
F31.313505172729492
aF200.8508758544922
aF8.500394821166992
aa(lp2193
F31.31351089477539
aF200.8511199951172
aF8.500503540039062
aa(lp2194
F31.313547134399414
aF200.85134887695312
aF8.50051498413086
aa(lp2195
F31.313570022583008
aF200.85157775878906
aF8.500475883483887
aa(lp2196
F31.313568115234375
aF200.8517303466797
aF8.500425338745117
aa(lp2197
F31.313594818115234
aF200.85179138183594
aF8.500307083129883
aa(lp2198
F31.313655853271484
aF200.85186767578125
aF8.500207901000977
aa(lp2199
F31.31361961364746
aF200.85165405273438
aF8.500215530395508
aa(lp2200
F31.313554763793945
aF200.8514404296875
aF8.500314712524414
aa(lp2201
F31.313461303710938
aF200.8511962890625
aF8.50037956237793
aa(lp2202
F31.31338119506836
aF200.85130310058594
aF8.500490188598633
aa(lp2203
F31.313467025756836
aF200.85133361816406
aF8.500367164611816
aa(lp2204
F31.313556671142578
aF200.85121154785156
aF8.500238418579102
aa(lp2205
F31.31361198425293
aF200.85130310058594
aF8.500238418579102
aa(lp2206
F31.31364631652832
aF200.85113525390625
aF8.500205039978027
aa(lp2207
F31.31367301940918
aF200.8511505126953
aF8.500227928161621
aa(lp2208
F31.31365394592285
aF200.85096740722656
aF8.500275611877441
aa(lp2209
F31.313663482666016
aF200.8508758544922
aF8.500285148620605
aa(lp2210
F31.313650131225586
aF200.85072326660156
aF8.500259399414062
aa(lp2211
F31.313629150390625
aF200.8506317138672
aF8.500269889831543
aa(lp2212
F31.31361961364746
aF200.8505859375
aF8.500247955322266
aa(lp2213
F31.313587188720703
aF200.8502655029297
aF8.500198364257812
aa(lp2214
F31.31356430053711
aF200.8500518798828
aF8.500173568725586
aa(lp2215
F31.313575744628906
aF200.8500518798828
aF8.50014591217041
aa(lp2216
F31.31360626220703
aF200.85023498535156
aF8.500086784362793
aa(lp2217
F31.313636779785156
aF200.85040283203125
aF8.500091552734375
aa(lp2218
F31.313627243041992
aF200.85043334960938
aF8.50003719329834
aa(lp2219
F31.313648223876953
aF200.85047912597656
aF8.500056266784668
aa(lp2220
F31.31364631652832
aF200.8505401611328
aF8.50001049041748
aa(lp2221
F31.313631057739258
aF200.8505859375
aF8.500025749206543
aa(lp2222
F31.313697814941406
aF200.85105895996094
aF8.500046730041504
aa(lp2223
F31.313716888427734
aF200.85137939453125
aF8.5000581741333
aa(lp2224
F31.313735961914062
aF200.85165405273438
aF8.500066757202148
aa(lp2225
F31.313711166381836
aF200.85159301757812
aF8.499988555908203
aa(lp2226
F31.31369400024414
aF200.85165405273438
aF8.500003814697266
aa(lp2227
F31.313735961914062
aF200.85182189941406
aF8.499987602233887
aa(lp2228
F31.313587188720703
aF200.85191345214844
aF8.500282287597656
aa(lp2229
F31.313465118408203
aF200.85183715820312
aF8.50050163269043
aa(lp2230
F31.31340217590332
aF200.85189819335938
aF8.500618934631348
aa(lp2231
F31.313329696655273
aF200.8520050048828
aF8.500807762145996
aa(lp2232
F31.313316345214844
aF200.85215759277344
aF8.500904083251953
aa(lp2233
F31.313318252563477
aF200.85223388671875
aF8.500893592834473
aa(lp2234
F31.313325881958008
aF200.85223388671875
aF8.500802040100098
aa(lp2235
F31.313318252563477
aF200.8522491455078
aF8.500791549682617
aa(lp2236
F31.313331604003906
aF200.85232543945312
aF8.500776290893555
aa(lp2237
F31.31331443786621
aF200.85243225097656
aF8.500776290893555
aa(lp2238
F31.31330108642578
aF200.8524627685547
aF8.500738143920898
aa(lp2239
F31.313295364379883
aF200.85240173339844
aF8.500731468200684
aa(lp2240
F31.31329917907715
aF200.8524932861328
aF8.500741958618164
aa(lp2241
F31.31332778930664
aF200.8525390625
aF8.500692367553711
aa(lp2242
F31.313383102416992
aF200.85256958007812
aF8.500612258911133
aa(lp2243
F31.313404083251953
aF200.8524169921875
aF8.500449180603027
aa(lp2244
F31.31340980529785
aF200.85223388671875
aF8.500285148620605
aa(lp2245
F31.313400268554688
aF200.85195922851562
aF8.500168800354004
aa(lp2246
F31.31338119506836
aF200.8517608642578
aF8.500126838684082
aa(lp2247
F31.313364028930664
aF200.85171508789062
aF8.500118255615234
aa(lp2248
F31.31327247619629
aF200.8514862060547
aF8.500067710876465
aa(lp2249
F31.313243865966797
aF200.85153198242188
aF8.500110626220703
aa(lp2250
F31.313222885131836
aF200.85159301757812
aF8.500102043151855
aa(lp2251
F31.313220977783203
aF200.85145568847656
aF8.500041007995605
aa(lp2252
F31.313188552856445
aF200.8512420654297
aF8.499957084655762
aa(lp2253
F31.31317710876465
aF200.85125732421875
aF8.499982833862305
aa(lp2254
F31.313135147094727
aF200.8511505126953
aF8.499917984008789
aa(lp2255
F31.313127517700195
aF200.85104370117188
aF8.49985408782959
aa(lp2256
F31.313264846801758
aF200.85105895996094
aF8.499749183654785
aa(lp2257
F31.313322067260742
aF200.8508758544922
aF8.49968147277832
aa(lp2258
F31.31336212158203
aF200.85067749023438
aF8.499567985534668
aa(lp2259
F31.31340980529785
aF200.85073852539062
aF8.499534606933594
aa(lp2260
F31.31344223022461
aF200.85060119628906
aF8.499503135681152
aa(lp2261
F31.31349754333496
aF200.85055541992188
aF8.499507904052734
aa(lp2262
F31.31356430053711
aF200.85049438476562
aF8.499419212341309
aa(lp2263
F31.313636779785156
aF200.8505096435547
aF8.499398231506348
aa(lp2264
F31.31369400024414
aF200.8505401611328
aF8.499334335327148
aa(lp2265
F31.313720703125
aF200.8505401611328
aF8.499286651611328
aa(lp2266
F31.31374168395996
aF200.85060119628906
aF8.499267578125
aa(lp2267
F31.313705444335938
aF200.85052490234375
aF8.499238967895508
aa.