(lp0
(lp1
F30.957883834838867
aF204.93234252929688
aF-110.81739807128906
aa(lp2
F31.567813873291016
aF204.90701293945312
aF-110.7030258178711
aa(lp3
F32.04659652709961
aF204.8976593017578
aF-110.59674835205078
aa(lp4
F32.443504333496094
aF204.88345336914062
aF-110.5216293334961
aa(lp5
F32.735225677490234
aF204.8739471435547
aF-110.45092010498047
aa(lp6
F32.94440460205078
aF204.87002563476562
aF-110.41725158691406
aa(lp7
F33.12080764770508
aF204.86412048339844
aF-110.39570617675781
aa(lp8
F33.27573776245117
aF204.86502075195312
aF-110.38800048828125
aa(lp9
F33.36377716064453
aF204.85586547851562
aF-110.3608627319336
aa(lp10
F33.43755340576172
aF204.8528289794922
aF-110.366455078125
aa(lp11
F33.49951934814453
aF204.84951782226562
aF-110.37023162841797
aa(lp12
F33.546348571777344
aF204.8497772216797
aF-110.34123992919922
aa(lp13
F33.58155059814453
aF204.8479461669922
aF-110.34481811523438
aa(lp14
F33.61091613769531
aF204.8421630859375
aF-110.32888793945312
aa(lp15
F33.63302230834961
aF204.8463592529297
aF-110.31721496582031
aa(lp16
F33.64964294433594
aF204.8474884033203
aF-110.3010482788086
aa(lp17
F33.66485595703125
aF204.84951782226562
aF-110.29270935058594
aa(lp18
F33.674869537353516
aF204.84986877441406
aF-110.28691101074219
aa(lp19
F33.6824836730957
aF204.85238647460938
aF-110.29216003417969
aa(lp20
F33.68928146362305
aF204.8528594970703
aF-110.31163024902344
aa(lp21
F33.693756103515625
aF204.8525848388672
aF-110.30496978759766
aa(lp22
F33.69804382324219
aF204.8533477783203
aF-110.30442810058594
aa(lp23
F33.7002067565918
aF204.8499755859375
aF-110.31492614746094
aa(lp24
F33.70113754272461
aF204.84539794921875
aF-110.31037139892578
aa(lp25
F33.702537536621094
aF204.8443603515625
aF-110.29932403564453
aa(lp26
F33.70408248901367
aF204.8424835205078
aF-110.29788208007812
aa(lp27
F33.70584487915039
aF204.84619140625
aF-110.30249786376953
aa(lp28
F33.70753860473633
aF204.84201049804688
aF-110.28509521484375
aa(lp29
F33.708274841308594
aF204.8402099609375
aF-110.32705688476562
aa(lp30
F33.70917510986328
aF204.8421173095703
aF-110.33045196533203
aa(lp31
F33.70943069458008
aF204.84417724609375
aF-110.32623291015625
aa(lp32
F33.70964050292969
aF204.84564208984375
aF-110.3071517944336
aa(lp33
F33.708641052246094
aF204.8448028564453
aF-110.30184936523438
aa(lp34
F33.70985794067383
aF204.8504638671875
aF-110.30562591552734
aa.