(lp0
(lp1
F37.519752502441406
aF181.05435180664062
aF-46.68821334838867
aa(lp2
F37.65794372558594
aF181.00392150878906
aF-47.41470718383789
aa(lp3
F37.73372268676758
aF180.95750427246094
aF-47.98265075683594
aa(lp4
F37.798797607421875
aF180.9230499267578
aF-48.38548278808594
aa(lp5
F37.85347366333008
aF180.8904571533203
aF-48.714176177978516
aa(lp6
F37.91572189331055
aF180.86830139160156
aF-48.97200012207031
aa(lp7
F37.9636344909668
aF180.86183166503906
aF-49.198482513427734
aa(lp8
F38.013301849365234
aF180.8482208251953
aF-49.3768310546875
aa(lp9
F38.05430221557617
aF180.84352111816406
aF-49.531795501708984
aa(lp10
F38.08108139038086
aF180.8425750732422
aF-49.66923141479492
aa(lp11
F38.094120025634766
aF180.853759765625
aF-49.78157043457031
aa(lp12
F38.10966491699219
aF180.8383331298828
aF-49.868587493896484
aa(lp13
F38.129638671875
aF180.8375244140625
aF-49.9521369934082
aa(lp14
F38.14265441894531
aF180.8223876953125
aF-50.017234802246094
aa(lp15
F38.15617752075195
aF180.81980895996094
aF-50.0662841796875
aa(lp16
F38.169891357421875
aF180.81764221191406
aF-50.10506057739258
aa(lp17
F38.176841735839844
aF180.80581665039062
aF-50.135284423828125
aa(lp18
F38.187068939208984
aF180.79537963867188
aF-50.162078857421875
aa(lp19
F38.194969177246094
aF180.807373046875
aF-50.187660217285156
aa(lp20
F38.188777923583984
aF180.81686401367188
aF-50.21193313598633
aa(lp21
F38.1822395324707
aF180.79942321777344
aF-50.22336196899414
aa(lp22
F38.196231842041016
aF180.81060791015625
aF-50.238059997558594
aa(lp23
F38.20021438598633
aF180.79356384277344
aF-50.245296478271484
aa(lp24
F38.18564224243164
aF180.7896270751953
aF-50.254329681396484
aa(lp25
F38.18960189819336
aF180.78001403808594
aF-50.2589225769043
aa(lp26
F38.15990447998047
aF180.80386352539062
aF-50.27296829223633
aa(lp27
F38.1534538269043
aF180.81246948242188
aF-50.27956771850586
aa(lp28
F38.15904998779297
aF180.80947875976562
aF-50.28484344482422
aa(lp29
F38.17820739746094
aF180.80810546875
aF-50.28688430786133
aa(lp30
F38.1905632019043
aF180.80613708496094
aF-50.288639068603516
aa(lp31
F38.190860748291016
aF180.80015563964844
aF-50.2921028137207
aa(lp32
F38.19643020629883
aF180.81182861328125
aF-50.29638671875
aa(lp33
F38.19852066040039
aF180.8063201904297
aF-50.29585647583008
aa(lp34
F38.20351791381836
aF180.8047332763672
aF-50.29896545410156
aa(lp35
F38.208370208740234
aF180.8140869140625
aF-50.301246643066406
aa(lp36
F38.20502471923828
aF180.81472778320312
aF-50.29876708984375
aa(lp37
F38.21157455444336
aF180.8211212158203
aF-50.300941467285156
aa(lp38
F38.20717239379883
aF180.8157196044922
aF-50.304054260253906
aa(lp39
F38.208560943603516
aF180.80897521972656
aF-50.30403137207031
aa(lp40
F38.208702087402344
aF180.79098510742188
aF-50.298683166503906
aa(lp41
F38.2060546875
aF180.79254150390625
aF-50.30201721191406
aa(lp42
F38.207523345947266
aF180.7946014404297
aF-50.30282974243164
aa(lp43
F38.20677947998047
aF180.80416870117188
aF-50.309513092041016
aa(lp44
F38.19609832763672
aF180.80189514160156
aF-50.307090759277344
aa(lp45
F38.18093490600586
aF180.8045654296875
aF-50.3011474609375
aa(lp46
F38.18921661376953
aF180.81063842773438
aF-50.303504943847656
aa(lp47
F38.19220733642578
aF180.81109619140625
aF-50.30503463745117
aa(lp48
F38.17205047607422
aF180.82052612304688
aF-50.30345916748047
aa.