(lp0
(lp1
F37.56906509399414
aF181.00262451171875
aF-47.07853698730469
aa(lp2
F37.681339263916016
aF180.9590301513672
aF-47.60038375854492
aa(lp3
F37.782047271728516
aF180.9424591064453
aF-48.05409622192383
aa(lp4
F37.870304107666016
aF180.9318389892578
aF-48.45793533325195
aa(lp5
F37.94043731689453
aF180.91966247558594
aF-48.78853988647461
aa(lp6
F37.98793411254883
aF180.9165802001953
aF-49.05208206176758
aa(lp7
F38.017921447753906
aF180.90316772460938
aF-49.257232666015625
aa(lp8
F38.073673248291016
aF180.90493774414062
aF-49.445438385009766
aa(lp9
F38.09445571899414
aF180.89059448242188
aF-49.597511291503906
aa(lp10
F38.12308120727539
aF180.8894805908203
aF-49.72199630737305
aa(lp11
F38.140018463134766
aF180.88624572753906
aF-49.83195495605469
aa(lp12
F38.15553665161133
aF180.89414978027344
aF-49.920326232910156
aa(lp13
F38.176170349121094
aF180.89993286132812
aF-49.989681243896484
aa(lp14
F38.189964294433594
aF180.8996124267578
aF-50.04159164428711
aa(lp15
F38.19953155517578
aF180.90188598632812
aF-50.08747482299805
aa(lp16
F38.20029830932617
aF180.8820343017578
aF-50.12135314941406
aa(lp17
F38.21506118774414
aF180.87437438964844
aF-50.15514373779297
aa(lp18
F38.21474075317383
aF180.86721801757812
aF-50.1746940612793
aa(lp19
F38.22224426269531
aF180.8529510498047
aF-50.196388244628906
aa(lp20
F38.233062744140625
aF180.85662841796875
aF-50.218597412109375
aa(lp21
F38.2109489440918
aF180.849853515625
aF-50.23116683959961
aa(lp22
F38.218170166015625
aF180.84573364257812
aF-50.243873596191406
aa(lp23
F38.222198486328125
aF180.84365844726562
aF-50.25440216064453
aa(lp24
F38.23024368286133
aF180.84933471679688
aF-50.26512908935547
aa(lp25
F38.222198486328125
aF180.85194396972656
aF-50.27030944824219
aa(lp26
F38.208099365234375
aF180.87078857421875
aF-50.279842376708984
aa(lp27
F38.21847152709961
aF180.87747192382812
aF-50.28636169433594
aa(lp28
F38.23211669921875
aF180.86778259277344
aF-50.290889739990234
aa(lp29
F38.24199676513672
aF180.8770751953125
aF-50.29790115356445
aa(lp30
F38.230709075927734
aF180.88458251953125
aF-50.29709243774414
aa(lp31
F38.21260070800781
aF180.89120483398438
aF-50.298397064208984
aa(lp32
F38.220516204833984
aF180.88327026367188
aF-50.30068588256836
aa(lp33
F38.22892761230469
aF180.89996337890625
aF-50.307491302490234
aa(lp34
F38.229862213134766
aF180.90049743652344
aF-50.31185531616211
aa(lp35
F38.235107421875
aF180.8990936279297
aF-50.31438446044922
aa(lp36
F38.242591857910156
aF180.88470458984375
aF-50.31048583984375
aa(lp37
F38.252620697021484
aF180.88113403320312
aF-50.30788040161133
aa(lp38
F38.25087356567383
aF180.88050842285156
aF-50.3115348815918
aa(lp39
F38.252586364746094
aF180.87010192871094
aF-50.31047439575195
aa(lp40
F38.250999450683594
aF180.87440490722656
aF-50.313446044921875
aa(lp41
F38.24951934814453
aF180.85691833496094
aF-50.30572509765625
aa(lp42
F38.256595611572266
aF180.8651580810547
aF-50.30451202392578
aa(lp43
F38.25398254394531
aF180.85858154296875
aF-50.30685043334961
aa(lp44
F38.25106430053711
aF180.8671417236328
aF-50.311283111572266
aa(lp45
F38.249874114990234
aF180.85580444335938
aF-50.311100006103516
aa(lp46
F38.22125244140625
aF180.86134338378906
aF-50.30662155151367
aa(lp47
F38.22775650024414
aF180.86131286621094
aF-50.308189392089844
aa.