(lp0
(lp1
F31.199556350708008
aF204.93319702148438
aF-110.58953094482422
aa(lp2
F31.867874145507812
aF204.90042114257812
aF-110.4216079711914
aa(lp3
F32.27510452270508
aF204.8807830810547
aF-110.31369018554688
aa(lp4
F32.56892776489258
aF204.86859130859375
aF-110.25004577636719
aa(lp5
F32.83122634887695
aF204.85194396972656
aF-110.19258880615234
aa(lp6
F33.034481048583984
aF204.843994140625
aF-110.1459732055664
aa(lp7
F33.19715118408203
aF204.8341064453125
aF-110.11593627929688
aa(lp8
F33.33421325683594
aF204.82774353027344
aF-110.11167907714844
aa(lp9
F33.420475006103516
aF204.82388305664062
aF-110.0801773071289
aa(lp10
F33.48976135253906
aF204.81851196289062
aF-110.04519653320312
aa(lp11
F33.54672622680664
aF204.81060791015625
aF-110.04653930664062
aa(lp12
F33.58531951904297
aF204.81094360351562
aF-110.01585388183594
aa(lp13
F33.616111755371094
aF204.80636596679688
aF-110.01728820800781
aa(lp14
F33.639251708984375
aF204.80148315429688
aF-109.99646759033203
aa(lp15
F33.65990447998047
aF204.80007934570312
aF-110.00201416015625
aa(lp16
F33.6726188659668
aF204.79722595214844
aF-110.02066802978516
aa(lp17
F33.68605041503906
aF204.79714965820312
aF-110.02519226074219
aa(lp18
F33.69586181640625
aF204.79541015625
aF-110.02095794677734
aa(lp19
F33.70148468017578
aF204.78956604003906
aF-110.01649475097656
aa(lp20
F33.70622253417969
aF204.7933349609375
aF-110.00370025634766
aa(lp21
F33.70994567871094
aF204.7892303466797
aF-109.98242950439453
aa(lp22
F33.71269607543945
aF204.7902069091797
aF-109.98695373535156
aa(lp23
F33.71615219116211
aF204.79579162597656
aF-109.976806640625
aa(lp24
F33.71824264526367
aF204.79010009765625
aF-109.96710968017578
aa(lp25
F33.72053909301758
aF204.79013061523438
aF-109.95277404785156
aa(lp26
F33.721961975097656
aF204.78717041015625
aF-109.96312713623047
aa(lp27
F33.72389602661133
aF204.7921905517578
aF-109.96029663085938
aa(lp28
F33.72443389892578
aF204.79151916503906
aF-109.99256134033203
aa(lp29
F33.725765228271484
aF204.79591369628906
aF-109.97046661376953
aa(lp30
F33.72744369506836
aF204.80467224121094
aF-109.96075439453125
aa(lp31
F33.728271484375
aF204.8067169189453
aF-109.964111328125
aa(lp32
F33.7286376953125
aF204.8083953857422
aF-109.9607925415039
aa(lp33
F33.72853088378906
aF204.80807495117188
aF-109.96220397949219
aa(lp34
F33.72884750366211
aF204.80836486816406
aF-109.96730041503906
aa(lp35
F33.72823715209961
aF204.80162048339844
aF-109.9732437133789
aa.