(lp0
(lp1
F30.51165008544922
aF204.99520874023438
aF-110.85688018798828
aa(lp2
F31.14215660095215
aF204.96900939941406
aF-110.70728302001953
aa(lp3
F31.71204376220703
aF204.94236755371094
aF-110.57849884033203
aa(lp4
F32.14228439331055
aF204.92691040039062
aF-110.4774169921875
aa(lp5
F32.43967056274414
aF204.91282653808594
aF-110.40873718261719
aa(lp6
F32.7365837097168
aF204.89808654785156
aF-110.33329772949219
aa(lp7
F32.94908905029297
aF204.88536071777344
aF-110.27375793457031
aa(lp8
F33.11183166503906
aF204.87734985351562
aF-110.24462127685547
aa(lp9
F33.25719451904297
aF204.8751983642578
aF-110.2154769897461
aa(lp10
F33.356807708740234
aF204.86758422851562
aF-110.21147155761719
aa(lp11
F33.429203033447266
aF204.86070251464844
aF-110.18760681152344
aa(lp12
F33.50266647338867
aF204.8582305908203
aF-110.17556762695312
aa(lp13
F33.55397415161133
aF204.85594177246094
aF-110.17265319824219
aa(lp14
F33.59641647338867
aF204.8562774658203
aF-110.15595245361328
aa(lp15
F33.6295280456543
aF204.85760498046875
aF-110.15873718261719
aa(lp16
F33.65742874145508
aF204.85855102539062
aF-110.16967010498047
aa(lp17
F33.67379379272461
aF204.8531951904297
aF-110.15618133544922
aa(lp18
F33.690547943115234
aF204.85557556152344
aF-110.13722229003906
aa(lp19
F33.7038459777832
aF204.8527374267578
aF-110.12640380859375
aa(lp20
F33.71525192260742
aF204.8512420654297
aF-110.12027740478516
aa(lp21
F33.723297119140625
aF204.85646057128906
aF-110.12649536132812
aa(lp22
F33.73025894165039
aF204.85618591308594
aF-110.11417388916016
aa(lp23
F33.73552322387695
aF204.85716247558594
aF-110.11994171142578
aa(lp24
F33.737030029296875
aF204.84909057617188
aF-110.13375854492188
aa(lp25
F33.74008560180664
aF204.8461456298828
aF-110.13079071044922
aa(lp26
F33.74329376220703
aF204.84701538085938
aF-110.11554718017578
aa(lp27
F33.745059967041016
aF204.8488006591797
aF-110.13264465332031
aa(lp28
F33.74565887451172
aF204.84571838378906
aF-110.15115356445312
aa(lp29
F33.747215270996094
aF204.8491668701172
aF-110.13742065429688
aa(lp30
F33.747886657714844
aF204.84744262695312
aF-110.13619232177734
aa(lp31
F33.748661041259766
aF204.8460693359375
aF-110.13394927978516
aa(lp32
F33.74931335449219
aF204.8422088623047
aF-110.1199951171875
aa(lp33
F33.74952697753906
aF204.84466552734375
aF-110.13157653808594
aa(lp34
F33.7485237121582
aF204.83905029296875
aF-110.13732147216797
aa(lp35
F33.74845886230469
aF204.83668518066406
aF-110.11568450927734
aa(lp36
F33.74772644042969
aF204.8312530517578
aF-110.1034927368164
aa(lp37
F33.74770736694336
aF204.8330535888672
aF-110.11691284179688
aa(lp38
F33.74941635131836
aF204.8394775390625
aF-110.10790252685547
aa.