(lp0
(lp1
F30.611848831176758
aF204.97145080566406
aF-110.80069732666016
aa(lp2
F31.21012306213379
aF204.93960571289062
aF-110.6263198852539
aa(lp3
F31.758163452148438
aF204.9069366455078
aF-110.45875549316406
aa(lp4
F32.1573486328125
aF204.88433837890625
aF-110.34266662597656
aa(lp5
F32.48719787597656
aF204.86297607421875
aF-110.24581146240234
aa(lp6
F32.77268600463867
aF204.8550262451172
aF-110.16722106933594
aa(lp7
F32.96058654785156
aF204.84239196777344
aF-110.10552215576172
aa(lp8
F33.11922073364258
aF204.83648681640625
aF-110.07060241699219
aa(lp9
F33.25214385986328
aF204.8235626220703
aF-110.02641296386719
aa(lp10
F33.36203384399414
aF204.82054138183594
aF-109.9872055053711
aa(lp11
F33.43794250488281
aF204.8175811767578
aF-109.9554443359375
aa(lp12
F33.50840759277344
aF204.81527709960938
aF-109.94669342041016
aa(lp13
F33.56305694580078
aF204.80795288085938
aF-109.91893768310547
aa(lp14
F33.60123062133789
aF204.8044891357422
aF-109.92544555664062
aa(lp15
F33.63227462768555
aF204.80445861816406
aF-109.90108489990234
aa(lp16
F33.65983200073242
aF204.8037567138672
aF-109.8962631225586
aa(lp17
F33.681758880615234
aF204.8036651611328
aF-109.89688873291016
aa(lp18
F33.6993293762207
aF204.80677795410156
aF-109.87010192871094
aa(lp19
F33.71200942993164
aF204.80125427246094
aF-109.86821746826172
aa(lp20
F33.72397994995117
aF204.80335998535156
aF-109.86106872558594
aa(lp21
F33.73103713989258
aF204.79815673828125
aF-109.87305450439453
aa(lp22
F33.73770523071289
aF204.7991180419922
aF-109.86714935302734
aa(lp23
F33.743839263916016
aF204.7987823486328
aF-109.85185241699219
aa(lp24
F33.74674606323242
aF204.796142578125
aF-109.88320922851562
aa(lp25
F33.750099182128906
aF204.7984161376953
aF-109.87745666503906
aa(lp26
F33.75395202636719
aF204.80178833007812
aF-109.8595962524414
aa(lp27
F33.756019592285156
aF204.80198669433594
aF-109.85102844238281
aa(lp28
F33.757083892822266
aF204.79803466796875
aF-109.84548950195312
aa(lp29
F33.75864791870117
aF204.79612731933594
aF-109.84757995605469
aa(lp30
F33.7603645324707
aF204.8008270263672
aF-109.86399841308594
aa(lp31
F33.76030731201172
aF204.794921875
aF-109.86073303222656
aa(lp32
F33.761268615722656
aF204.79505920410156
aF-109.85511779785156
aa(lp33
F33.761844635009766
aF204.79933166503906
aF-109.85618591308594
aa(lp34
F33.761653900146484
aF204.80050659179688
aF-109.89068603515625
aa(lp35
F33.76262283325195
aF204.8029327392578
aF-109.89227294921875
aa(lp36
F33.76347351074219
aF204.8084716796875
aF-109.9055404663086
aa(lp37
F33.76373291015625
aF204.80850219726562
aF-109.88898468017578
aa(lp38
F33.76329040527344
aF204.80502319335938
aF-109.89395904541016
aa(lp39
F33.7645149230957
aF204.80960083007812
aF-109.88967895507812
aa.