(lp0
(lp1
F37.307674407958984
aF181.2742462158203
aF-47.36781311035156
aa(lp2
F37.40111541748047
aF181.29580688476562
aF-47.96238327026367
aa(lp3
F37.46456527709961
aF181.31063842773438
aF-48.41327667236328
aa(lp4
F37.56079864501953
aF181.29446411132812
aF-48.77490997314453
aa(lp5
F37.62582778930664
aF181.28778076171875
aF-49.07073974609375
aa(lp6
F37.64887619018555
aF181.3122100830078
aF-49.31449508666992
aa(lp7
F37.684810638427734
aF181.33030700683594
aF-49.53529357910156
aa(lp8
F37.681976318359375
aF181.34310913085938
aF-49.6904182434082
aa(lp9
F37.69853210449219
aF181.3519744873047
aF-49.8232536315918
aa(lp10
F37.68413162231445
aF181.36036682128906
aF-49.9256591796875
aa(lp11
F37.667991638183594
aF181.35891723632812
aF-50.00117492675781
aa(lp12
F37.685211181640625
aF181.3577423095703
aF-50.08021545410156
aa(lp13
F37.695674896240234
aF181.35536193847656
aF-50.14453887939453
aa(lp14
F37.7255859375
aF181.33912658691406
aF-50.19498825073242
aa(lp15
F37.75052261352539
aF181.33287048339844
aF-50.23577880859375
aa(lp16
F37.76143264770508
aF181.33570861816406
aF-50.27032470703125
aa(lp17
F37.71516036987305
aF181.35366821289062
aF-50.302894592285156
aa(lp18
F37.730751037597656
aF181.33792114257812
aF-50.33073806762695
aa(lp19
F37.72464370727539
aF181.33026123046875
aF-50.349212646484375
aa(lp20
F37.70412826538086
aF181.3229522705078
aF-50.359073638916016
aa(lp21
F37.6988639831543
aF181.32797241210938
aF-50.373966217041016
aa(lp22
F37.71311569213867
aF181.3179931640625
aF-50.38776397705078
aa(lp23
F37.71522521972656
aF181.3271026611328
aF-50.395503997802734
aa(lp24
F37.73300552368164
aF181.3465576171875
aF-50.411827087402344
aa(lp25
F37.749210357666016
aF181.3066864013672
aF-50.40858840942383
aa(lp26
F37.73828887939453
aF181.30430603027344
aF-50.408302307128906
aa(lp27
F37.72738265991211
aF181.29432678222656
aF-50.405975341796875
aa(lp28
F37.7104606628418
aF181.2960968017578
aF-50.40924072265625
aa(lp29
F37.69802474975586
aF181.3145751953125
aF-50.41566848754883
aa(lp30
F37.69990539550781
aF181.3076629638672
aF-50.41188049316406
aa(lp31
F37.73221969604492
aF181.31982421875
aF-50.42848587036133
aa(lp32
F37.721614837646484
aF181.32107543945312
aF-50.42799758911133
aa(lp33
F37.6990852355957
aF181.32887268066406
aF-50.4302864074707
aa(lp34
F37.6860237121582
aF181.3155517578125
aF-50.425289154052734
aa(lp35
F37.71847915649414
aF181.30416870117188
aF-50.42558288574219
aa(lp36
F37.748802185058594
aF181.28977966308594
aF-50.42017364501953
aa(lp37
F37.74588394165039
aF181.27891540527344
aF-50.4187126159668
aa(lp38
F37.71700668334961
aF181.2940673828125
aF-50.41929626464844
aa(lp39
F37.721317291259766
aF181.28684997558594
aF-50.416603088378906
aa(lp40
F37.73934555053711
aF181.29588317871094
aF-50.43058395385742
aa(lp41
F37.70532989501953
aF181.30426025390625
aF-50.43095779418945
aa(lp42
F37.71058654785156
aF181.3082275390625
aF-50.42890930175781
aa(lp43
F37.72999954223633
aF181.32144165039062
aF-50.43888854980469
aa(lp44
F37.7030029296875
aF181.3267822265625
aF-50.437103271484375
aa(lp45
F37.729026794433594
aF181.31903076171875
aF-50.435977935791016
aa(lp46
F37.769954681396484
aF181.3196258544922
aF-50.44275665283203
aa(lp47
F37.757076263427734
aF181.32032775878906
aF-50.44366455078125
aa.