(lp0
(lp1
F33.86635971069336
aF207.73355102539062
aF-107.55377197265625
aa(lp2
F33.846046447753906
aF207.74554443359375
aF-107.58599853515625
aa(lp3
F33.81818771362305
aF207.73977661132812
aF-107.59711456298828
aa(lp4
F33.80500030517578
aF207.74571228027344
aF-107.6076431274414
aa(lp5
F33.794376373291016
aF207.74842834472656
aF-107.61839294433594
aa(lp6
F33.78971481323242
aF207.76312255859375
aF-107.62952423095703
aa(lp7
F33.78482437133789
aF207.76844787597656
aF-107.63815307617188
aa(lp8
F33.77935028076172
aF207.75601196289062
aF-107.63786315917969
aa(lp9
F33.77357482910156
aF207.7541046142578
aF-107.63729095458984
aa(lp10
F33.7744255065918
aF207.75205993652344
aF-107.64165496826172
aa(lp11
F33.7733268737793
aF207.75563049316406
aF-107.64433288574219
aa(lp12
F33.774208068847656
aF207.74891662597656
aF-107.64694213867188
aa(lp13
F33.778846740722656
aF207.75828552246094
aF-107.65576934814453
aa(lp14
F33.778221130371094
aF207.75694274902344
aF-107.6563491821289
aa(lp15
F33.77097702026367
aF207.7458038330078
aF-107.64971923828125
aa(lp16
F33.77137756347656
aF207.75221252441406
aF-107.6501235961914
aa(lp17
F33.77250289916992
aF207.75743103027344
aF-107.65486145019531
aa(lp18
F33.77014923095703
aF207.7633819580078
aF-107.65254974365234
aa(lp19
F33.77070236206055
aF207.75802612304688
aF-107.65528106689453
aa(lp20
F33.771732330322266
aF207.75509643554688
aF-107.65685272216797
aa(lp21
F33.769371032714844
aF207.7541046142578
aF-107.65972137451172
aa(lp22
F33.76921844482422
aF207.7522735595703
aF-107.65729522705078
aa(lp23
F33.77137756347656
aF207.7533416748047
aF-107.66014099121094
aa(lp24
F33.77186965942383
aF207.76132202148438
aF-107.6607666015625
aa(lp25
F33.7746467590332
aF207.7662811279297
aF-107.6631851196289
aa(lp26
F33.770938873291016
aF207.76065063476562
aF-107.65772247314453
aa(lp27
F33.7685546875
aF207.7652130126953
aF-107.65935516357422
aa(lp28
F33.76458740234375
aF207.76002502441406
aF-107.65210723876953
aa(lp29
F33.770721435546875
aF207.7575225830078
aF-107.65874481201172
aa(lp30
F33.77187728881836
aF207.755126953125
aF-107.66069030761719
aa(lp31
F33.77117919921875
aF207.75421142578125
aF-107.6579360961914
aa(lp32
F33.77544021606445
aF207.75462341308594
aF-107.65897369384766
aa.