(lp0
(lp1
F36.61143493652344
aF180.78707885742188
aF-47.27008819580078
aa(lp2
F36.55424880981445
aF180.85891723632812
aF-48.0716552734375
aa(lp3
F36.575653076171875
aF180.86053466796875
aF-48.44377136230469
aa(lp4
F36.51811599731445
aF180.9014892578125
aF-48.77530288696289
aa(lp5
F36.54857635498047
aF180.9077911376953
aF-49.13302230834961
aa(lp6
F36.55472946166992
aF180.9100799560547
aF-49.27577590942383
aa(lp7
F36.518924713134766
aF180.92721557617188
aF-49.43657684326172
aa(lp8
F36.56166076660156
aF180.91497802734375
aF-49.590110778808594
aa(lp9
F36.56832504272461
aF180.92474365234375
aF-49.68954849243164
aa(lp10
F36.580142974853516
aF180.93724060058594
aF-49.79816818237305
aa(lp11
F36.597896575927734
aF180.9134521484375
aF-49.84218215942383
aa(lp12
F36.60291290283203
aF180.9064483642578
aF-49.885013580322266
aa(lp13
F36.58619689941406
aF180.91542053222656
aF-49.92523956298828
aa(lp14
F36.64222717285156
aF180.9150848388672
aF-49.96258544921875
aa(lp15
F36.630775451660156
aF180.92254638671875
aF-49.988468170166016
aa(lp16
F36.638614654541016
aF180.9239959716797
aF-50.00117874145508
aa(lp17
F36.63505554199219
aF180.92218017578125
aF-50.014400482177734
aa(lp18
F36.61953353881836
aF180.92750549316406
aF-50.03103256225586
aa(lp19
F36.61606979370117
aF180.9347686767578
aF-50.041847229003906
aa(lp20
F36.63480758666992
aF180.91017150878906
aF-50.04673385620117
aa(lp21
F36.67070388793945
aF180.89553833007812
aF-50.041412353515625
aa(lp22
F36.65741729736328
aF180.8932342529297
aF-50.04603958129883
aa(lp23
F36.65278625488281
aF180.9058380126953
aF-50.057559967041016
aa(lp24
F36.60386276245117
aF180.9315948486328
aF-50.0770149230957
aa(lp25
F36.58555603027344
aF180.93881225585938
aF-50.0854377746582
aa(lp26
F36.62124252319336
aF180.93247985839844
aF-50.07953643798828
aa(lp27
F36.5907096862793
aF180.9308624267578
aF-50.08466720581055
aa(lp28
F36.63127899169922
aF180.91265869140625
aF-50.07539749145508
aa(lp29
F36.58817672729492
aF180.92198181152344
aF-50.08232116699219
aa(lp30
F36.6143913269043
aF180.90625
aF-50.07218551635742
aa(lp31
F36.60273742675781
aF180.91815185546875
aF-50.076393127441406
aa(lp32
F36.55844497680664
aF180.93463134765625
aF-50.093666076660156
aa(lp33
F36.57065200805664
aF180.93617248535156
aF-50.09855651855469
aa(lp34
F36.566471099853516
aF180.92791748046875
aF-50.092838287353516
aa(lp35
F36.59528732299805
aF180.90924072265625
aF-50.08421325683594
aa(lp36
F36.593170166015625
aF180.9147186279297
aF-50.08543395996094
aa(lp37
F36.55924987792969
aF180.9180450439453
aF-50.095130920410156
aa(lp38
F36.566497802734375
aF180.92282104492188
aF-50.09489059448242
aa(lp39
F36.587867736816406
aF180.91680908203125
aF-50.09332275390625
aa(lp40
F36.591575622558594
aF180.91287231445312
aF-50.085914611816406
aa(lp41
F36.57622528076172
aF180.90777587890625
aF-50.08504867553711
aa(lp42
F36.54951095581055
aF180.91944885253906
aF-50.091880798339844
aa(lp43
F36.57706069946289
aF180.89505004882812
aF-50.07785415649414
aa.