(lp0
(lp1
F37.487144470214844
aF181.02896118164062
aF-46.7109260559082
aa(lp2
F37.56047058105469
aF181.01856994628906
aF-47.340240478515625
aa(lp3
F37.625484466552734
aF181.0248565673828
aF-47.911865234375
aa(lp4
F37.66529846191406
aF181.0159912109375
aF-48.40468978881836
aa(lp5
F37.7000846862793
aF180.98171997070312
aF-48.764339447021484
aa(lp6
F37.7388801574707
aF180.9669952392578
aF-49.04103469848633
aa(lp7
F37.74550247192383
aF180.9788055419922
aF-49.2935676574707
aa(lp8
F37.78314208984375
aF180.97117614746094
aF-49.5103645324707
aa(lp9
F37.81490707397461
aF180.9431915283203
aF-49.65888214111328
aa(lp10
F37.84101104736328
aF180.92514038085938
aF-49.76729965209961
aa(lp11
F37.854026794433594
aF180.92971801757812
aF-49.89384078979492
aa(lp12
F37.86152648925781
aF180.92491149902344
aF-49.98407745361328
aa(lp13
F37.86174392700195
aF180.93890380859375
aF-50.06190490722656
aa(lp14
F37.86280822753906
aF180.94216918945312
aF-50.11878204345703
aa(lp15
F37.86904525756836
aF180.93295288085938
aF-50.16124725341797
aa(lp16
F37.88933563232422
aF180.93356323242188
aF-50.20404815673828
aa(lp17
F37.89312744140625
aF180.9251251220703
aF-50.234981536865234
aa(lp18
F37.90314483642578
aF180.93563842773438
aF-50.260501861572266
aa(lp19
F37.89463806152344
aF180.92752075195312
aF-50.26896286010742
aa(lp20
F37.87346649169922
aF180.9295654296875
aF-50.27653121948242
aa(lp21
F37.860660552978516
aF180.93539428710938
aF-50.294898986816406
aa(lp22
F37.858421325683594
aF180.9272918701172
aF-50.308265686035156
aa(lp23
F37.8817024230957
aF180.9221649169922
aF-50.318885803222656
aa(lp24
F37.915977478027344
aF180.9099884033203
aF-50.31777572631836
aa(lp25
F37.89338684082031
aF180.92613220214844
aF-50.32292556762695
aa(lp26
F37.90361022949219
aF180.92897033691406
aF-50.32709503173828
aa(lp27
F37.92158126831055
aF180.90611267089844
aF-50.33436584472656
aa(lp28
F37.8961181640625
aF180.9201202392578
aF-50.33857345581055
aa(lp29
F37.91218566894531
aF180.92071533203125
aF-50.34121322631836
aa(lp30
F37.84877014160156
aF180.93484497070312
aF-50.336891174316406
aa(lp31
F37.851097106933594
aF180.93753051757812
aF-50.33545684814453
aa(lp32
F37.84290313720703
aF180.94590759277344
aF-50.349056243896484
aa(lp33
F37.87015914916992
aF180.93580627441406
aF-50.35013198852539
aa(lp34
F37.8836669921875
aF180.9235382080078
aF-50.3343505859375
aa(lp35
F37.8802604675293
aF180.9118194580078
aF-50.32697296142578
aa(lp36
F37.88570022583008
aF180.9148406982422
aF-50.33686828613281
aa(lp37
F37.9015998840332
aF180.91510009765625
aF-50.34422302246094
aa(lp38
F37.919761657714844
aF180.91156005859375
aF-50.3399658203125
aa(lp39
F37.93174362182617
aF180.91920471191406
aF-50.350284576416016
aa(lp40
F37.91514205932617
aF180.93057250976562
aF-50.351654052734375
aa(lp41
F37.94229507446289
aF180.90936279296875
aF-50.354549407958984
aa(lp42
F37.90770721435547
aF180.9114227294922
aF-50.34778594970703
aa(lp43
F37.87886428833008
aF180.9184112548828
aF-50.35051727294922
aa(lp44
F37.9238166809082
aF180.89793395996094
aF-50.34727096557617
aa(lp45
F37.921024322509766
aF180.89183044433594
aF-50.341773986816406
aa(lp46
F37.9007568359375
aF180.90943908691406
aF-50.3428955078125
aa.