(lp0
(lp1
F36.71338653564453
aF180.83670043945312
aF-46.83881378173828
aa(lp2
F36.75791931152344
aF180.85116577148438
aF-47.37796401977539
aa(lp3
F36.784114837646484
aF180.86817932128906
aF-47.748985290527344
aa(lp4
F36.81782150268555
aF180.88511657714844
aF-48.253211975097656
aa(lp5
F36.841796875
aF180.89259338378906
aF-48.51935577392578
aa(lp6
F36.86027145385742
aF180.90179443359375
aF-48.725154876708984
aa(lp7
F36.83164596557617
aF180.9374542236328
aF-49.08222198486328
aa(lp8
F36.84135055541992
aF180.9293975830078
aF-49.23190689086914
aa(lp9
F36.8600959777832
aF180.91900634765625
aF-49.35237503051758
aa(lp10
F36.86616134643555
aF180.91650390625
aF-49.53522491455078
aa(lp11
F36.88341522216797
aF180.92665100097656
aF-49.61373519897461
aa(lp12
F36.904510498046875
aF180.92788696289062
aF-49.67768096923828
aa(lp13
F36.92063903808594
aF180.92442321777344
aF-49.751197814941406
aa(lp14
F36.90940856933594
aF180.92869567871094
aF-49.80238723754883
aa(lp15
F36.90794372558594
aF180.9356231689453
aF-49.84883117675781
aa(lp16
F36.891422271728516
aF180.9571990966797
aF-49.9014778137207
aa(lp17
F36.876441955566406
aF180.968994140625
aF-49.92607498168945
aa(lp18
F36.89106369018555
aF180.9723663330078
aF-49.94672775268555
aa(lp19
F36.87675857543945
aF180.983642578125
aF-49.97333526611328
aa(lp20
F36.88321304321289
aF180.97254943847656
aF-49.980201721191406
aa(lp21
F36.89125061035156
aF180.9718475341797
aF-49.997859954833984
aa(lp22
F36.90808868408203
aF180.9711151123047
aF-50.00099563598633
aa(lp23
F36.921260833740234
aF180.96487426757812
aF-50.00621795654297
aa(lp24
F36.92139434814453
aF180.9591827392578
aF-50.01069259643555
aa(lp25
F36.91157150268555
aF180.97674560546875
aF-50.021724700927734
aa(lp26
F36.87487030029297
aF180.98709106445312
aF-50.03403854370117
aa(lp27
F36.876338958740234
aF180.99600219726562
aF-50.037147521972656
aa(lp28
F36.888023376464844
aF180.98435974121094
aF-50.03399658203125
aa(lp29
F36.87914276123047
aF180.9890594482422
aF-50.041996002197266
aa(lp30
F36.85599899291992
aF180.9840087890625
aF-50.046226501464844
aa(lp31
F36.82747268676758
aF180.99513244628906
aF-50.05889129638672
aa(lp32
F36.80131912231445
aF181.0168914794922
aF-50.07210159301758
aa(lp33
F36.76676559448242
aF181.03887939453125
aF-50.08641815185547
aa(lp34
F36.66379928588867
aF181.0779571533203
aF-50.11720657348633
aa(lp35
F36.6837043762207
aF181.08287048339844
aF-50.11450958251953
aa(lp36
F36.69622039794922
aF181.0780029296875
aF-50.11083984375
aa(lp37
F36.682044982910156
aF181.10409545898438
aF-50.11774444580078
aa(lp38
F36.681983947753906
aF181.0938720703125
aF-50.114097595214844
aa(lp39
F36.658729553222656
aF181.10569763183594
aF-50.12459182739258
aa(lp40
F36.6768684387207
aF181.10325622558594
aF-50.123512268066406
aa(lp41
F36.64598083496094
aF181.1209716796875
aF-50.12853240966797
aa(lp42
F36.68634796142578
aF181.110595703125
aF-50.11832809448242
aa(lp43
F36.70472717285156
aF181.09498596191406
aF-50.11345291137695
aa(lp44
F36.73126220703125
aF181.0846710205078
aF-50.10708236694336
aa(lp45
F36.701900482177734
aF181.10125732421875
aF-50.11668395996094
aa.