(lp0
(lp1
F33.820701599121094
aF207.63722229003906
aF-107.49378204345703
aa(lp2
F33.789710998535156
aF207.63157653808594
aF-107.50940704345703
aa(lp3
F33.77487564086914
aF207.6397247314453
aF-107.5301513671875
aa(lp4
F33.76653289794922
aF207.6484375
aF-107.54988861083984
aa(lp5
F33.7562255859375
aF207.6471710205078
aF-107.55606079101562
aa(lp6
F33.747962951660156
aF207.6421661376953
aF-107.56417846679688
aa(lp7
F33.74411392211914
aF207.6385040283203
aF-107.56892395019531
aa(lp8
F33.738525390625
aF207.63336181640625
aF-107.56710815429688
aa(lp9
F33.73360061645508
aF207.62277221679688
aF-107.56228637695312
aa(lp10
F33.73332214355469
aF207.63168334960938
aF-107.57113647460938
aa(lp11
F33.72552490234375
aF207.630615234375
aF-107.57044219970703
aa(lp12
F33.72163772583008
aF207.62997436523438
aF-107.56913757324219
aa(lp13
F33.72245788574219
aF207.61917114257812
aF-107.56522369384766
aa(lp14
F33.72623062133789
aF207.63577270507812
aF-107.57716369628906
aa(lp15
F33.73240280151367
aF207.64427185058594
aF-107.58275604248047
aa(lp16
F33.72837829589844
aF207.64724731445312
aF-107.58273315429688
aa(lp17
F33.725162506103516
aF207.6334228515625
aF-107.57518005371094
aa(lp18
F33.72066116333008
aF207.6392822265625
aF-107.5750961303711
aa(lp19
F33.7209587097168
aF207.62496948242188
aF-107.57259368896484
aa(lp20
F33.72037124633789
aF207.6265106201172
aF-107.57306671142578
aa(lp21
F33.716922760009766
aF207.61729431152344
aF-107.56341552734375
aa(lp22
F33.71868896484375
aF207.63148498535156
aF-107.5735855102539
aa(lp23
F33.72052764892578
aF207.6331024169922
aF-107.57363891601562
aa(lp24
F33.718589782714844
aF207.62982177734375
aF-107.57369995117188
aa(lp25
F33.719078063964844
aF207.63758850097656
aF-107.57257080078125
aa(lp26
F33.72550582885742
aF207.6432647705078
aF-107.5779037475586
aa(lp27
F33.7243537902832
aF207.64187622070312
aF-107.5785140991211
aa(lp28
F33.716732025146484
aF207.62139892578125
aF-107.5658950805664
aa(lp29
F33.71500015258789
aF207.62936401367188
aF-107.56397247314453
aa(lp30
F33.72147750854492
aF207.6321258544922
aF-107.5670394897461
aa.