(lp0
(lp1
F31.304861068725586
aF204.93316650390625
aF-110.71326446533203
aa(lp2
F31.768285751342773
aF204.90841674804688
aF-110.61236572265625
aa(lp3
F32.17803955078125
aF204.88023376464844
aF-110.53190612792969
aa(lp4
F32.534244537353516
aF204.85342407226562
aF-110.44586181640625
aa(lp5
F32.790870666503906
aF204.8426055908203
aF-110.4000015258789
aa(lp6
F32.97634506225586
aF204.83328247070312
aF-110.34857940673828
aa(lp7
F33.14128112792969
aF204.81954956054688
aF-110.32158660888672
aa(lp8
F33.2591552734375
aF204.80606079101562
aF-110.29666137695312
aa(lp9
F33.36042785644531
aF204.79576110839844
aF-110.27069091796875
aa(lp10
F33.441383361816406
aF204.7902374267578
aF-110.2708740234375
aa(lp11
F33.50419235229492
aF204.78729248046875
aF-110.26448059082031
aa(lp12
F33.55723571777344
aF204.78515625
aF-110.24552917480469
aa(lp13
F33.600440979003906
aF204.77780151367188
aF-110.22423553466797
aa(lp14
F33.63431930541992
aF204.7769775390625
aF-110.2243881225586
aa(lp15
F33.66469192504883
aF204.7755889892578
aF-110.21281433105469
aa(lp16
F33.68709945678711
aF204.76937866210938
aF-110.19428253173828
aa(lp17
F33.705322265625
aF204.7690887451172
aF-110.19242095947266
aa(lp18
F33.72066116333008
aF204.76974487304688
aF-110.17310333251953
aa(lp19
F33.73358154296875
aF204.76959228515625
aF-110.187255859375
aa(lp20
F33.74324035644531
aF204.76441955566406
aF-110.17024230957031
aa(lp21
F33.750099182128906
aF204.7639923095703
aF-110.1692123413086
aa(lp22
F33.75712966918945
aF204.76412963867188
aF-110.15404510498047
aa(lp23
F33.761940002441406
aF204.76573181152344
aF-110.14822387695312
aa(lp24
F33.7656135559082
aF204.7653045654297
aF-110.13822174072266
aa(lp25
F33.769779205322266
aF204.7632293701172
aF-110.14674377441406
aa(lp26
F33.77089309692383
aF204.75746154785156
aF-110.16101837158203
aa(lp27
F33.77323532104492
aF204.758544921875
aF-110.14280700683594
aa(lp28
F33.775543212890625
aF204.76124572753906
aF-110.14232635498047
aa(lp29
F33.77712631225586
aF204.76153564453125
aF-110.14454650878906
aa(lp30
F33.7786750793457
aF204.7652130126953
aF-110.14449310302734
aa(lp31
F33.77883529663086
aF204.76458740234375
aF-110.15081024169922
aa(lp32
F33.78037643432617
aF204.7690887451172
aF-110.17654418945312
aa(lp33
F33.78089141845703
aF204.76708984375
aF-110.17147827148438
aa(lp34
F33.782020568847656
aF204.77003479003906
aF-110.18559265136719
aa(lp35
F33.78376770019531
aF204.77395629882812
aF-110.18798828125
aa(lp36
F33.783206939697266
aF204.76873779296875
aF-110.19862365722656
aa(lp37
F33.78369140625
aF204.766845703125
aF-110.19670104980469
aa(lp38
F33.7840576171875
aF204.7681427001953
aF-110.17891693115234
aa(lp39
F33.782989501953125
aF204.7624053955078
aF-110.17509460449219
aa(lp40
F33.78270721435547
aF204.75865173339844
aF-110.17243194580078
aa(lp41
F33.78264617919922
aF204.75965881347656
aF-110.16316986083984
aa.