(lp0
(lp1
F37.632293701171875
aF180.95701599121094
aF-47.284568786621094
aa(lp2
F37.71833801269531
aF180.95265197753906
aF-47.77864456176758
aa(lp3
F37.775146484375
aF180.9556884765625
aF-48.1365966796875
aa(lp4
F37.831912994384766
aF180.9730224609375
aF-48.53175354003906
aa(lp5
F37.87227249145508
aF180.96905517578125
aF-48.82367706298828
aa(lp6
F37.90292739868164
aF180.9700164794922
aF-49.07477951049805
aa(lp7
F37.92118453979492
aF180.99583435058594
aF-49.293209075927734
aa(lp8
F37.95173263549805
aF181.0055389404297
aF-49.47024917602539
aa(lp9
F37.9738655090332
aF181.01004028320312
aF-49.605533599853516
aa(lp10
F37.9666748046875
aF181.01011657714844
aF-49.72873306274414
aa(lp11
F38.006080627441406
aF181.0240936279297
aF-49.84178161621094
aa(lp12
F38.043785095214844
aF181.0405731201172
aF-49.92724609375
aa(lp13
F38.040138244628906
aF181.03379821777344
aF-49.99605941772461
aa(lp14
F38.05845260620117
aF181.02708435058594
aF-50.059932708740234
aa(lp15
F38.07429504394531
aF181.03060913085938
aF-50.10599899291992
aa(lp16
F38.08906173706055
aF181.03305053710938
aF-50.15165328979492
aa(lp17
F38.08415603637695
aF181.00721740722656
aF-50.17328643798828
aa(lp18
F38.084022521972656
aF181.01004028320312
aF-50.20042419433594
aa(lp19
F38.07123947143555
aF181.01754760742188
aF-50.22423553466797
aa(lp20
F38.06450653076172
aF181.02456665039062
aF-50.24447250366211
aa(lp21
F38.06536102294922
aF181.0257110595703
aF-50.2564582824707
aa(lp22
F38.085411071777344
aF181.02987670898438
aF-50.269317626953125
aa(lp23
F38.098594665527344
aF181.02098083496094
aF-50.27708435058594
aa(lp24
F38.11793899536133
aF181.00865173339844
aF-50.275413513183594
aa(lp25
F38.08967971801758
aF181.0303497314453
aF-50.282989501953125
aa(lp26
F38.065528869628906
aF181.02462768554688
aF-50.26963424682617
aa(lp27
F38.10457992553711
aF181.0363311767578
aF-50.27920913696289
aa(lp28
F38.112491607666016
aF181.0397491455078
aF-50.28545379638672
aa(lp29
F38.125003814697266
aF181.0351104736328
aF-50.286128997802734
aa(lp30
F38.15275573730469
aF181.02471923828125
aF-50.28220748901367
aa(lp31
F38.13677215576172
aF181.00416564941406
aF-50.29505157470703
aa(lp32
F38.154544830322266
aF181.00592041015625
aF-50.29997634887695
aa(lp33
F38.163330078125
aF180.9906768798828
aF-50.2976188659668
aa(lp34
F38.15756607055664
aF180.9935760498047
aF-50.30110549926758
aa(lp35
F38.15241622924805
aF180.99269104003906
aF-50.30876541137695
aa(lp36
F38.13968276977539
aF180.98753356933594
aF-50.313411712646484
aa(lp37
F38.15364074707031
aF181.00001525878906
aF-50.311466217041016
aa(lp38
F38.15135955810547
aF181.00648498535156
aF-50.30846405029297
aa(lp39
F38.1494140625
aF181.005126953125
aF-50.30567169189453
aa(lp40
F38.152244567871094
aF181.0083770751953
aF-50.314170837402344
aa(lp41
F38.15343475341797
aF181.02725219726562
aF-50.323875427246094
aa(lp42
F38.15369415283203
aF181.03094482421875
aF-50.33005905151367
aa(lp43
F38.14107894897461
aF181.03854370117188
aF-50.33462905883789
aa(lp44
F38.13235092163086
aF181.03408813476562
aF-50.32144546508789
aa(lp45
F38.131568908691406
aF181.02870178222656
aF-50.3082275390625
aa(lp46
F38.136619567871094
aF181.0238494873047
aF-50.303489685058594
aa(lp47
F38.084590911865234
aF181.03819274902344
aF-50.30942916870117
aa(lp48
F38.10678482055664
aF181.03729248046875
aF-50.31240463256836
aa.