(lp0
(lp1
F33.85743713378906
aF207.64663696289062
aF-107.49829864501953
aa(lp2
F33.83174514770508
aF207.65650939941406
aF-107.53231811523438
aa(lp3
F33.81507873535156
aF207.6602020263672
aF-107.5517349243164
aa(lp4
F33.800498962402344
aF207.66232299804688
aF-107.56929779052734
aa(lp5
F33.78793716430664
aF207.64987182617188
aF-107.5735855102539
aa(lp6
F33.77872085571289
aF207.65554809570312
aF-107.58152770996094
aa(lp7
F33.77397155761719
aF207.66070556640625
aF-107.59149169921875
aa(lp8
F33.77490234375
aF207.6636199951172
aF-107.60203552246094
aa(lp9
F33.77363967895508
aF207.66452026367188
aF-107.6072998046875
aa(lp10
F33.76622772216797
aF207.6643524169922
aF-107.60591125488281
aa(lp11
F33.76403045654297
aF207.6634979248047
aF-107.60491180419922
aa(lp12
F33.762107849121094
aF207.6620635986328
aF-107.60889434814453
aa(lp13
F33.75712585449219
aF207.66232299804688
aF-107.60823059082031
aa(lp14
F33.75935745239258
aF207.66445922851562
aF-107.6090087890625
aa(lp15
F33.759796142578125
aF207.66249084472656
aF-107.60823822021484
aa(lp16
F33.76027297973633
aF207.6630401611328
aF-107.6081771850586
aa(lp17
F33.76340866088867
aF207.66558837890625
aF-107.61453247070312
aa(lp18
F33.76227569580078
aF207.66943359375
aF-107.6123046875
aa(lp19
F33.76261520385742
aF207.668212890625
aF-107.61324310302734
aa(lp20
F33.763084411621094
aF207.66656494140625
aF-107.61414337158203
aa(lp21
F33.76732635498047
aF207.66409301757812
aF-107.61817169189453
aa(lp22
F33.761009216308594
aF207.6545867919922
aF-107.61485290527344
aa(lp23
F33.76108932495117
aF207.66102600097656
aF-107.61505889892578
aa(lp24
F33.76353454589844
aF207.67152404785156
aF-107.6239013671875
aa(lp25
F33.76319122314453
aF207.6723175048828
aF-107.62195587158203
aa(lp26
F33.76199722290039
aF207.6739501953125
aF-107.6189193725586
aa(lp27
F33.75675582885742
aF207.6634521484375
aF-107.60808563232422
aa(lp28
F33.75825119018555
aF207.66807556152344
aF-107.61414337158203
aa(lp29
F33.75737380981445
aF207.6610107421875
aF-107.60978698730469
aa(lp30
F33.759857177734375
aF207.67294311523438
aF-107.6147689819336
aa(lp31
F33.76033401489258
aF207.6774139404297
aF-107.61820983886719
aa(lp32
F33.766178131103516
aF207.6670684814453
aF-107.61990356445312
aa.