(lp0
(lp1
F31.048233032226562
aF205.00637817382812
aF-110.7577133178711
aa(lp2
F31.631641387939453
aF204.98521423339844
aF-110.62564086914062
aa(lp3
F32.10389709472656
aF204.96817016601562
aF-110.51995849609375
aa(lp4
F32.5010986328125
aF204.94573974609375
aF-110.42304229736328
aa(lp5
F32.79640197753906
aF204.9369354248047
aF-110.34860229492188
aa(lp6
F32.984397888183594
aF204.93055725097656
aF-110.31548309326172
aa(lp7
F33.16326904296875
aF204.9230499267578
aF-110.27046966552734
aa(lp8
F33.30475616455078
aF204.92025756835938
aF-110.24213409423828
aa(lp9
F33.410736083984375
aF204.91476440429688
aF-110.22148895263672
aa(lp10
F33.496150970458984
aF204.90472412109375
aF-110.20926666259766
aa(lp11
F33.57227325439453
aF204.90354919433594
aF-110.17743682861328
aa(lp12
F33.62092971801758
aF204.90625
aF-110.15644073486328
aa(lp13
F33.66102600097656
aF204.90736389160156
aF-110.1557388305664
aa(lp14
F33.691654205322266
aF204.9121551513672
aF-110.14308166503906
aa(lp15
F33.71413803100586
aF204.9091796875
aF-110.15170288085938
aa(lp16
F33.733543395996094
aF204.90550231933594
aF-110.14427947998047
aa(lp17
F33.74749755859375
aF204.90187072753906
aF-110.13072967529297
aa(lp18
F33.759002685546875
aF204.89950561523438
aF-110.12348937988281
aa(lp19
F33.768798828125
aF204.9044952392578
aF-110.11701965332031
aa(lp20
F33.776737213134766
aF204.90187072753906
aF-110.1229019165039
aa(lp21
F33.782100677490234
aF204.89700317382812
aF-110.11930084228516
aa(lp22
F33.78569030761719
aF204.88816833496094
aF-110.11865234375
aa(lp23
F33.7888069152832
aF204.8828887939453
aF-110.10720825195312
aa(lp24
F33.79191207885742
aF204.88026428222656
aF-110.09937286376953
aa(lp25
F33.794612884521484
aF204.8811492919922
aF-110.12133026123047
aa(lp26
F33.7953987121582
aF204.88072204589844
aF-110.12101745605469
aa(lp27
F33.79689025878906
aF204.8822479248047
aF-110.11453247070312
aa(lp28
F33.798824310302734
aF204.8825225830078
aF-110.10923767089844
aa(lp29
F33.79862594604492
aF204.87832641601562
aF-110.09562683105469
aa(lp30
F33.79917907714844
aF204.87567138671875
aF-110.10392761230469
aa(lp31
F33.80076599121094
aF204.8741455078125
aF-110.12086486816406
aa(lp32
F33.801143646240234
aF204.8727264404297
aF-110.10932159423828
aa(lp33
F33.80098342895508
aF204.8719940185547
aF-110.1011962890625
aa(lp34
F33.799896240234375
aF204.87115478515625
aF-110.10344696044922
aa(lp35
F33.798927307128906
aF204.87335205078125
aF-110.09811401367188
aa(lp36
F33.795013427734375
aF204.8705291748047
aF-110.10684204101562
aa(lp37
F33.79318618774414
aF204.86819458007812
aF-110.10772705078125
aa(lp38
F33.79105758666992
aF204.8730010986328
aF-110.1125259399414
aa.