(lp0
(lp1
F43.58652114868164
aF208.52589416503906
aF-94.97611999511719
aa(lp2
F43.58652114868164
aF208.52589416503906
aF-94.97611999511719
aa(lp3
F43.58652114868164
aF208.52589416503906
aF-94.97611999511719
aa(lp4
F43.58652114868164
aF208.52589416503906
aF-94.97611999511719
aa(lp5
F43.58652114868164
aF208.52589416503906
aF-94.97611999511719
aa(lp6
F43.58652114868164
aF208.52589416503906
aF-94.97611999511719
aa(lp7
F43.58652114868164
aF208.52589416503906
aF-94.97611999511719
aa(lp8
F43.58652114868164
aF208.52589416503906
aF-94.97611999511719
aa(lp9
F43.58652114868164
aF208.52589416503906
aF-94.97611999511719
aa(lp10
F43.58652114868164
aF208.52589416503906
aF-94.97611999511719
aa(lp11
F43.5825080871582
aF208.52603149414062
aF-94.97981262207031
aa(lp12
F43.50540542602539
aF208.5283660888672
aF-95.05072784423828
aa(lp13
F43.3538932800293
aF208.53367614746094
aF-95.19042205810547
aa(lp14
F43.073726654052734
aF208.5423126220703
aF-95.4485092163086
aa(lp15
F42.741817474365234
aF208.55328369140625
aF-95.75376892089844
aa(lp16
F42.38539505004883
aF208.56407165527344
aF-96.0809097290039
aa(lp17
F41.88362121582031
aF208.5785369873047
aF-96.54118347167969
aa(lp18
F41.343963623046875
aF208.5972900390625
aF-97.03943634033203
aa(lp19
F40.74029541015625
aF208.61495971679688
aF-97.59345245361328
aa(lp20
F40.09973907470703
aF208.6328887939453
aF-98.18291473388672
aa(lp21
F39.427635192871094
aF208.657470703125
aF-98.80415344238281
aa(lp22
F38.77275466918945
aF208.6766815185547
aF-99.40653228759766
aa(lp23
F38.09489059448242
aF208.69947814941406
aF-100.02986145019531
aa(lp24
F37.40858840942383
aF208.71661376953125
aF-100.6605224609375
aa(lp25
F36.74213409423828
aF208.7384490966797
aF-101.2757339477539
aa(lp26
F36.10077667236328
aF208.7550506591797
aF-101.86322784423828
aa(lp27
F35.48714828491211
aF208.779541015625
aF-102.42655181884766
aa(lp28
F34.95915222167969
aF208.79649353027344
aF-102.91465759277344
aa(lp29
F34.42889404296875
aF208.81626892089844
aF-103.40692138671875
aa.