(lp0
(lp1
F31.248064041137695
aF208.98609924316406
aF-106.18738555908203
aa(lp2
F31.115821838378906
aF208.99319458007812
aF-106.3103256225586
aa(lp3
F31.014118194580078
aF208.995849609375
aF-106.40119171142578
aa(lp4
F30.945098876953125
aF208.9958953857422
aF-106.47134399414062
aa(lp5
F30.88509178161621
aF208.9942169189453
aF-106.52677154541016
aa(lp6
F30.84660530090332
aF208.99232482910156
aF-106.55555725097656
aa(lp7
F30.816801071166992
aF208.99339294433594
aF-106.5768814086914
aa(lp8
F30.795637130737305
aF208.99423217773438
aF-106.59587860107422
aa(lp9
F30.782127380371094
aF209.00047302246094
aF-106.61787414550781
aa(lp10
F30.76278305053711
aF208.99598693847656
aF-106.6202392578125
aa(lp11
F30.75539207458496
aF208.9984588623047
aF-106.6264877319336
aa(lp12
F30.750688552856445
aF208.99378967285156
aF-106.63130187988281
aa(lp13
F30.752212524414062
aF209.0155487060547
aF-106.65217590332031
aa(lp14
F30.74629783630371
aF209.0099334716797
aF-106.6503677368164
aa(lp15
F30.743118286132812
aF209.00453186035156
aF-106.64410400390625
aa(lp16
F30.74289894104004
aF209.00318908691406
aF-106.64729309082031
aa(lp17
F30.74118995666504
aF208.99900817871094
aF-106.65003204345703
aa(lp18
F30.73723793029785
aF208.99948120117188
aF-106.64685821533203
aa(lp19
F30.734045028686523
aF208.99176025390625
aF-106.63829040527344
aa(lp20
F30.738420486450195
aF209.0056610107422
aF-106.65209197998047
aa(lp21
F30.731721878051758
aF208.9976043701172
aF-106.64147186279297
aa(lp22
F30.72955894470215
aF208.9962615966797
aF-106.64151000976562
aa(lp23
F30.733440399169922
aF208.9934844970703
aF-106.64567565917969
aa(lp24
F30.730440139770508
aF208.99012756347656
aF-106.63805389404297
aa(lp25
F30.725818634033203
aF208.99009704589844
aF-106.63166046142578
aa(lp26
F30.72726821899414
aF208.9933624267578
aF-106.6357192993164
aa(lp27
F30.734251022338867
aF208.9952850341797
aF-106.64324951171875
aa.