(lp0
(lp1
F30.803239822387695
aF204.9654998779297
aF-110.71363830566406
aa(lp2
F31.442913055419922
aF204.9337615966797
aF-110.55477905273438
aa(lp3
F31.881223678588867
aF204.9052276611328
aF-110.43763732910156
aa(lp4
F32.270301818847656
aF204.88929748535156
aF-110.3646240234375
aa(lp5
F32.55213928222656
aF204.87770080566406
aF-110.3024673461914
aa(lp6
F32.82724380493164
aF204.86158752441406
aF-110.22245788574219
aa(lp7
F33.031089782714844
aF204.854736328125
aF-110.15489959716797
aa(lp8
F33.18331527709961
aF204.8425750732422
aF-110.10541534423828
aa(lp9
F33.29804229736328
aF204.84091186523438
aF-110.09435272216797
aa(lp10
F33.386966705322266
aF204.83670043945312
aF-110.05332946777344
aa(lp11
F33.4542350769043
aF204.8313751220703
aF-110.04026794433594
aa(lp12
F33.50886535644531
aF204.8318634033203
aF-110.02093505859375
aa(lp13
F33.551387786865234
aF204.8340301513672
aF-110.00660705566406
aa(lp14
F33.587100982666016
aF204.8288116455078
aF-110.01525115966797
aa(lp15
F33.61609649658203
aF204.8184814453125
aF-110.0020523071289
aa(lp16
F33.63911056518555
aF204.82022094726562
aF-109.99549865722656
aa(lp17
F33.65793228149414
aF204.818359375
aF-109.99626922607422
aa(lp18
F33.671627044677734
aF204.8156280517578
aF-109.98531341552734
aa(lp19
F33.681819915771484
aF204.81764221191406
aF-109.98027038574219
aa(lp20
F33.69184875488281
aF204.81805419921875
aF-109.96888732910156
aa(lp21
F33.699520111083984
aF204.82057189941406
aF-109.95480346679688
aa(lp22
F33.70576477050781
aF204.82469177246094
aF-109.95835876464844
aa(lp23
F33.71070861816406
aF204.83042907714844
aF-109.96336364746094
aa(lp24
F33.71269226074219
aF204.8274383544922
aF-109.96498107910156
aa(lp25
F33.71450424194336
aF204.82534790039062
aF-109.97174835205078
aa(lp26
F33.71695327758789
aF204.82315063476562
aF-109.94925689697266
aa(lp27
F33.71769714355469
aF204.8199462890625
aF-109.98155212402344
aa(lp28
F33.71835708618164
aF204.82015991210938
aF-109.9879379272461
aa(lp29
F33.71938705444336
aF204.82029724121094
aF-109.97412872314453
aa(lp30
F33.720428466796875
aF204.81829833984375
aF-109.97119140625
aa(lp31
F33.72200012207031
aF204.8238067626953
aF-109.96339416503906
aa(lp32
F33.72296142578125
aF204.82470703125
aF-109.96043395996094
aa(lp33
F33.7230339050293
aF204.82237243652344
aF-109.9622802734375
aa(lp34
F33.72237014770508
aF204.8202667236328
aF-109.98046875
aa(lp35
F33.722084045410156
aF204.81776428222656
aF-109.97726440429688
aa(lp36
F33.72236633300781
aF204.81492614746094
aF-109.97612762451172
aa(lp37
F33.72307205200195
aF204.8185272216797
aF-109.97469329833984
aa.