(lp0
(lp1
F30.99347496032715
aF204.90480041503906
aF-110.62003326416016
aa(lp2
F31.658203125
aF204.8787841796875
aF-110.45433044433594
aa(lp3
F32.125911712646484
aF204.8589630126953
aF-110.32977294921875
aa(lp4
F32.49043655395508
aF204.84336853027344
aF-110.22695922851562
aa(lp5
F32.80047607421875
aF204.83018493652344
aF-110.16207885742188
aa(lp6
F33.012020111083984
aF204.82427978515625
aF-110.10462951660156
aa(lp7
F33.17496871948242
aF204.81593322753906
aF-110.09182739257812
aa(lp8
F33.3192138671875
aF204.8133544921875
aF-110.05697631835938
aa(lp9
F33.40970993041992
aF204.81224060058594
aF-110.03624725341797
aa(lp10
F33.478614807128906
aF204.81088256835938
aF-110.02376556396484
aa(lp11
F33.53873062133789
aF204.80906677246094
aF-109.9961929321289
aa(lp12
F33.58647155761719
aF204.80528259277344
aF-109.9676513671875
aa(lp13
F33.61907196044922
aF204.80352783203125
aF-109.9608154296875
aa(lp14
F33.647911071777344
aF204.80247497558594
aF-109.95186614990234
aa(lp15
F33.66755294799805
aF204.80117797851562
aF-109.94743347167969
aa(lp16
F33.68049240112305
aF204.7968292236328
aF-109.96617126464844
aa(lp17
F33.69112014770508
aF204.7907257080078
aF-109.98465728759766
aa(lp18
F33.70024871826172
aF204.79092407226562
aF-109.97924041748047
aa(lp19
F33.70764923095703
aF204.7870635986328
aF-109.96275329589844
aa(lp20
F33.7147216796875
aF204.79180908203125
aF-109.96356964111328
aa(lp21
F33.72013854980469
aF204.79576110839844
aF-109.97298431396484
aa(lp22
F33.7233772277832
aF204.79293823242188
aF-109.99713897705078
aa(lp23
F33.72785568237305
aF204.79656982421875
aF-110.01071166992188
aa(lp24
F33.73051071166992
aF204.79794311523438
aF-110.00077819824219
aa(lp25
F33.731380462646484
aF204.7991943359375
aF-110.00050354003906
aa(lp26
F33.73258972167969
aF204.79681396484375
aF-109.98626708984375
aa(lp27
F33.73505783081055
aF204.80343627929688
aF-109.99688720703125
aa(lp28
F33.73550796508789
aF204.8000030517578
aF-109.99579620361328
aa(lp29
F33.73652648925781
aF204.80650329589844
aF-109.99169921875
aa(lp30
F33.73641586303711
aF204.8022003173828
aF-109.98539733886719
aa(lp31
F33.73702621459961
aF204.8034210205078
aF-109.96676635742188
aa(lp32
F33.73746109008789
aF204.80650329589844
aF-109.9601058959961
aa(lp33
F33.73745346069336
aF204.8054656982422
aF-109.9454345703125
aa(lp34
F33.73782730102539
aF204.80625915527344
aF-109.940185546875
aa.