(lp0
(lp1
F37.32233810424805
aF181.19541931152344
aF-46.47267532348633
aa(lp2
F37.41600799560547
aF181.17080688476562
aF-47.19761657714844
aa(lp3
F37.49126052856445
aF181.16824340820312
aF-47.792877197265625
aa(lp4
F37.5615234375
aF181.17202758789062
aF-48.259708404541016
aa(lp5
F37.590328216552734
aF181.1577606201172
aF-48.6525764465332
aa(lp6
F37.628143310546875
aF181.15162658691406
aF-48.963741302490234
aa(lp7
F37.657623291015625
aF181.13543701171875
aF-49.20944595336914
aa(lp8
F37.70066452026367
aF181.12579345703125
aF-49.424198150634766
aa(lp9
F37.72330856323242
aF181.12669372558594
aF-49.61299514770508
aa(lp10
F37.77276611328125
aF181.1278533935547
aF-49.76515197753906
aa(lp11
F37.764404296875
aF181.1422119140625
aF-49.870784759521484
aa(lp12
F37.74656677246094
aF181.14437866210938
aF-49.95595932006836
aa(lp13
F37.731201171875
aF181.14541625976562
aF-50.03273391723633
aa(lp14
F37.78955078125
aF181.1318359375
aF-50.10853576660156
aa(lp15
F37.787837982177734
aF181.1396942138672
aF-50.170249938964844
aa(lp16
F37.81123352050781
aF181.11865234375
aF-50.20722579956055
aa(lp17
F37.798728942871094
aF181.11331176757812
aF-50.231407165527344
aa(lp18
F37.813209533691406
aF181.10543823242188
aF-50.25436782836914
aa(lp19
F37.800498962402344
aF181.10313415527344
aF-50.27519226074219
aa(lp20
F37.76609802246094
aF181.1046142578125
aF-50.290653228759766
aa(lp21
F37.812644958496094
aF181.0835723876953
aF-50.300411224365234
aa(lp22
F37.849735260009766
aF181.072998046875
aF-50.31425094604492
aa(lp23
F37.86130142211914
aF181.0772247314453
aF-50.32583999633789
aa(lp24
F37.85474395751953
aF181.05459594726562
aF-50.33071517944336
aa(lp25
F37.84996795654297
aF181.0730743408203
aF-50.34312438964844
aa(lp26
F37.82843017578125
aF181.07789611816406
aF-50.35286331176758
aa(lp27
F37.83088684082031
aF181.09413146972656
aF-50.35989761352539
aa(lp28
F37.840965270996094
aF181.09722900390625
aF-50.36412811279297
aa(lp29
F37.81849670410156
aF181.1027374267578
aF-50.360595703125
aa(lp30
F37.803951263427734
aF181.0897979736328
aF-50.35976028442383
aa(lp31
F37.81446838378906
aF181.10826110839844
aF-50.36720657348633
aa(lp32
F37.82249450683594
aF181.11399841308594
aF-50.37022018432617
aa(lp33
F37.795440673828125
aF181.09976196289062
aF-50.36486053466797
aa(lp34
F37.81119155883789
aF181.1100311279297
aF-50.37135696411133
aa(lp35
F37.80527114868164
aF181.0838623046875
aF-50.3635139465332
aa(lp36
F37.836456298828125
aF181.0664825439453
aF-50.36152267456055
aa(lp37
F37.83503723144531
aF181.0683135986328
aF-50.36032485961914
aa(lp38
F37.8427734375
aF181.06361389160156
aF-50.35872268676758
aa(lp39
F37.831512451171875
aF181.05934143066406
aF-50.358917236328125
aa(lp40
F37.82624435424805
aF181.07302856445312
aF-50.366050720214844
aa(lp41
F37.81657028198242
aF181.0615234375
aF-50.364402770996094
aa(lp42
F37.810306549072266
aF181.06915283203125
aF-50.36735153198242
aa(lp43
F37.8127555847168
aF181.06980895996094
aF-50.3674201965332
aa(lp44
F37.856788635253906
aF181.0758056640625
aF-50.37407302856445
aa(lp45
F37.86664962768555
aF181.0806884765625
aF-50.37693405151367
aa(lp46
F37.84751892089844
aF181.07122802734375
aF-50.37055206298828
aa(lp47
F37.842933654785156
aF181.05349731445312
aF-50.360069274902344
aa.