(lp0
(lp1
F31.051029205322266
aF204.9713897705078
aF-110.74443054199219
aa(lp2
F31.569583892822266
aF204.9471893310547
aF-110.59059143066406
aa(lp3
F32.026065826416016
aF204.9336395263672
aF-110.47761535644531
aa(lp4
F32.38438415527344
aF204.91253662109375
aF-110.39702606201172
aa(lp5
F32.669334411621094
aF204.9007110595703
aF-110.30657958984375
aa(lp6
F32.90263748168945
aF204.89552307128906
aF-110.24417877197266
aa(lp7
F33.0637321472168
aF204.89126586914062
aF-110.20758056640625
aa(lp8
F33.210262298583984
aF204.88233947753906
aF-110.17301940917969
aa(lp9
F33.330299377441406
aF204.88121032714844
aF-110.13402557373047
aa(lp10
F33.417259216308594
aF204.88052368164062
aF-110.12022399902344
aa(lp11
F33.494632720947266
aF204.87245178222656
aF-110.09283447265625
aa(lp12
F33.54431915283203
aF204.872802734375
aF-110.08805084228516
aa(lp13
F33.581241607666016
aF204.86973571777344
aF-110.07823944091797
aa(lp14
F33.6160888671875
aF204.86712646484375
aF-110.0633773803711
aa(lp15
F33.64252471923828
aF204.8613739013672
aF-110.05309295654297
aa(lp16
F33.66463851928711
aF204.86273193359375
aF-110.04615020751953
aa(lp17
F33.68241500854492
aF204.86305236816406
aF-110.04096221923828
aa(lp18
F33.69463348388672
aF204.8621063232422
aF-110.04861450195312
aa(lp19
F33.704612731933594
aF204.86717224121094
aF-110.04505920410156
aa(lp20
F33.711936950683594
aF204.86691284179688
aF-110.05611419677734
aa(lp21
F33.716796875
aF204.8645782470703
aF-110.04576873779297
aa(lp22
F33.720951080322266
aF204.86642456054688
aF-110.05914306640625
aa(lp23
F33.726009368896484
aF204.86888122558594
aF-110.0433578491211
aa(lp24
F33.72848129272461
aF204.87229919433594
aF-110.0435791015625
aa(lp25
F33.73248291015625
aF204.8745880126953
aF-110.02659606933594
aa(lp26
F33.73487854003906
aF204.87506103515625
aF-110.02252197265625
aa(lp27
F33.734989166259766
aF204.8705291748047
aF-110.03536987304688
aa(lp28
F33.735713958740234
aF204.8695526123047
aF-110.02557373046875
aa(lp29
F33.735572814941406
aF204.8676300048828
aF-110.03759765625
aa(lp30
F33.73505783081055
aF204.8623809814453
aF-110.0483169555664
aa(lp31
F33.73533248901367
aF204.8621063232422
aF-110.04000854492188
aa(lp32
F33.73538589477539
aF204.86204528808594
aF-110.03520202636719
aa(lp33
F33.73480224609375
aF204.8570098876953
aF-110.03589630126953
aa(lp34
F33.734230041503906
aF204.8528289794922
aF-110.02900695800781
aa(lp35
F33.73352813720703
aF204.8489532470703
aF-110.032470703125
aa(lp36
F33.73392105102539
aF204.84994506835938
aF-110.02839660644531
aa.