(lp0
(lp1
F33.8781852722168
aF207.69900512695312
aF-107.52886962890625
aa(lp2
F33.850196838378906
aF207.697509765625
aF-107.5543212890625
aa(lp3
F33.832881927490234
aF207.70521545410156
aF-107.57164001464844
aa(lp4
F33.82537841796875
aF207.715576171875
aF-107.60002136230469
aa(lp5
F33.81489562988281
aF207.72308349609375
aF-107.6148681640625
aa(lp6
F33.8050651550293
aF207.72291564941406
aF-107.62388610839844
aa(lp7
F33.795249938964844
aF207.70973205566406
aF-107.62564086914062
aa(lp8
F33.790653228759766
aF207.69485473632812
aF-107.62467956542969
aa(lp9
F33.78264617919922
aF207.69374084472656
aF-107.6200942993164
aa(lp10
F33.78236770629883
aF207.69241333007812
aF-107.62714385986328
aa(lp11
F33.779518127441406
aF207.69863891601562
aF-107.63170623779297
aa(lp12
F33.77433776855469
aF207.6842041015625
aF-107.62532043457031
aa(lp13
F33.78052520751953
aF207.69679260253906
aF-107.63455200195312
aa(lp14
F33.77943420410156
aF207.69456481933594
aF-107.63456726074219
aa(lp15
F33.7772331237793
aF207.6886444091797
aF-107.63042449951172
aa(lp16
F33.774044036865234
aF207.68844604492188
aF-107.6274642944336
aa(lp17
F33.773292541503906
aF207.69277954101562
aF-107.63016510009766
aa(lp18
F33.77294921875
aF207.69351196289062
aF-107.62783813476562
aa(lp19
F33.77284622192383
aF207.69088745117188
aF-107.62891387939453
aa(lp20
F33.7783317565918
aF207.69224548339844
aF-107.6353530883789
aa(lp21
F33.76893997192383
aF207.67979431152344
aF-107.62816619873047
aa(lp22
F33.769649505615234
aF207.6834716796875
aF-107.63033294677734
aa(lp23
F33.769683837890625
aF207.6821746826172
aF-107.63001251220703
aa(lp24
F33.7706184387207
aF207.68409729003906
aF-107.62963104248047
aa(lp25
F33.766597747802734
aF207.67745971679688
aF-107.62413787841797
aa(lp26
F33.768028259277344
aF207.67506408691406
aF-107.62126159667969
aa(lp27
F33.76820373535156
aF207.67445373535156
aF-107.62165069580078
aa(lp28
F33.76521301269531
aF207.6719207763672
aF-107.61743927001953
aa(lp29
F33.761436462402344
aF207.66580200195312
aF-107.61722564697266
aa(lp30
F33.760009765625
aF207.6653594970703
aF-107.61475372314453
aa(lp31
F33.76367950439453
aF207.666259765625
aF-107.61962127685547
aa(lp32
F33.766239166259766
aF207.67465209960938
aF-107.62408447265625
aa(lp33
F33.77073669433594
aF207.68211364746094
aF-107.62946319580078
aa.