(lp0
(lp1
F48.013755798339844
aF208.45101928710938
aF-91.24542999267578
aa(lp2
F48.013755798339844
aF208.45101928710938
aF-91.24542999267578
aa(lp3
F48.013755798339844
aF208.45101928710938
aF-91.24542999267578
aa(lp4
F48.013755798339844
aF208.45101928710938
aF-91.24542999267578
aa(lp5
F48.013755798339844
aF208.45101928710938
aF-91.24542999267578
aa(lp6
F48.0125617980957
aF208.4510498046875
aF-91.24650573730469
aa(lp7
F47.946754455566406
aF208.45252990722656
aF-91.30567169189453
aa(lp8
F47.8281135559082
aF208.4549102783203
aF-91.4120101928711
aa(lp9
F47.59066390991211
aF208.45973205566406
aF-91.62458801269531
aa(lp10
F47.29180908203125
aF208.46583557128906
aF-91.89237976074219
aa(lp11
F46.850486755371094
aF208.4737091064453
aF-92.28854370117188
aa(lp12
F46.3829345703125
aF208.48252868652344
aF-92.70712280273438
aa(lp13
F45.907798767089844
aF208.4909210205078
aF-93.13272094726562
aa(lp14
F45.312583923339844
aF208.50360107421875
aF-93.66717529296875
aa(lp15
F44.726078033447266
aF208.51292419433594
aF-94.19095611572266
aa(lp16
F44.068756103515625
aF208.52667236328125
aF-94.77932739257812
aa(lp17
F43.39241409301758
aF208.53970336914062
aF-95.3844985961914
aa(lp18
F42.64024353027344
aF208.55368041992188
aF-96.05813598632812
aa(lp19
F41.87303924560547
aF208.56845092773438
aF-96.7451171875
aa(lp20
F41.192283630371094
aF208.58267211914062
aF-97.3564682006836
aa(lp21
F40.47194290161133
aF208.5994110107422
aF-98.00312805175781
aa(lp22
F39.78132247924805
aF208.61636352539062
aF-98.62659454345703
aa(lp23
F39.11506271362305
aF208.62757873535156
aF-99.22077178955078
aa(lp24
F38.39411926269531
aF208.64276123046875
aF-99.86967468261719
aa(lp25
F37.75741195678711
aF208.65426635742188
aF-100.43985748291016
aa(lp26
F37.06803512573242
aF208.66786193847656
aF-101.0573959350586
aa(lp27
F36.492950439453125
aF208.67605590820312
aF-101.57241821289062
aa(lp28
F35.956398010253906
aF208.69039916992188
aF-102.05371856689453
aa(lp29
F35.39592361450195
aF208.7008056640625
aF-102.55302429199219
aa(lp30
F34.919036865234375
aF208.71469116210938
aF-102.98222351074219
aa.