(lp0
(lp1
F30.804431915283203
aF204.95718383789062
aF-110.66453552246094
aa(lp2
F31.386072158813477
aF204.932373046875
aF-110.53227996826172
aa(lp3
F31.830101013183594
aF204.91351318359375
aF-110.41465759277344
aa(lp4
F32.23657989501953
aF204.8975372314453
aF-110.3226089477539
aa(lp5
F32.545040130615234
aF204.88156127929688
aF-110.24589538574219
aa(lp6
F32.79990005493164
aF204.87332153320312
aF-110.16830444335938
aa(lp7
F32.99064636230469
aF204.85671997070312
aF-110.10091400146484
aa(lp8
F33.13081741333008
aF204.85226440429688
aF-110.07669067382812
aa(lp9
F33.25931167602539
aF204.84539794921875
aF-110.03843688964844
aa(lp10
F33.359371185302734
aF204.84226989746094
aF-110.01885986328125
aa(lp11
F33.43030548095703
aF204.8447723388672
aF-109.99346923828125
aa(lp12
F33.489173889160156
aF204.84298706054688
aF-109.97797393798828
aa(lp13
F33.539459228515625
aF204.83413696289062
aF-109.9645767211914
aa(lp14
F33.57541275024414
aF204.83425903320312
aF-109.95298767089844
aa(lp15
F33.60732650756836
aF204.83731079101562
aF-109.96861267089844
aa(lp16
F33.63498306274414
aF204.83575439453125
aF-109.96546936035156
aa(lp17
F33.65283966064453
aF204.83352661132812
aF-109.96475219726562
aa(lp18
F33.66926193237305
aF204.8314666748047
aF-109.94840240478516
aa(lp19
F33.682682037353516
aF204.83633422851562
aF-109.94122314453125
aa(lp20
F33.692630767822266
aF204.83432006835938
aF-109.94290161132812
aa(lp21
F33.70130920410156
aF204.83763122558594
aF-109.92584991455078
aa(lp22
F33.70735549926758
aF204.8361358642578
aF-109.93602752685547
aa(lp23
F33.71258544921875
aF204.83682250976562
aF-109.93673706054688
aa(lp24
F33.71625518798828
aF204.8347930908203
aF-109.93087768554688
aa(lp25
F33.720558166503906
aF204.83810424804688
aF-109.93850708007812
aa(lp26
F33.72292709350586
aF204.83619689941406
aF-109.91475677490234
aa(lp27
F33.72477722167969
aF204.83718872070312
aF-109.91795349121094
aa(lp28
F33.72648239135742
aF204.83921813964844
aF-109.91499328613281
aa(lp29
F33.72684860229492
aF204.83766174316406
aF-109.93255615234375
aa(lp30
F33.72721862792969
aF204.8367919921875
aF-109.9323501586914
aa(lp31
F33.727596282958984
aF204.83453369140625
aF-109.91759490966797
aa(lp32
F33.7281379699707
aF204.83523559570312
aF-109.91356658935547
aa(lp33
F33.728397369384766
aF204.8374481201172
aF-109.92709350585938
aa(lp34
F33.7294807434082
aF204.83920288085938
aF-109.9385757446289
aa(lp35
F33.73042297363281
aF204.83892822265625
aF-109.93843841552734
aa(lp36
F33.73079299926758
aF204.8405303955078
aF-109.94464111328125
aa(lp37
F33.73115539550781
aF204.84625244140625
aF-109.94649505615234
aa.