(lp0
(lp1
F37.30158615112305
aF181.10781860351562
aF-46.85786437988281
aa(lp2
F37.348976135253906
aF181.13522338867188
aF-47.550025939941406
aa(lp3
F37.355228424072266
aF181.16871643066406
aF-48.199501037597656
aa(lp4
F37.3794059753418
aF181.17752075195312
aF-48.54487991333008
aa(lp5
F37.374969482421875
aF181.20298767089844
aF-48.831634521484375
aa(lp6
F37.435298919677734
aF181.20126342773438
aF-49.231231689453125
aa(lp7
F37.45515441894531
aF181.21144104003906
aF-49.42875671386719
aa(lp8
F37.4462890625
aF181.22418212890625
aF-49.57382583618164
aa(lp9
F37.44441604614258
aF181.23089599609375
aF-49.782318115234375
aa(lp10
F37.459632873535156
aF181.2367401123047
aF-49.88444519042969
aa(lp11
F37.4874267578125
aF181.23126220703125
aF-49.96453857421875
aa(lp12
F37.50124740600586
aF181.2279052734375
aF-50.04922866821289
aa(lp13
F37.4896240234375
aF181.23007202148438
aF-50.09479522705078
aa(lp14
F37.49814224243164
aF181.22564697265625
aF-50.128623962402344
aa(lp15
F37.49537658691406
aF181.244140625
aF-50.16973114013672
aa(lp16
F37.53355407714844
aF181.2493133544922
aF-50.18888854980469
aa(lp17
F37.5524787902832
aF181.24276733398438
aF-50.2052001953125
aa(lp18
F37.505855560302734
aF181.25802612304688
aF-50.21649169921875
aa(lp19
F37.50441360473633
aF181.26327514648438
aF-50.22963333129883
aa(lp20
F37.51312255859375
aF181.2573699951172
aF-50.23793029785156
aa(lp21
F37.5225715637207
aF181.26626586914062
aF-50.242557525634766
aa(lp22
F37.531524658203125
aF181.26364135742188
aF-50.24694061279297
aa(lp23
F37.55227279663086
aF181.24575805664062
aF-50.24885940551758
aa(lp24
F37.561500549316406
aF181.27066040039062
aF-50.26231002807617
aa(lp25
F37.53392791748047
aF181.27682495117188
aF-50.25896072387695
aa(lp26
F37.51925277709961
aF181.27122497558594
aF-50.258609771728516
aa(lp27
F37.55305862426758
aF181.26815795898438
aF-50.261112213134766
aa(lp28
F37.53496170043945
aF181.28172302246094
aF-50.26082229614258
aa(lp29
F37.57733917236328
aF181.27076721191406
aF-50.261749267578125
aa(lp30
F37.56904220581055
aF181.27574157714844
aF-50.26865768432617
aa(lp31
F37.56727981567383
aF181.26364135742188
aF-50.266319274902344
aa(lp32
F37.52967834472656
aF181.2838134765625
aF-50.26820373535156
aa(lp33
F37.52600860595703
aF181.2783660888672
aF-50.270477294921875
aa(lp34
F37.53469467163086
aF181.269775390625
aF-50.26451110839844
aa(lp35
F37.5257682800293
aF181.26492309570312
aF-50.258384704589844
aa(lp36
F37.476131439208984
aF181.29356384277344
aF-50.26298141479492
aa(lp37
F37.467288970947266
aF181.31077575683594
aF-50.275634765625
aa(lp38
F37.49381637573242
aF181.30441284179688
aF-50.275936126708984
aa(lp39
F37.519248962402344
aF181.31214904785156
aF-50.27670669555664
aa(lp40
F37.494590759277344
aF181.3242950439453
aF-50.278263092041016
aa(lp41
F37.47621154785156
aF181.3184051513672
aF-50.27873992919922
aa(lp42
F37.46511459350586
aF181.3196258544922
aF-50.281986236572266
aa.