(lp0
(lp1
F30.4919376373291
aF204.98561096191406
aF-110.83232879638672
aa(lp2
F31.160961151123047
aF204.95773315429688
aF-110.66221618652344
aa(lp3
F31.652231216430664
aF204.93173217773438
aF-110.53165435791016
aa(lp4
F32.136390686035156
aF204.90908813476562
aF-110.4264907836914
aa(lp5
F32.44498062133789
aF204.89300537109375
aF-110.35517120361328
aa(lp6
F32.705345153808594
aF204.88255310058594
aF-110.29363250732422
aa(lp7
F32.951332092285156
aF204.87648010253906
aF-110.24396514892578
aa(lp8
F33.11734390258789
aF204.86427307128906
aF-110.19515991210938
aa(lp9
F33.245399475097656
aF204.85731506347656
aF-110.16424560546875
aa(lp10
F33.35772705078125
aF204.84951782226562
aF-110.12346649169922
aa(lp11
F33.44017028808594
aF204.8397674560547
aF-110.11239624023438
aa(lp12
F33.511173248291016
aF204.83851623535156
aF-110.08707427978516
aa(lp13
F33.57154083251953
aF204.83779907226562
aF-110.0998306274414
aa(lp14
F33.618125915527344
aF204.8352813720703
aF-110.09234619140625
aa(lp15
F33.65167236328125
aF204.8358612060547
aF-110.07733917236328
aa(lp16
F33.67701721191406
aF204.83389282226562
aF-110.06715393066406
aa(lp17
F33.69917297363281
aF204.83157348632812
aF-110.05331420898438
aa(lp18
F33.71796417236328
aF204.8328094482422
aF-110.06529998779297
aa(lp19
F33.73019027709961
aF204.8290557861328
aF-110.05284118652344
aa(lp20
F33.74070358276367
aF204.8247833251953
aF-110.05245971679688
aa(lp21
F33.748260498046875
aF204.81614685058594
aF-110.0496597290039
aa(lp22
F33.75594711303711
aF204.81504821777344
aF-110.0475082397461
aa(lp23
F33.762813568115234
aF204.8174591064453
aF-110.04505920410156
aa(lp24
F33.76698303222656
aF204.81744384765625
aF-110.03460693359375
aa(lp25
F33.769493103027344
aF204.81463623046875
aF-110.0443344116211
aa(lp26
F33.772315979003906
aF204.816650390625
aF-110.03521728515625
aa(lp27
F33.77625274658203
aF204.8232879638672
aF-110.03486633300781
aa(lp28
F33.77619171142578
aF204.81683349609375
aF-110.02801513671875
aa(lp29
F33.7772102355957
aF204.8158416748047
aF-110.0207748413086
aa(lp30
F33.776981353759766
aF204.81663513183594
aF-110.02265930175781
aa(lp31
F33.77774429321289
aF204.81817626953125
aF-110.02250671386719
aa(lp32
F33.7783203125
aF204.81764221191406
aF-110.03282165527344
aa(lp33
F33.779911041259766
aF204.82090759277344
aF-110.0376205444336
aa(lp34
F33.781349182128906
aF204.8253173828125
aF-110.02886962890625
aa(lp35
F33.781246185302734
aF204.8255615234375
aF-110.04560852050781
aa(lp36
F33.78102111816406
aF204.82200622558594
aF-110.03633880615234
aa(lp37
F33.78118896484375
aF204.82192993164062
aF-110.03301239013672
aa(lp38
F33.780723571777344
aF204.82110595703125
aF-110.03628540039062
aa.