(lp0
(lp1
F37.87791061401367
aF181.07424926757812
aF-46.744117736816406
aa(lp2
F37.94816589355469
aF181.08303833007812
aF-47.320274353027344
aa(lp3
F38.061649322509766
aF181.09011840820312
aF-48.04022216796875
aa(lp4
F38.145687103271484
aF181.09921264648438
aF-48.44919967651367
aa(lp5
F38.18824768066406
aF181.10780334472656
aF-48.77252197265625
aa(lp6
F38.2502326965332
aF181.1298828125
aF-49.148292541503906
aa(lp7
F38.27919006347656
aF181.13418579101562
aF-49.35636901855469
aa(lp8
F38.28468322753906
aF181.1337890625
aF-49.52387619018555
aa(lp9
F38.294776916503906
aF181.12734985351562
aF-49.70793533325195
aa(lp10
F38.30643081665039
aF181.13424682617188
aF-49.8217658996582
aa(lp11
F38.315452575683594
aF181.14016723632812
aF-49.89985275268555
aa(lp12
F38.328433990478516
aF181.11184692382812
aF-50.00110626220703
aa(lp13
F38.303287506103516
aF181.12332153320312
aF-50.06147766113281
aa(lp14
F38.30657196044922
aF181.10916137695312
aF-50.095706939697266
aa(lp15
F38.3304328918457
aF181.10911560058594
aF-50.14558029174805
aa(lp16
F38.360233306884766
aF181.10728454589844
aF-50.17454147338867
aa(lp17
F38.3768424987793
aF181.1031951904297
aF-50.19821548461914
aa(lp18
F38.37699508666992
aF181.09815979003906
aF-50.22774887084961
aa(lp19
F38.39104080200195
aF181.1147003173828
aF-50.25638198852539
aa(lp20
F38.38319778442383
aF181.12733459472656
aF-50.270267486572266
aa(lp21
F38.37957000732422
aF181.12777709960938
aF-50.28574752807617
aa(lp22
F38.376808166503906
aF181.1219024658203
aF-50.28953552246094
aa(lp23
F38.382972717285156
aF181.1228790283203
aF-50.29621505737305
aa(lp24
F38.41750717163086
aF181.1296844482422
aF-50.30891799926758
aa(lp25
F38.40626525878906
aF181.14515686035156
aF-50.312469482421875
aa(lp26
F38.40814208984375
aF181.13839721679688
aF-50.311180114746094
aa(lp27
F38.39602279663086
aF181.12425231933594
aF-50.30985641479492
aa(lp28
F38.38602066040039
aF181.11598205566406
aF-50.30564498901367
aa(lp29
F38.368064880371094
aF181.12086486816406
aF-50.30958938598633
aa(lp30
F38.38128662109375
aF181.1094512939453
aF-50.31859588623047
aa(lp31
F38.38612747192383
aF181.11904907226562
aF-50.319923400878906
aa(lp32
F38.396080017089844
aF181.109130859375
aF-50.3184928894043
aa(lp33
F38.40959548950195
aF181.1302490234375
aF-50.33140182495117
aa(lp34
F38.40444564819336
aF181.1396942138672
aF-50.32698440551758
aa(lp35
F38.40998840332031
aF181.13465881347656
aF-50.32829284667969
aa(lp36
F38.40900802612305
aF181.1304473876953
aF-50.32221984863281
aa(lp37
F38.40005111694336
aF181.1380157470703
aF-50.328365325927734
aa(lp38
F38.402931213378906
aF181.1303253173828
aF-50.32554626464844
aa(lp39
F38.38557052612305
aF181.13479614257812
aF-50.32346725463867
aa(lp40
F38.39815139770508
aF181.11228942871094
aF-50.309566497802734
aa(lp41
F38.39624786376953
aF181.11898803710938
aF-50.312625885009766
aa(lp42
F38.398685455322266
aF181.12008666992188
aF-50.32335662841797
aa.