(lp0
(lp1
F30.885799407958984
aF204.9813232421875
aF-110.70348358154297
aa(lp2
F31.46426773071289
aF204.9728546142578
aF-110.54261779785156
aa(lp3
F31.98447608947754
aF204.95443725585938
aF-110.39389038085938
aa(lp4
F32.35424041748047
aF204.93991088867188
aF-110.27410888671875
aa(lp5
F32.647525787353516
aF204.9359588623047
aF-110.19660949707031
aa(lp6
F32.87904357910156
aF204.92909240722656
aF-110.14552307128906
aa(lp7
F33.05381393432617
aF204.92251586914062
aF-110.09230041503906
aa(lp8
F33.20586013793945
aF204.9239959716797
aF-110.08645629882812
aa(lp9
F33.31911849975586
aF204.9199981689453
aF-110.04716491699219
aa(lp10
F33.405147552490234
aF204.92092895507812
aF-110.02503204345703
aa(lp11
F33.47732925415039
aF204.92347717285156
aF-110.0248031616211
aa(lp12
F33.53517532348633
aF204.92420959472656
aF-110.00564575195312
aa(lp13
F33.57991409301758
aF204.9182586669922
aF-109.9803695678711
aa(lp14
F33.61658477783203
aF204.91751098632812
aF-109.97212219238281
aa(lp15
F33.64691162109375
aF204.91067504882812
aF-109.9507064819336
aa(lp16
F33.66825866699219
aF204.91378784179688
aF-109.94469451904297
aa(lp17
F33.68629455566406
aF204.9222869873047
aF-109.93192291259766
aa(lp18
F33.70201873779297
aF204.92276000976562
aF-109.92021942138672
aa(lp19
F33.7109260559082
aF204.92198181152344
aF-109.9217758178711
aa(lp20
F33.71807861328125
aF204.91468811035156
aF-109.92487335205078
aa(lp21
F33.72446823120117
aF204.91612243652344
aF-109.92256164550781
aa(lp22
F33.72984313964844
aF204.91537475585938
aF-109.91864013671875
aa(lp23
F33.73298645019531
aF204.9151611328125
aF-109.92552185058594
aa(lp24
F33.734989166259766
aF204.9096221923828
aF-109.92467498779297
aa(lp25
F33.73866653442383
aF204.9130401611328
aF-109.91320037841797
aa(lp26
F33.7395133972168
aF204.90489196777344
aF-109.9028091430664
aa(lp27
F33.74064636230469
aF204.90774536132812
aF-109.9100341796875
aa(lp28
F33.741363525390625
aF204.906494140625
aF-109.90959930419922
aa(lp29
F33.74068832397461
aF204.9037628173828
aF-109.91140747070312
aa(lp30
F33.74222946166992
aF204.906494140625
aF-109.91362762451172
aa(lp31
F33.74392318725586
aF204.90968322753906
aF-109.90483856201172
aa(lp32
F33.74342727661133
aF204.91114807128906
aF-109.92538452148438
aa(lp33
F33.743309020996094
aF204.9077911376953
aF-109.92278289794922
aa(lp34
F33.74398422241211
aF204.91033935546875
aF-109.94312286376953
aa(lp35
F33.745235443115234
aF204.9131622314453
aF-109.93132019042969
aa(lp36
F33.745269775390625
aF204.9124298095703
aF-109.92418670654297
aa.