(lp0
(lp1
F36.59623718261719
aF180.81927490234375
aF-46.32517623901367
aa(lp2
F36.584957122802734
aF180.86636352539062
aF-46.95248031616211
aa(lp3
F36.62615966796875
aF180.90164184570312
aF-47.46116256713867
aa(lp4
F36.70151901245117
aF180.9309844970703
aF-48.08939743041992
aa(lp5
F36.69429016113281
aF180.9503631591797
aF-48.43247985839844
aa(lp6
F36.705101013183594
aF180.9708251953125
aF-48.725250244140625
aa(lp7
F36.679229736328125
aF180.99594116210938
aF-49.100379943847656
aa(lp8
F36.71295166015625
aF180.99838256835938
aF-49.26585006713867
aa(lp9
F36.734619140625
aF180.9959259033203
aF-49.382633209228516
aa(lp10
F36.733062744140625
aF181.00863647460938
aF-49.56760787963867
aa(lp11
F36.74686813354492
aF181.01751708984375
aF-49.66338348388672
aa(lp12
F36.74555206298828
aF181.0010223388672
aF-49.72538757324219
aa(lp13
F36.75819778442383
aF180.98849487304688
aF-49.810462951660156
aa(lp14
F36.76493835449219
aF180.99169921875
aF-49.85935974121094
aa(lp15
F36.772518157958984
aF181.0008544921875
aF-49.89743423461914
aa(lp16
F36.802940368652344
aF181.0039520263672
aF-49.939300537109375
aa(lp17
F36.80974197387695
aF181.0076446533203
aF-49.9595947265625
aa(lp18
F36.834712982177734
aF181.0096435546875
aF-49.9788703918457
aa(lp19
F36.80919647216797
aF181.02481079101562
aF-50.00216293334961
aa(lp20
F36.810184478759766
aF181.02713012695312
aF-50.01647186279297
aa(lp21
F36.76035690307617
aF181.044677734375
aF-50.03709030151367
aa(lp22
F36.784820556640625
aF181.032470703125
aF-50.04350280761719
aa(lp23
F36.8043098449707
aF181.03643798828125
aF-50.04737091064453
aa(lp24
F36.7999267578125
aF181.03797912597656
aF-50.051326751708984
aa(lp25
F36.78382110595703
aF181.04208374023438
aF-50.0600471496582
aa(lp26
F36.804481506347656
aF181.0388641357422
aF-50.05827331542969
aa(lp27
F36.80288314819336
aF181.0379180908203
aF-50.059959411621094
aa(lp28
F36.7955322265625
aF181.03330993652344
aF-50.06184768676758
aa(lp29
F36.774356842041016
aF181.0457763671875
aF-50.07058334350586
aa(lp30
F36.740779876708984
aF181.0644989013672
aF-50.085113525390625
aa(lp31
F36.74599075317383
aF181.04876708984375
aF-50.08211898803711
aa(lp32
F36.750484466552734
aF181.04600524902344
aF-50.082664489746094
aa(lp33
F36.772125244140625
aF181.04339599609375
aF-50.08261489868164
aa(lp34
F36.821136474609375
aF181.02127075195312
aF-50.07106399536133
aa(lp35
F36.81647491455078
aF181.01806640625
aF-50.07197952270508
aa(lp36
F36.78820037841797
aF181.03431701660156
aF-50.080169677734375
aa(lp37
F36.771846771240234
aF181.05606079101562
aF-50.085933685302734
aa(lp38
F36.79215621948242
aF181.04812622070312
aF-50.0836067199707
aa(lp39
F36.81827926635742
aF181.03439331054688
aF-50.076839447021484
aa(lp40
F36.840057373046875
aF181.02870178222656
aF-50.07529830932617
aa(lp41
F36.83235168457031
aF181.03070068359375
aF-50.07566833496094
aa(lp42
F36.80437088012695
aF181.04132080078125
aF-50.08317947387695
aa(lp43
F36.833316802978516
aF181.01890563964844
aF-50.07614517211914
aa(lp44
F36.84696578979492
aF181.019287109375
aF-50.07411575317383
aa.