(lp0
(lp1
F30.594385147094727
aF204.99749755859375
aF-110.89060974121094
aa(lp2
F31.25260353088379
aF204.9831085205078
aF-110.7055435180664
aa(lp3
F31.814464569091797
aF204.97161865234375
aF-110.55301666259766
aa(lp4
F32.23220443725586
aF204.96226501464844
aF-110.44296264648438
aa(lp5
F32.54770278930664
aF204.9559326171875
aF-110.36683654785156
aa(lp6
F32.78471755981445
aF204.94775390625
aF-110.30718231201172
aa(lp7
F32.991058349609375
aF204.9438934326172
aF-110.2589111328125
aa(lp8
F33.13836669921875
aF204.9381103515625
aF-110.22444915771484
aa(lp9
F33.27229309082031
aF204.93157958984375
aF-110.19246673583984
aa(lp10
F33.360748291015625
aF204.93540954589844
aF-110.17949676513672
aa(lp11
F33.44401931762695
aF204.9357147216797
aF-110.14453125
aa(lp12
F33.50115966796875
aF204.93414306640625
aF-110.134521484375
aa(lp13
F33.5478401184082
aF204.935791015625
aF-110.10977172851562
aa(lp14
F33.5839958190918
aF204.9307403564453
aF-110.09537506103516
aa(lp15
F33.617733001708984
aF204.92892456054688
aF-110.08036804199219
aa(lp16
F33.63936233520508
aF204.9279022216797
aF-110.08348083496094
aa(lp17
F33.65749740600586
aF204.9285125732422
aF-110.08814239501953
aa(lp18
F33.67080307006836
aF204.9205780029297
aF-110.09121704101562
aa(lp19
F33.68260955810547
aF204.92007446289062
aF-110.08454132080078
aa(lp20
F33.69089889526367
aF204.91868591308594
aF-110.08277130126953
aa(lp21
F33.69816589355469
aF204.9216766357422
aF-110.0876693725586
aa(lp22
F33.70549011230469
aF204.92823791503906
aF-110.0912857055664
aa(lp23
F33.71025085449219
aF204.9268798828125
aF-110.0827865600586
aa(lp24
F33.713287353515625
aF204.92254638671875
aF-110.07915496826172
aa(lp25
F33.717262268066406
aF204.92417907714844
aF-110.0645523071289
aa(lp26
F33.71946334838867
aF204.92393493652344
aF-110.0572280883789
aa(lp27
F33.72288513183594
aF204.92965698242188
aF-110.05704498291016
aa(lp28
F33.72394561767578
aF204.92884826660156
aF-110.07046508789062
aa(lp29
F33.72395706176758
aF204.9275360107422
aF-110.06715393066406
aa(lp30
F33.72472381591797
aF204.92674255371094
aF-110.07494354248047
aa(lp31
F33.72446060180664
aF204.92703247070312
aF-110.07733917236328
aa(lp32
F33.726470947265625
aF204.9311981201172
aF-110.07555389404297
aa(lp33
F33.726905822753906
aF204.93167114257812
aF-110.07585144042969
aa(lp34
F33.72661209106445
aF204.92868041992188
aF-110.08052825927734
aa(lp35
F33.726810455322266
aF204.9287567138672
aF-110.09071350097656
aa(lp36
F33.727630615234375
aF204.92999267578125
aF-110.07830047607422
aa(lp37
F33.72748947143555
aF204.9303436279297
aF-110.07052612304688
aa.