(lp0
(lp1
F33.83324432373047
aF207.68011474609375
aF-107.48023223876953
aa(lp2
F33.80992126464844
aF207.67770385742188
aF-107.50262451171875
aa(lp3
F33.79182434082031
aF207.67623901367188
aF-107.52007293701172
aa(lp4
F33.77537536621094
aF207.6749725341797
aF-107.53483581542969
aa(lp5
F33.768821716308594
aF207.6767578125
aF-107.5455551147461
aa(lp6
F33.76103973388672
aF207.67709350585938
aF-107.55330657958984
aa(lp7
F33.75642013549805
aF207.6809539794922
aF-107.56175994873047
aa(lp8
F33.757232666015625
aF207.6808319091797
aF-107.57174682617188
aa(lp9
F33.75822830200195
aF207.6869659423828
aF-107.58220672607422
aa(lp10
F33.75386428833008
aF207.69175720214844
aF-107.58966064453125
aa(lp11
F33.746795654296875
aF207.6845245361328
aF-107.58482360839844
aa(lp12
F33.743934631347656
aF207.676513671875
aF-107.58052062988281
aa(lp13
F33.742652893066406
aF207.67857360839844
aF-107.58193969726562
aa(lp14
F33.738563537597656
aF207.6868896484375
aF-107.58219146728516
aa(lp15
F33.740074157714844
aF207.69908142089844
aF-107.58993530273438
aa(lp16
F33.73975372314453
aF207.7071075439453
aF-107.59224700927734
aa(lp17
F33.73915100097656
aF207.7020263671875
aF-107.59379577636719
aa(lp18
F33.739906311035156
aF207.70294189453125
aF-107.59463500976562
aa(lp19
F33.7371826171875
aF207.70230102539062
aF-107.59627532958984
aa(lp20
F33.738887786865234
aF207.7069091796875
aF-107.59947204589844
aa(lp21
F33.73646545410156
aF207.70050048828125
aF-107.59346771240234
aa(lp22
F33.74064254760742
aF207.7018280029297
aF-107.59947204589844
aa(lp23
F33.739410400390625
aF207.70510864257812
aF-107.60023498535156
aa(lp24
F33.73420715332031
aF207.69522094726562
aF-107.59159851074219
aa(lp25
F33.72962188720703
aF207.68603515625
aF-107.58612823486328
aa(lp26
F33.7342643737793
aF207.69320678710938
aF-107.58993530273438
aa(lp27
F33.73313903808594
aF207.68800354003906
aF-107.58495330810547
aa(lp28
F33.729736328125
aF207.6916961669922
aF-107.58106994628906
aa(lp29
F33.73185729980469
aF207.7028350830078
aF-107.5866470336914
aa(lp30
F33.73301315307617
aF207.69703674316406
aF-107.58683776855469
aa(lp31
F33.734642028808594
aF207.68955993652344
aF-107.5857925415039
aa(lp32
F33.73479461669922
aF207.68429565429688
aF-107.58604431152344
aa(lp33
F33.72972106933594
aF207.6759033203125
aF-107.57666778564453
aa(lp34
F33.7266845703125
aF207.67372131347656
aF-107.57466125488281
aa.