(lp0
(lp1
F33.876285552978516
aF207.64605712890625
aF-107.55901336669922
aa(lp2
F33.84402084350586
aF207.64984130859375
aF-107.58351135253906
aa(lp3
F33.83353805541992
aF207.6510009765625
aF-107.602294921875
aa(lp4
F33.82231903076172
aF207.654541015625
aF-107.61695861816406
aa(lp5
F33.81740951538086
aF207.662353515625
aF-107.63469696044922
aa(lp6
F33.814537048339844
aF207.6700897216797
aF-107.65010833740234
aa(lp7
F33.81364440917969
aF207.67807006835938
aF-107.66081237792969
aa(lp8
F33.80886459350586
aF207.68014526367188
aF-107.66474914550781
aa(lp9
F33.80679702758789
aF207.67727661132812
aF-107.66708374023438
aa(lp10
F33.80177307128906
aF207.6771697998047
aF-107.67000579833984
aa(lp11
F33.802574157714844
aF207.67550659179688
aF-107.6723403930664
aa(lp12
F33.79616928100586
aF207.67494201660156
aF-107.66957092285156
aa(lp13
F33.79080581665039
aF207.66981506347656
aF-107.66915893554688
aa(lp14
F33.790218353271484
aF207.67417907714844
aF-107.66741180419922
aa(lp15
F33.78866195678711
aF207.6675567626953
aF-107.66500854492188
aa(lp16
F33.78838348388672
aF207.66128540039062
aF-107.6628646850586
aa(lp17
F33.786739349365234
aF207.66519165039062
aF-107.66594696044922
aa(lp18
F33.78592300415039
aF207.66726684570312
aF-107.66490936279297
aa(lp19
F33.79066467285156
aF207.66795349121094
aF-107.66911315917969
aa(lp20
F33.78755187988281
aF207.65866088867188
aF-107.6631851196289
aa(lp21
F33.787269592285156
aF207.66004943847656
aF-107.65966033935547
aa(lp22
F33.78520584106445
aF207.65438842773438
aF-107.65605163574219
aa(lp23
F33.78445053100586
aF207.65451049804688
aF-107.65774536132812
aa(lp24
F33.78226089477539
aF207.65916442871094
aF-107.65947723388672
aa(lp25
F33.78300094604492
aF207.66514587402344
aF-107.66056823730469
aa(lp26
F33.78361892700195
aF207.66403198242188
aF-107.66046142578125
aa(lp27
F33.78607940673828
aF207.66445922851562
aF-107.66437530517578
aa(lp28
F33.78596496582031
aF207.66632080078125
aF-107.66375732421875
aa(lp29
F33.78599548339844
aF207.66600036621094
aF-107.66259765625
aa(lp30
F33.787113189697266
aF207.67449951171875
aF-107.66670227050781
aa(lp31
F33.78500747680664
aF207.67843627929688
aF-107.66554260253906
aa(lp32
F33.781917572021484
aF207.66598510742188
aF-107.6620101928711
aa(lp33
F33.77882766723633
aF207.66236877441406
aF-107.65819549560547
aa.