(lp0
(lp1
F44.3695182800293
aF208.5550079345703
aF-94.4075698852539
aa(lp2
F44.3695182800293
aF208.5550079345703
aF-94.4075698852539
aa(lp3
F44.3695182800293
aF208.5550079345703
aF-94.4075698852539
aa(lp4
F44.3695182800293
aF208.5550079345703
aF-94.4075698852539
aa(lp5
F44.3695182800293
aF208.5550079345703
aF-94.4075698852539
aa(lp6
F44.3695182800293
aF208.5550079345703
aF-94.4075698852539
aa(lp7
F44.3695182800293
aF208.5550079345703
aF-94.4075698852539
aa(lp8
F44.3695182800293
aF208.5550079345703
aF-94.4075698852539
aa(lp9
F44.3695182800293
aF208.5550079345703
aF-94.4075698852539
aa(lp10
F44.3695182800293
aF208.5550079345703
aF-94.4075698852539
aa(lp11
F44.3695182800293
aF208.5550079345703
aF-94.4075698852539
aa(lp12
F44.3695182800293
aF208.5550079345703
aF-94.4075698852539
aa(lp13
F44.360572814941406
aF208.55523681640625
aF-94.41568756103516
aa(lp14
F44.28439712524414
aF208.55760192871094
aF-94.4848403930664
aa(lp15
F44.128910064697266
aF208.56214904785156
aF-94.62580871582031
aa(lp16
F43.81697463989258
aF208.57154846191406
aF-94.90989685058594
aa(lp17
F43.49805450439453
aF208.58172607421875
aF-95.19985961914062
aa(lp18
F43.112525939941406
aF208.59310913085938
aF-95.54998016357422
aa(lp19
F42.55752182006836
aF208.6102294921875
aF-96.05421447753906
aa(lp20
F42.02885818481445
aF208.62765502929688
aF-96.53606414794922
aa(lp21
F41.3828010559082
aF208.64822387695312
aF-97.12479400634766
aa(lp22
F40.77750778198242
aF208.66757202148438
aF-97.67488098144531
aa(lp23
F40.171573638916016
aF208.687255859375
aF-98.2253189086914
aa(lp24
F39.48993682861328
aF208.70681762695312
aF-98.84247589111328
aa(lp25
F38.91531753540039
aF208.72283935546875
aF-99.36578369140625
aa(lp26
F38.271270751953125
aF208.7419891357422
aF-99.95124816894531
aa(lp27
F37.69153594970703
aF208.75831604003906
aF-100.47673034667969
aa(lp28
F37.1499137878418
aF208.7704315185547
aF-100.96692657470703
aa.