(lp0
(lp1
F37.40696334838867
aF181.05201721191406
aF-45.726200103759766
aa(lp2
F37.490814208984375
aF181.07717895507812
aF-46.66847229003906
aa(lp3
F37.61916732788086
aF181.11618041992188
aF-47.72358322143555
aa(lp4
F37.663455963134766
aF181.1343994140625
aF-48.236900329589844
aa(lp5
F37.682430267333984
aF181.15811157226562
aF-48.67352294921875
aa(lp6
F37.79315948486328
aF181.1503143310547
aF-49.09547805786133
aa(lp7
F37.8311653137207
aF181.15171813964844
aF-49.30088424682617
aa(lp8
F37.859375
aF181.15423583984375
aF-49.48504638671875
aa(lp9
F37.90234375
aF181.14649963378906
aF-49.70546340942383
aa(lp10
F37.906822204589844
aF181.14649963378906
aF-49.82819747924805
aa(lp11
F37.921531677246094
aF181.1324005126953
aF-49.91859817504883
aa(lp12
F37.942138671875
aF181.14073181152344
aF-50.01765441894531
aa(lp13
F37.920230865478516
aF181.154296875
aF-50.08677291870117
aa(lp14
F37.9248161315918
aF181.15640258789062
aF-50.13574981689453
aa(lp15
F37.956905364990234
aF181.15296936035156
aF-50.18986892700195
aa(lp16
F37.96754455566406
aF181.14727783203125
aF-50.218406677246094
aa(lp17
F37.98208236694336
aF181.13748168945312
aF-50.24075698852539
aa(lp18
F37.96373748779297
aF181.1524658203125
aF-50.29066467285156
aa(lp19
F37.980690002441406
aF181.1452178955078
aF-50.31346893310547
aa(lp20
F37.96733093261719
aF181.15574645996094
aF-50.32609176635742
aa(lp21
F37.96289825439453
aF181.15249633789062
aF-50.33509063720703
aa(lp22
F37.91385269165039
aF181.1595001220703
aF-50.343597412109375
aa(lp23
F37.96843719482422
aF181.13998413085938
aF-50.35072708129883
aa(lp24
F37.96214294433594
aF181.14796447753906
aF-50.3548469543457
aa(lp25
F37.956600189208984
aF181.1669464111328
aF-50.36925506591797
aa(lp26
F37.984596252441406
aF181.1726837158203
aF-50.374412536621094
aa(lp27
F37.95903015136719
aF181.1651611328125
aF-50.36872100830078
aa(lp28
F37.95405197143555
aF181.17431640625
aF-50.37268829345703
aa(lp29
F37.956050872802734
aF181.17913818359375
aF-50.37732696533203
aa(lp30
F37.988319396972656
aF181.14854431152344
aF-50.37147903442383
aa(lp31
F37.93756866455078
aF181.17605590820312
aF-50.37686538696289
aa(lp32
F37.90443801879883
aF181.1669464111328
aF-50.37325668334961
aa(lp33
F37.92072296142578
aF181.14239501953125
aF-50.36711120605469
aa(lp34
F37.91915512084961
aF181.14645385742188
aF-50.37276840209961
aa(lp35
F37.939449310302734
aF181.14830017089844
aF-50.37989807128906
aa(lp36
F37.93901062011719
aF181.1443634033203
aF-50.37873458862305
aa(lp37
F37.91240310668945
aF181.1541290283203
aF-50.383522033691406
aa(lp38
F37.94489288330078
aF181.14100646972656
aF-50.38419723510742
aa(lp39
F37.963104248046875
aF181.1385040283203
aF-50.378849029541016
aa(lp40
F37.961021423339844
aF181.1287078857422
aF-50.37224197387695
aa(lp41
F37.968631744384766
aF181.14352416992188
aF-50.37959289550781
aa(lp42
F37.97697448730469
aF181.1392822265625
aF-50.378807067871094
aa(lp43
F37.98676681518555
aF181.14279174804688
aF-50.38676452636719
aa.