(lp0
(lp1
I5
aI240
aI303
aI280
aI207
aI120
aI244
aI269
aI207
aI306
aI224
aa(lp2
I5
aI232
aI304
aI289
aI203
aI90
aI254
aI293
aI205
aI306
aI224
aa(lp3
I5
aI242
aI295
aI282
aI203
aI121
aI230
aI266
aI224
aI308
aI211
aa(lp4
I5
aI250
aI295
aI289
aI229
aI129
aI258
aI267
aI206
aI308
aI224
aa(lp5
I6
aI290
aI273
aI295
aI298
aI286
aI304
aI322
aI277
aI313
aI293
aa(lp6
I6
aI288
aI269
aI293
aI295
aI280
aI303
aI320
aI275
aI313
aI290
aa(lp7
I6
aI324
aI293
aI311
aI336
aI329
aI307
aI329
aI287
aI318
aI316
aa(lp8
I6
aI326
aI302
aI312
aI339
aI329
aI306
aI328
aI287
aI318
aI318
aa(lp9
I6
aI293
aI265
aI294
aI307
aI296
aI302
aI321
aI276
aI315
aI294
aa(lp10
I0
aI267
aI269
aI235
aI182
aI97
aI226
aI234
aI189
aI219
aI217
aa(lp11
I0
aI276
aI272
aI244
aI201
aI118
aI242
aI254
aI201
aI225
aI231
aa(lp12
I0
aI276
aI263
aI223
aI223
aI147
aI217
aI247
aI203
aI235
aI203
aa(lp13
I0
aI287
aI226
aI234
aI256
aI107
aI215
aI254
aI210
aI240
aI256
aa(lp14
I0
aI264
aI237
aI239
aI200
aI95
aI213
aI237
aI191
aI217
aI183
aa(lp15
I0
aI259
aI250
aI182
aI199
aI138
aI209
aI223
aI191
aI234
aI199
aa(lp16
I1
aI271
aI244
aI241
aI320
aI264
aI299
aI319
aI282
aI323
aI315
aa(lp17
I1
aI277
aI242
aI295
aI322
aI257
aI305
aI324
aI271
aI322
aI319
aa(lp18
I1
aI288
aI264
aI282
aI321
aI262
aI305
aI324
aI276
aI319
aI317
aa(lp19
I1
aI298
aI281
aI272
aI294
aI240
aI302
aI324
aI280
aI311
aI314
aa(lp20
I1
aI282
aI250
aI279
aI304
aI239
aI299
aI318
aI277
aI323
aI0
aa(lp21
I1
aI266
aI258
aI238
aI316
aI266
aI306
aI328
aI283
aI322
aI0
aa(lp22
I2
aI308
aI298
aI291
aI269
aI205
aI286
aI299
aI253
aI318
aI0
aa(lp23
I2
aI315
aI306
aI245
aI195
aI135
aI244
aI278
aI231
aI295
aI0
aa(lp24
I2
aI299
aI309
aI262
aI203
aI136
aI242
aI279
aI231
aI293
aI0
aa(lp25
I1
aI291
aI250
aI303
aI305
aI256
aI290
aI320
aI275
aI310
aI0
aa(lp26
I3
aI253
aI307
aI301
aI289
aI192
aI259
aI299
aI242
aI313
aI0
aa(lp27
I3
aI305
aI306
aI280
aI259
aI181
aI283
aI307
aI258
aI304
aI0
aa(lp28
I3
aI318
aI293
aI248
aI214
aI160
aI265
aI281
aI220
aI310
aI0
aa(lp29
I3
aI309
aI286
aI262
aI240
aI200
aI283
aI293
aI241
aI294
aI0
aa(lp30
I4
aI308
aI300
aI307
aI272
aI205
aI241
aI280
aI222
aI288
aI0
aa(lp31
I4
aI289
aI278
aI242
aI229
aI264
aI234
aI236
aI198
aI216
aI0
aa(lp32
I4
aI307
aI297
aI262
aI202
aI259
aI214
aI249
aI188
aI212
aI0
aa(lp33
I4
aI285
aI243
aI184
aI245
aI301
aI237
aI240
aI190
aI215
aI0
aa(lp34
I4
aI300
aI293
aI252
aI223
aI209
aI252
aI266
aI208
aI251
aI0
aa(lp35
I5
aI275
aI322
aI295
aI208
aI145
aI226
aI268
aI229
aI319
aI0
aa(lp36
I5
aI258
aI318
aI301
aI217
aI171
aI249
aI257
aI188
aI318
aI0
aa(lp37
I6
aI298
aI279
aI302
aI316
aI304
aI297
aI323
aI276
aI315
aI0
aa.