(dp0
S'shadow_sdh_finger_12_joint'
p1
F1.4999859999999998
sS'shadow_sdh_thumb_3_joint'
p2
F4.392271866879999
sS'shadow_sdh_knuckle_joint'
p3
I0
sS'shadow_sdh_finger_22_joint'
p4
F10.376230168799998
sS'shadow_sdh_finger_23_joint'
p5
F4.13683916184
sS'shadow_sdh_thumb_2_joint'
p6
F5.159998
sS'shadow_sdh_finger_13_joint'
p7
F3.9266153964100003
s.