(lp0
(lp1
I0
aI216
aI250
aI247
aI253
aI302
aI262
aI283
aI225
aI249
aI287
aa.(lp0
(lp1
I0
aI216
aI250
aI247
aI253
aI302
aI262
aI283
aI225
aI249
aI287
aa(lp2
I0
aI203
aI271
aI235
aI205
aI255
aI239
aI261
aI190
aI198
aI262
aa.(lp0
(lp1
I0
aI216
aI250
aI247
aI253
aI302
aI262
aI283
aI225
aI249
aI287
aa(lp2
I0
aI203
aI271
aI235
aI205
aI255
aI239
aI261
aI190
aI198
aI262
aa(lp3
I0
aI228
aI243
aI215
aI211
aI262
aI223
aI237
aI196
aI196
aI272
aa.(lp0
(lp1
I0
aI216
aI250
aI247
aI253
aI302
aI262
aI283
aI225
aI249
aI287
aa(lp2
I0
aI203
aI271
aI235
aI205
aI255
aI239
aI261
aI190
aI198
aI262
aa(lp3
I0
aI228
aI243
aI215
aI211
aI262
aI223
aI237
aI196
aI196
aI272
aa(lp4
I0
aI235
aI260
aI252
aI245
aI295
aI238
aI276
aI217
aI241
aI283
aa.(lp0
(lp1
I0
aI216
aI250
aI247
aI253
aI302
aI262
aI283
aI225
aI249
aI287
aa(lp2
I0
aI203
aI271
aI235
aI205
aI255
aI239
aI261
aI190
aI198
aI262
aa(lp3
I0
aI228
aI243
aI215
aI211
aI262
aI223
aI237
aI196
aI196
aI272
aa(lp4
I0
aI235
aI260
aI252
aI245
aI295
aI238
aI276
aI217
aI241
aI283
aa(lp5
I0
aI227
aI252
aI214
aI160
aI252
aI176
aI214
aI183
aI186
aI246
aa.(lp0
(lp1
I0
aI216
aI250
aI247
aI253
aI302
aI262
aI283
aI225
aI249
aI287
aa(lp2
I0
aI203
aI271
aI235
aI205
aI255
aI239
aI261
aI190
aI198
aI262
aa(lp3
I0
aI228
aI243
aI215
aI211
aI262
aI223
aI237
aI196
aI196
aI272
aa(lp4
I0
aI235
aI260
aI252
aI245
aI295
aI238
aI276
aI217
aI241
aI283
aa(lp5
I0
aI227
aI252
aI214
aI160
aI252
aI176
aI214
aI183
aI186
aI246
aa(lp6
I1
aI242
aI226
aI216
aI281
aI250
aI292
aI313
aI266
aI308
aI283
aa.(lp0
(lp1
I0
aI216
aI250
aI247
aI253
aI302
aI262
aI283
aI225
aI249
aI287
aa(lp2
I0
aI203
aI271
aI235
aI205
aI255
aI239
aI261
aI190
aI198
aI262
aa(lp3
I0
aI228
aI243
aI215
aI211
aI262
aI223
aI237
aI196
aI196
aI272
aa(lp4
I0
aI235
aI260
aI252
aI245
aI295
aI238
aI276
aI217
aI241
aI283
aa(lp5
I0
aI227
aI252
aI214
aI160
aI252
aI176
aI214
aI183
aI186
aI246
aa(lp6
I1
aI242
aI226
aI216
aI281
aI250
aI292
aI313
aI266
aI308
aI283
aa(lp7
I1
aI237
aI225
aI210
aI287
aI243
aI295
aI316
aI271
aI308
aI279
aa.(lp0
(lp1
I0
aI216
aI250
aI247
aI253
aI302
aI262
aI283
aI225
aI249
aI287
aa(lp2
I0
aI203
aI271
aI235
aI205
aI255
aI239
aI261
aI190
aI198
aI262
aa(lp3
I0
aI228
aI243
aI215
aI211
aI262
aI223
aI237
aI196
aI196
aI272
aa(lp4
I0
aI235
aI260
aI252
aI245
aI295
aI238
aI276
aI217
aI241
aI283
aa(lp5
I0
aI227
aI252
aI214
aI160
aI252
aI176
aI214
aI183
aI186
aI246
aa(lp6
I1
aI242
aI226
aI216
aI281
aI250
aI292
aI313
aI266
aI308
aI283
aa(lp7
I1
aI237
aI225
aI210
aI287
aI243
aI295
aI316
aI271
aI308
aI279
aa(lp8
I1
aI247
aI233
aI260
aI320
aI269
aI301
aI298
aI243
aI292
aI308
aa.(lp0
(lp1
I0
aI216
aI250
aI247
aI253
aI302
aI262
aI283
aI225
aI249
aI287
aa(lp2
I0
aI203
aI271
aI235
aI205
aI255
aI239
aI261
aI190
aI198
aI262
aa(lp3
I0
aI228
aI243
aI215
aI211
aI262
aI223
aI237
aI196
aI196
aI272
aa(lp4
I0
aI235
aI260
aI252
aI245
aI295
aI238
aI276
aI217
aI241
aI283
aa(lp5
I0
aI227
aI252
aI214
aI160
aI252
aI176
aI214
aI183
aI186
aI246
aa(lp6
I1
aI242
aI226
aI216
aI281
aI250
aI292
aI313
aI266
aI308
aI283
aa(lp7
I1
aI237
aI225
aI210
aI287
aI243
aI295
aI316
aI271
aI308
aI279
aa(lp8
I1
aI247
aI233
aI260
aI320
aI269
aI301
aI298
aI243
aI292
aI308
aa(lp9
I1
aI233
aI236
aI235
aI305
aI262
aI306
aI312
aI263
aI303
aI296
aa.(lp0
(lp1
I0
aI216
aI250
aI247
aI253
aI302
aI262
aI283
aI225
aI249
aI287
aa(lp2
I0
aI203
aI271
aI235
aI205
aI255
aI239
aI261
aI190
aI198
aI262
aa(lp3
I0
aI228
aI243
aI215
aI211
aI262
aI223
aI237
aI196
aI196
aI272
aa(lp4
I0
aI235
aI260
aI252
aI245
aI295
aI238
aI276
aI217
aI241
aI283
aa(lp5
I0
aI227
aI252
aI214
aI160
aI252
aI176
aI214
aI183
aI186
aI246
aa(lp6
I1
aI242
aI226
aI216
aI281
aI250
aI292
aI313
aI266
aI308
aI283
aa(lp7
I1
aI237
aI225
aI210
aI287
aI243
aI295
aI316
aI271
aI308
aI279
aa(lp8
I1
aI247
aI233
aI260
aI320
aI269
aI301
aI298
aI243
aI292
aI308
aa(lp9
I1
aI233
aI236
aI235
aI305
aI262
aI306
aI312
aI263
aI303
aI296
aa(lp10
I1
aI261
aI245
aI270
aI312
aI253
aI308
aI312
aI258
aI294
aI308
aa.(lp0
(lp1
I0
aI216
aI250
aI247
aI253
aI302
aI262
aI283
aI225
aI249
aI287
aa(lp2
I0
aI203
aI271
aI235
aI205
aI255
aI239
aI261
aI190
aI198
aI262
aa(lp3
I0
aI228
aI243
aI215
aI211
aI262
aI223
aI237
aI196
aI196
aI272
aa(lp4
I0
aI235
aI260
aI252
aI245
aI295
aI238
aI276
aI217
aI241
aI283
aa(lp5
I0
aI227
aI252
aI214
aI160
aI252
aI176
aI214
aI183
aI186
aI246
aa(lp6
I1
aI242
aI226
aI216
aI281
aI250
aI292
aI313
aI266
aI308
aI283
aa(lp7
I1
aI237
aI225
aI210
aI287
aI243
aI295
aI316
aI271
aI308
aI279
aa(lp8
I1
aI247
aI233
aI260
aI320
aI269
aI301
aI298
aI243
aI292
aI308
aa(lp9
I1
aI233
aI236
aI235
aI305
aI262
aI306
aI312
aI263
aI303
aI296
aa(lp10
I1
aI261
aI245
aI270
aI312
aI253
aI308
aI312
aI258
aI294
aI308
aa(lp11
I1
aI239
aI231
aI210
aI309
aI262
aI306
aI313
aI268
aI302
aI283
aa.(lp0
(lp1
I0
aI216
aI250
aI247
aI253
aI302
aI262
aI283
aI225
aI249
aI287
aa(lp2
I0
aI203
aI271
aI235
aI205
aI255
aI239
aI261
aI190
aI198
aI262
aa(lp3
I0
aI228
aI243
aI215
aI211
aI262
aI223
aI237
aI196
aI196
aI272
aa(lp4
I0
aI235
aI260
aI252
aI245
aI295
aI238
aI276
aI217
aI241
aI283
aa(lp5
I0
aI227
aI252
aI214
aI160
aI252
aI176
aI214
aI183
aI186
aI246
aa(lp6
I1
aI242
aI226
aI216
aI281
aI250
aI292
aI313
aI266
aI308
aI283
aa(lp7
I1
aI237
aI225
aI210
aI287
aI243
aI295
aI316
aI271
aI308
aI279
aa(lp8
I1
aI247
aI233
aI260
aI320
aI269
aI301
aI298
aI243
aI292
aI308
aa(lp9
I1
aI233
aI236
aI235
aI305
aI262
aI306
aI312
aI263
aI303
aI296
aa(lp10
I1
aI261
aI245
aI270
aI312
aI253
aI308
aI312
aI258
aI294
aI308
aa(lp11
I1
aI239
aI231
aI210
aI309
aI262
aI306
aI313
aI268
aI302
aI283
aa(lp12
I0
aI240
aI243
aI198
aI183
aI210
aI202
aI218
aI176
aI203
aI266
aa.(lp0
(lp1
I0
aI216
aI250
aI247
aI253
aI302
aI262
aI283
aI225
aI249
aI287
aa(lp2
I0
aI203
aI271
aI235
aI205
aI255
aI239
aI261
aI190
aI198
aI262
aa(lp3
I0
aI228
aI243
aI215
aI211
aI262
aI223
aI237
aI196
aI196
aI272
aa(lp4
I0
aI235
aI260
aI252
aI245
aI295
aI238
aI276
aI217
aI241
aI283
aa(lp5
I0
aI227
aI252
aI214
aI160
aI252
aI176
aI214
aI183
aI186
aI246
aa(lp6
I1
aI242
aI226
aI216
aI281
aI250
aI292
aI313
aI266
aI308
aI283
aa(lp7
I1
aI237
aI225
aI210
aI287
aI243
aI295
aI316
aI271
aI308
aI279
aa(lp8
I1
aI247
aI233
aI260
aI320
aI269
aI301
aI298
aI243
aI292
aI308
aa(lp9
I1
aI233
aI236
aI235
aI305
aI262
aI306
aI312
aI263
aI303
aI296
aa(lp10
I1
aI261
aI245
aI270
aI312
aI253
aI308
aI312
aI258
aI294
aI308
aa(lp11
I1
aI239
aI231
aI210
aI309
aI262
aI306
aI313
aI268
aI302
aI283
aa(lp12
I0
aI240
aI243
aI198
aI183
aI210
aI202
aI218
aI176
aI203
aI266
aa(lp13
I1
aI219
aI199
aI264
aI307
aI271
aI297
aI290
aI202
aI254
aI282
aa.(lp0
(lp1
I0
aI216
aI250
aI247
aI253
aI302
aI262
aI283
aI225
aI249
aI287
aa(lp2
I0
aI203
aI271
aI235
aI205
aI255
aI239
aI261
aI190
aI198
aI262
aa(lp3
I0
aI228
aI243
aI215
aI211
aI262
aI223
aI237
aI196
aI196
aI272
aa(lp4
I0
aI235
aI260
aI252
aI245
aI295
aI238
aI276
aI217
aI241
aI283
aa(lp5
I0
aI227
aI252
aI214
aI160
aI252
aI176
aI214
aI183
aI186
aI246
aa(lp6
I1
aI242
aI226
aI216
aI281
aI250
aI292
aI313
aI266
aI308
aI283
aa(lp7
I1
aI237
aI225
aI210
aI287
aI243
aI295
aI316
aI271
aI308
aI279
aa(lp8
I1
aI247
aI233
aI260
aI320
aI269
aI301
aI298
aI243
aI292
aI308
aa(lp9
I1
aI233
aI236
aI235
aI305
aI262
aI306
aI312
aI263
aI303
aI296
aa(lp10
I1
aI261
aI245
aI270
aI312
aI253
aI308
aI312
aI258
aI294
aI308
aa(lp11
I1
aI239
aI231
aI210
aI309
aI262
aI306
aI313
aI268
aI302
aI283
aa(lp12
I0
aI240
aI243
aI198
aI183
aI210
aI202
aI218
aI176
aI203
aI266
aa(lp13
I1
aI219
aI199
aI264
aI307
aI271
aI297
aI290
aI202
aI254
aI282
aa(lp14
I1
aI241
aI252
aI227
aI254
aI241
aI296
aI302
aI264
aI306
aI287
aa.(lp0
(lp1
I0
aI216
aI250
aI247
aI253
aI302
aI262
aI283
aI225
aI249
aI287
aa(lp2
I0
aI203
aI271
aI235
aI205
aI255
aI239
aI261
aI190
aI198
aI262
aa(lp3
I0
aI228
aI243
aI215
aI211
aI262
aI223
aI237
aI196
aI196
aI272
aa(lp4
I0
aI235
aI260
aI252
aI245
aI295
aI238
aI276
aI217
aI241
aI283
aa(lp5
I0
aI227
aI252
aI214
aI160
aI252
aI176
aI214
aI183
aI186
aI246
aa(lp6
I1
aI242
aI226
aI216
aI281
aI250
aI292
aI313
aI266
aI308
aI283
aa(lp7
I1
aI237
aI225
aI210
aI287
aI243
aI295
aI316
aI271
aI308
aI279
aa(lp8
I1
aI247
aI233
aI260
aI320
aI269
aI301
aI298
aI243
aI292
aI308
aa(lp9
I1
aI233
aI236
aI235
aI305
aI262
aI306
aI312
aI263
aI303
aI296
aa(lp10
I1
aI261
aI245
aI270
aI312
aI253
aI308
aI312
aI258
aI294
aI308
aa(lp11
I1
aI239
aI231
aI210
aI309
aI262
aI306
aI313
aI268
aI302
aI283
aa(lp12
I0
aI240
aI243
aI198
aI183
aI210
aI202
aI218
aI176
aI203
aI266
aa(lp13
I1
aI219
aI199
aI264
aI307
aI271
aI297
aI290
aI202
aI254
aI282
aa(lp14
I1
aI241
aI252
aI227
aI254
aI241
aI296
aI302
aI264
aI306
aI287
aa(lp15
I0
aI288
aI263
aI262
aI219
aI263
aI212
aI227
aI176
aI201
aI298
aa.(lp0
(lp1
I0
aI216
aI250
aI247
aI253
aI302
aI262
aI283
aI225
aI249
aI287
aa(lp2
I0
aI203
aI271
aI235
aI205
aI255
aI239
aI261
aI190
aI198
aI262
aa(lp3
I0
aI228
aI243
aI215
aI211
aI262
aI223
aI237
aI196
aI196
aI272
aa(lp4
I0
aI235
aI260
aI252
aI245
aI295
aI238
aI276
aI217
aI241
aI283
aa(lp5
I0
aI227
aI252
aI214
aI160
aI252
aI176
aI214
aI183
aI186
aI246
aa(lp6
I1
aI242
aI226
aI216
aI281
aI250
aI292
aI313
aI266
aI308
aI283
aa(lp7
I1
aI237
aI225
aI210
aI287
aI243
aI295
aI316
aI271
aI308
aI279
aa(lp8
I1
aI247
aI233
aI260
aI320
aI269
aI301
aI298
aI243
aI292
aI308
aa(lp9
I1
aI233
aI236
aI235
aI305
aI262
aI306
aI312
aI263
aI303
aI296
aa(lp10
I1
aI261
aI245
aI270
aI312
aI253
aI308
aI312
aI258
aI294
aI308
aa(lp11
I1
aI239
aI231
aI210
aI309
aI262
aI306
aI313
aI268
aI302
aI283
aa(lp12
I0
aI240
aI243
aI198
aI183
aI210
aI202
aI218
aI176
aI203
aI266
aa(lp13
I1
aI219
aI199
aI264
aI307
aI271
aI297
aI290
aI202
aI254
aI282
aa(lp14
I1
aI241
aI252
aI227
aI254
aI241
aI296
aI302
aI264
aI306
aI287
aa(lp15
I0
aI288
aI263
aI262
aI219
aI263
aI212
aI227
aI176
aI201
aI298
aa(lp16
I2
aI264
aI265
aI201
aI205
aI268
aI255
aI257
aI232
aI298
aI298
aa.(lp0
(lp1
I0
aI216
aI250
aI247
aI253
aI302
aI262
aI283
aI225
aI249
aI287
aa(lp2
I0
aI203
aI271
aI235
aI205
aI255
aI239
aI261
aI190
aI198
aI262
aa(lp3
I0
aI228
aI243
aI215
aI211
aI262
aI223
aI237
aI196
aI196
aI272
aa(lp4
I0
aI235
aI260
aI252
aI245
aI295
aI238
aI276
aI217
aI241
aI283
aa(lp5
I0
aI227
aI252
aI214
aI160
aI252
aI176
aI214
aI183
aI186
aI246
aa(lp6
I1
aI242
aI226
aI216
aI281
aI250
aI292
aI313
aI266
aI308
aI283
aa(lp7
I1
aI237
aI225
aI210
aI287
aI243
aI295
aI316
aI271
aI308
aI279
aa(lp8
I1
aI247
aI233
aI260
aI320
aI269
aI301
aI298
aI243
aI292
aI308
aa(lp9
I1
aI233
aI236
aI235
aI305
aI262
aI306
aI312
aI263
aI303
aI296
aa(lp10
I1
aI261
aI245
aI270
aI312
aI253
aI308
aI312
aI258
aI294
aI308
aa(lp11
I1
aI239
aI231
aI210
aI309
aI262
aI306
aI313
aI268
aI302
aI283
aa(lp12
I0
aI240
aI243
aI198
aI183
aI210
aI202
aI218
aI176
aI203
aI266
aa(lp13
I1
aI219
aI199
aI264
aI307
aI271
aI297
aI290
aI202
aI254
aI282
aa(lp14
I1
aI241
aI252
aI227
aI254
aI241
aI296
aI302
aI264
aI306
aI287
aa(lp15
I0
aI288
aI263
aI262
aI219
aI263
aI212
aI227
aI176
aI201
aI298
aa(lp16
I2
aI264
aI265
aI201
aI205
aI268
aI255
aI257
aI232
aI298
aI298
aa(lp17
I3
aI286
aI303
aI232
aI187
aI269
aI224
aI231
aI179
aI193
aI294
aa.(lp0
(lp1
I0
aI216
aI250
aI247
aI253
aI302
aI262
aI283
aI225
aI249
aI287
aa(lp2
I0
aI203
aI271
aI235
aI205
aI255
aI239
aI261
aI190
aI198
aI262
aa(lp3
I0
aI228
aI243
aI215
aI211
aI262
aI223
aI237
aI196
aI196
aI272
aa(lp4
I0
aI235
aI260
aI252
aI245
aI295
aI238
aI276
aI217
aI241
aI283
aa(lp5
I0
aI227
aI252
aI214
aI160
aI252
aI176
aI214
aI183
aI186
aI246
aa(lp6
I1
aI242
aI226
aI216
aI281
aI250
aI292
aI313
aI266
aI308
aI283
aa(lp7
I1
aI237
aI225
aI210
aI287
aI243
aI295
aI316
aI271
aI308
aI279
aa(lp8
I1
aI247
aI233
aI260
aI320
aI269
aI301
aI298
aI243
aI292
aI308
aa(lp9
I1
aI233
aI236
aI235
aI305
aI262
aI306
aI312
aI263
aI303
aI296
aa(lp10
I1
aI261
aI245
aI270
aI312
aI253
aI308
aI312
aI258
aI294
aI308
aa(lp11
I1
aI239
aI231
aI210
aI309
aI262
aI306
aI313
aI268
aI302
aI283
aa(lp12
I0
aI240
aI243
aI198
aI183
aI210
aI202
aI218
aI176
aI203
aI266
aa(lp13
I1
aI219
aI199
aI264
aI307
aI271
aI297
aI290
aI202
aI254
aI282
aa(lp14
I1
aI241
aI252
aI227
aI254
aI241
aI296
aI302
aI264
aI306
aI287
aa(lp15
I0
aI288
aI263
aI262
aI219
aI263
aI212
aI227
aI176
aI201
aI298
aa(lp16
I2
aI264
aI265
aI201
aI205
aI268
aI255
aI257
aI232
aI298
aI298
aa(lp17
I3
aI286
aI303
aI232
aI187
aI269
aI224
aI231
aI179
aI193
aI294
aa(lp18
I4
aI306
aI271
aI254
aI240
aI286
aI229
aI248
aI194
aI240
aI311
aa.(lp0
(lp1
I0
aI216
aI250
aI247
aI253
aI302
aI262
aI283
aI225
aI249
aI287
aa(lp2
I0
aI203
aI271
aI235
aI205
aI255
aI239
aI261
aI190
aI198
aI262
aa(lp3
I0
aI228
aI243
aI215
aI211
aI262
aI223
aI237
aI196
aI196
aI272
aa(lp4
I0
aI235
aI260
aI252
aI245
aI295
aI238
aI276
aI217
aI241
aI283
aa(lp5
I0
aI227
aI252
aI214
aI160
aI252
aI176
aI214
aI183
aI186
aI246
aa(lp6
I1
aI242
aI226
aI216
aI281
aI250
aI292
aI313
aI266
aI308
aI283
aa(lp7
I1
aI237
aI225
aI210
aI287
aI243
aI295
aI316
aI271
aI308
aI279
aa(lp8
I1
aI247
aI233
aI260
aI320
aI269
aI301
aI298
aI243
aI292
aI308
aa(lp9
I1
aI233
aI236
aI235
aI305
aI262
aI306
aI312
aI263
aI303
aI296
aa(lp10
I1
aI261
aI245
aI270
aI312
aI253
aI308
aI312
aI258
aI294
aI308
aa(lp11
I1
aI239
aI231
aI210
aI309
aI262
aI306
aI313
aI268
aI302
aI283
aa(lp12
I0
aI240
aI243
aI198
aI183
aI210
aI202
aI218
aI176
aI203
aI266
aa(lp13
I1
aI219
aI199
aI264
aI307
aI271
aI297
aI290
aI202
aI254
aI282
aa(lp14
I1
aI241
aI252
aI227
aI254
aI241
aI296
aI302
aI264
aI306
aI287
aa(lp15
I0
aI288
aI263
aI262
aI219
aI263
aI212
aI227
aI176
aI201
aI298
aa(lp16
I2
aI264
aI265
aI201
aI205
aI268
aI255
aI257
aI232
aI298
aI298
aa(lp17
I3
aI286
aI303
aI232
aI187
aI269
aI224
aI231
aI179
aI193
aI294
aa(lp18
I4
aI306
aI271
aI254
aI240
aI286
aI229
aI248
aI194
aI240
aI311
aa(lp19
I5
aI223
aI295
aI279
aI187
aI273
aI193
aI238
aI184
aI308
aI268
aa.(lp0
(lp1
I0
aI216
aI250
aI247
aI253
aI302
aI262
aI283
aI225
aI249
aI287
aa(lp2
I0
aI203
aI271
aI235
aI205
aI255
aI239
aI261
aI190
aI198
aI262
aa(lp3
I0
aI228
aI243
aI215
aI211
aI262
aI223
aI237
aI196
aI196
aI272
aa(lp4
I0
aI235
aI260
aI252
aI245
aI295
aI238
aI276
aI217
aI241
aI283
aa(lp5
I0
aI227
aI252
aI214
aI160
aI252
aI176
aI214
aI183
aI186
aI246
aa(lp6
I1
aI242
aI226
aI216
aI281
aI250
aI292
aI313
aI266
aI308
aI283
aa(lp7
I1
aI237
aI225
aI210
aI287
aI243
aI295
aI316
aI271
aI308
aI279
aa(lp8
I1
aI247
aI233
aI260
aI320
aI269
aI301
aI298
aI243
aI292
aI308
aa(lp9
I1
aI233
aI236
aI235
aI305
aI262
aI306
aI312
aI263
aI303
aI296
aa(lp10
I1
aI261
aI245
aI270
aI312
aI253
aI308
aI312
aI258
aI294
aI308
aa(lp11
I1
aI239
aI231
aI210
aI309
aI262
aI306
aI313
aI268
aI302
aI283
aa(lp12
I0
aI240
aI243
aI198
aI183
aI210
aI202
aI218
aI176
aI203
aI266
aa(lp13
I1
aI219
aI199
aI264
aI307
aI271
aI297
aI290
aI202
aI254
aI282
aa(lp14
I1
aI241
aI252
aI227
aI254
aI241
aI296
aI302
aI264
aI306
aI287
aa(lp15
I0
aI288
aI263
aI262
aI219
aI263
aI212
aI227
aI176
aI201
aI298
aa(lp16
I2
aI264
aI265
aI201
aI205
aI268
aI255
aI257
aI232
aI298
aI298
aa(lp17
I3
aI286
aI303
aI232
aI187
aI269
aI224
aI231
aI179
aI193
aI294
aa(lp18
I4
aI306
aI271
aI254
aI240
aI286
aI229
aI248
aI194
aI240
aI311
aa(lp19
I5
aI223
aI295
aI279
aI187
aI273
aI193
aI238
aI184
aI308
aI268
aa(lp20
I5
aI231
aI284
aI269
aI184
aI279
aI194
aI232
aI191
aI305
aI266
aa.(lp0
(lp1
I0
aI216
aI250
aI247
aI253
aI302
aI262
aI283
aI225
aI249
aI287
aa(lp2
I0
aI203
aI271
aI235
aI205
aI255
aI239
aI261
aI190
aI198
aI262
aa(lp3
I0
aI228
aI243
aI215
aI211
aI262
aI223
aI237
aI196
aI196
aI272
aa(lp4
I0
aI235
aI260
aI252
aI245
aI295
aI238
aI276
aI217
aI241
aI283
aa(lp5
I0
aI227
aI252
aI214
aI160
aI252
aI176
aI214
aI183
aI186
aI246
aa(lp6
I1
aI242
aI226
aI216
aI281
aI250
aI292
aI313
aI266
aI308
aI283
aa(lp7
I1
aI237
aI225
aI210
aI287
aI243
aI295
aI316
aI271
aI308
aI279
aa(lp8
I1
aI247
aI233
aI260
aI320
aI269
aI301
aI298
aI243
aI292
aI308
aa(lp9
I1
aI233
aI236
aI235
aI305
aI262
aI306
aI312
aI263
aI303
aI296
aa(lp10
I1
aI261
aI245
aI270
aI312
aI253
aI308
aI312
aI258
aI294
aI308
aa(lp11
I1
aI239
aI231
aI210
aI309
aI262
aI306
aI313
aI268
aI302
aI283
aa(lp12
I0
aI240
aI243
aI198
aI183
aI210
aI202
aI218
aI176
aI203
aI266
aa(lp13
I1
aI219
aI199
aI264
aI307
aI271
aI297
aI290
aI202
aI254
aI282
aa(lp14
I1
aI241
aI252
aI227
aI254
aI241
aI296
aI302
aI264
aI306
aI287
aa(lp15
I0
aI288
aI263
aI262
aI219
aI263
aI212
aI227
aI176
aI201
aI298
aa(lp16
I2
aI264
aI265
aI201
aI205
aI268
aI255
aI257
aI232
aI298
aI298
aa(lp17
I3
aI286
aI303
aI232
aI187
aI269
aI224
aI231
aI179
aI193
aI294
aa(lp18
I4
aI306
aI271
aI254
aI240
aI286
aI229
aI248
aI194
aI240
aI311
aa(lp19
I5
aI223
aI295
aI279
aI187
aI273
aI193
aI238
aI184
aI308
aI268
aa(lp20
I5
aI231
aI284
aI269
aI184
aI279
aI194
aI232
aI191
aI305
aI266
aa(lp21
I6
aI286
aI264
aI258
aI274
aI299
aI291
aI307
aI253
aI298
aI299
aa.(lp0
(lp1
I0
aI216
aI250
aI247
aI253
aI302
aI262
aI283
aI225
aI249
aI287
aa(lp2
I0
aI203
aI271
aI235
aI205
aI255
aI239
aI261
aI190
aI198
aI262
aa(lp3
I0
aI228
aI243
aI215
aI211
aI262
aI223
aI237
aI196
aI196
aI272
aa(lp4
I0
aI235
aI260
aI252
aI245
aI295
aI238
aI276
aI217
aI241
aI283
aa(lp5
I0
aI227
aI252
aI214
aI160
aI252
aI176
aI214
aI183
aI186
aI246
aa(lp6
I1
aI242
aI226
aI216
aI281
aI250
aI292
aI313
aI266
aI308
aI283
aa(lp7
I1
aI237
aI225
aI210
aI287
aI243
aI295
aI316
aI271
aI308
aI279
aa(lp8
I1
aI247
aI233
aI260
aI320
aI269
aI301
aI298
aI243
aI292
aI308
aa(lp9
I1
aI233
aI236
aI235
aI305
aI262
aI306
aI312
aI263
aI303
aI296
aa(lp10
I1
aI261
aI245
aI270
aI312
aI253
aI308
aI312
aI258
aI294
aI308
aa(lp11
I1
aI239
aI231
aI210
aI309
aI262
aI306
aI313
aI268
aI302
aI283
aa(lp12
I0
aI240
aI243
aI198
aI183
aI210
aI202
aI218
aI176
aI203
aI266
aa(lp13
I1
aI219
aI199
aI264
aI307
aI271
aI297
aI290
aI202
aI254
aI282
aa(lp14
I1
aI241
aI252
aI227
aI254
aI241
aI296
aI302
aI264
aI306
aI287
aa(lp15
I0
aI288
aI263
aI262
aI219
aI263
aI212
aI227
aI176
aI201
aI298
aa(lp16
I2
aI264
aI265
aI201
aI205
aI268
aI255
aI257
aI232
aI298
aI298
aa(lp17
I3
aI286
aI303
aI232
aI187
aI269
aI224
aI231
aI179
aI193
aI294
aa(lp18
I4
aI306
aI271
aI254
aI240
aI286
aI229
aI248
aI194
aI240
aI311
aa(lp19
I5
aI223
aI295
aI279
aI187
aI273
aI193
aI238
aI184
aI308
aI268
aa(lp20
I5
aI231
aI284
aI269
aI184
aI279
aI194
aI232
aI191
aI305
aI266
aa(lp21
I6
aI286
aI264
aI258
aI274
aI299
aI291
aI307
aI253
aI298
aI299
aa(lp22
I6
aI292
aI267
aI266
aI291
aI302
aI293
aI314
aI265
aI305
aI305
aa.