(dp0
S'predictor'
p1
ccopy_reg
_reconstructor
p2
(csklearn.svm.classes
LinearSVC
p3
c__builtin__
object
p4
Ntp5
Rp6
(dp7
S'loss'
p8
S'l2'
p9
sS'C'
p10
F36.75834735990529
sS'verbose'
p11
I0
sS'dual'
p12
I01
sS'fit_intercept'
p13
I01
sS'penalty'
p14
g9
sS'multi_class'
p15
S'ovr'
p16
sS'random_state'
p17
NsS'tol'
p18
F0.0001
sS'class_weight'
p19
NsS'intercept_scaling'
p20
I1
sbsS'scaler'
p21
g2
(csklearn.preprocessing.data
StandardScaler
p22
g4
Ntp23
Rp24
(dp25
S'std_'
p26
cnumpy.core.multiarray
_reconstruct
p27
(cnumpy
ndarray
p28
(I0
tp29
S'b'
p30
tp31
Rp32
(I1
(I2
tp33
cnumpy
dtype
p34
(S'f8'
p35
I0
I1
tp36
Rp37
(I3
S'<'
p38
NNNI-1
I-1
I0
tp39
bI00
S'\xd2\x8e\xd2\xcd*\xf28@Vk\xf1u\x98\n:@'
p40
tp41
bsS'copy'
p42
I01
sS'with_mean'
p43
I01
sS'with_std'
p44
I01
sS'mean_'
p45
g27
(g28
(I0
tp46
g30
tp47
Rp48
(I1
(I2
tp49
g37
I00
S'\x98Q\x10\xd0\\\x1fr@\xdf_FA@\xd3q@'
p50
tp51
bsbs.