(lp0
(lp1
I0
aI299
aI278
aI233
aI187
aI105
aI206
aI236
aI193
aI192
aI271
aa(lp2
I1
aI275
aI239
aI275
aI300
aI271
aI305
aI327
aI282
aI319
aI310
aa(lp3
I4
aI312
aI294
aI274
aI246
aI158
aI200
aI233
aI192
aI203
aI281
aa(lp4
I0
aI307
aI267
aI246
aI200
aI118
aI206
aI246
aI206
aI200
aI233
aa(lp5
I2
aI287
aI266
aI265
aI260
aI175
aI249
aI271
aI242
aI299
aI313
aa(lp6
I3
aI303
aI299
aI245
aI218
aI131
aI241
aI254
aI198
aI219
aI234
aa(lp7
I4
aI323
aI254
aI254
aI258
aI186
aI258
aI277
aI214
aI236
aI316
aa(lp8
I0
aI288
aI258
aI218
aI194
aI116
aI222
aI255
aI212
aI208
aI221
aa(lp9
I1
aI282
aI267
aI283
aI308
aI264
aI309
aI325
aI280
aI319
aI316
aa(lp10
I2
aI294
aI252
aI248
aI227
aI133
aI240
aI258
aI211
aI253
aI259
aa(lp11
I3
aI305
aI287
aI262
aI223
aI124
aI232
aI251
aI200
aI206
aI253
aa(lp12
I4
aI324
aI289
aI274
aI235
aI172
aI242
aI256
aI206
aI228
aI317
aa(lp13
I5
aI258
aI315
aI294
aI234
aI157
aI228
aI242
aI198
aI322
aI206
aa(lp14
I0
aI266
aI324
aI300
aI290
aI250
aI211
aI234
aI183
aI203
aI191
aa(lp15
I1
aI257
aI243
aI314
aI313
aI286
aI307
aI320
aI266
aI315
aI267
aa(lp16
I2
aI286
aI273
aI246
aI238
aI166
aI275
aI296
aI250
aI300
aI268
aa(lp17
I3
aI309
aI250
aI213
aI226
aI157
aI251
aI266
aI205
aI236
aI230
aa(lp18
I3
aI304
aI234
aI229
aI242
aI175
aI243
aI252
aI218
aI250
aI237
aa(lp19
I4
aI299
aI309
aI282
aI281
aI230
aI231
aI263
aI208
aI232
aI292
aa(lp20
I4
aI313
aI293
aI265
aI262
aI194
aI279
aI294
aI231
aI224
aI290
aa(lp21
I5
aI280
aI308
aI290
aI248
aI173
aI256
aI260
aI210
aI323
aI264
aa(lp22
I5
aI275
aI303
aI275
aI211
aI148
aI238
aI259
aI208
aI324
aI245
aa(lp23
I0
aI248
aI324
aI311
aI322
aI293
aI173
aI220
aI179
aI180
aI184
aa(lp24
I0
aI267
aI328
aI315
aI339
aI307
aI257
aI248
aI184
aI228
aI222
aa(lp25
I1
aI268
aI216
aI298
aI327
aI243
aI305
aI314
aI267
aI320
aI276
aa(lp26
I1
aI274
aI214
aI295
aI328
aI265
aI309
aI321
aI271
aI320
aI283
aa(lp27
I2
aI297
aI278
aI246
aI249
aI167
aI255
aI270
aI236
aI302
aI271
aa(lp28
I2
aI295
aI264
aI253
aI270
aI199
aI277
aI290
aI247
aI314
aI281
aa(lp29
I3
aI294
aI283
aI254
aI234
aI156
aI263
aI292
aI250
aI267
aI254
aa(lp30
I3
aI269
aI258
aI215
aI218
aI149
aI253
aI289
aI247
aI277
aI238
aa(lp31
I4
aI285
aI325
aI307
aI303
aI273
aI229
aI256
aI197
aI249
aI232
aa(lp32
I4
aI331
aI305
aI289
aI272
aI211
aI257
aI286
aI227
aI268
aI318
aa(lp33
I5
aI271
aI311
aI298
aI250
aI181
aI246
aI253
aI198
aI323
aI265
aa(lp34
I5
aI252
aI303
aI287
aI237
aI147
aI210
aI250
aI194
aI323
aI225
aa(lp35
I0
aI299
aI324
aI309
aI326
aI316
aI233
aI275
aI224
aI228
aI253
aa(lp36
I2
aI306
aI244
aI215
aI234
aI169
aI254
aI268
aI236
aI290
aI207
aa(lp37
I3
aI303
aI240
aI221
aI246
aI192
aI277
aI292
aI250
aI287
aI209
aa(lp38
I4
aI332
aI291
aI256
aI273
aI224
aI250
aI273
aI216
aI241
aI307
aa(lp39
I5
aI256
aI313
aI291
aI235
aI161
aI219
aI230
aI184
aI324
aI233
aa(lp40
I0
aI277
aI270
aI251
aI263
aI198
aI217
aI250
aI198
aI217
aI246
aa(lp41
I0
aI294
aI286
aI265
aI271
aI203
aI241
aI267
aI213
aI215
aI258
aa(lp42
I0
aI264
aI239
aI210
aI232
aI183
aI218
aI239
aI194
aI208
aI188
aa(lp43
I0
aI278
aI280
aI234
aI240
aI171
aI223
aI248
aI193
aI223
aI223
aa(lp44
I1
aI287
aI246
aI287
aI309
aI266
aI307
aI318
aI249
aI302
aI317
aa(lp45
I1
aI273
aI242
aI260
aI311
aI258
aI311
aI326
aI275
aI293
aI306
aa(lp46
I2
aI306
aI313
aI275
aI213
aI149
aI229
aI235
aI199
aI233
aI258
aa(lp47
I2
aI310
aI310
aI258
aI220
aI155
aI235
aI244
aI201
aI268
aI277
aa(lp48
I4
aI320
aI270
aI249
aI281
aI287
aI235
aI259
aI204
aI221
aI320
aa(lp49
I0
aI267
aI261
aI254
aI312
aI177
aI208
aI261
aI212
aI228
aI200
aa(lp50
I2
aI302
aI313
aI289
aI274
aI202
aI273
aI281
aI230
aI270
aI317
aa(lp51
I3
aI293
aI319
aI293
aI233
aI138
aI212
aI237
aI182
aI257
aI255
aa(lp52
I4
aI319
aI261
aI226
aI230
aI213
aI254
aI252
aI189
aI226
aI311
aa(lp53
I0
aI261
aI248
aI210
aI216
aI175
aI206
aI241
aI195
aI193
aI189
aa(lp54
I0
aI288
aI265
aI222
aI224
aI153
aI205
aI239
aI198
aI207
aI197
aa(lp55
I4
aI327
aI285
aI280
aI271
aI257
aI251
aI257
aI199
aI218
aI316
aa(lp56
I1
aI266
aI263
aI302
aI329
aI291
aI307
aI321
aI263
aI315
aI315
aa(lp57
I1
aI273
aI250
aI274
aI327
aI277
aI306
aI320
aI267
aI313
aI316
aa(lp58
I2
aI303
aI294
aI291
aI285
aI216
aI262
aI277
aI227
aI262
aI314
aa(lp59
I1
aI271
aI242
aI284
aI328
aI268
aI308
aI320
aI270
aI309
aI275
aa(lp60
I0
aI260
aI296
aI247
aI283
aI230
aI222
aI257
aI196
aI218
aI183
aa(lp61
I0
aI284
aI284
aI235
aI254
aI187
aI219
aI257
aI202
aI205
aI207
aa(lp62
I3
aI289
aI294
aI287
aI287
aI208
aI273
aI294
aI224
aI287
aI280
aa(lp63
I0
aI278
aI251
aI230
aI207
aI128
aI206
aI245
aI196
aI212
aI225
aa(lp64
I4
aI334
aI198
aI179
aI270
aI253
aI185
aI221
aI182
aI207
aI320
aa(lp65
I4
aI336
aI210
aI191
aI237
aI219
aI209
aI221
aI187
aI193
aI321
aa(lp66
I2
aI299
aI294
aI236
aI225
aI171
aI247
aI275
aI239
aI274
aI241
aa(lp67
I1
aI285
aI252
aI240
aI301
aI248
aI306
aI324
aI281
aI321
aI317
aa(lp68
I1
aI295
aI257
aI284
aI282
aI210
aI288
aI309
aI262
aI317
aI320
aa(lp69
I3
aI321
aI325
aI305
aI243
aI153
aI236
aI252
aI191
aI209
aI302
aa(lp70
I4
aI334
aI304
aI260
aI239
aI171
aI245
aI253
aI199
aI219
aI320
aa(lp71
I5
aI268
aI305
aI277
aI235
aI153
aI223
aI242
aI209
aI323
aI242
aa(lp72
I0
aI292
aI317
aI306
aI242
aI211
aI192
aI262
aI197
aI212
aI223
aa(lp73
I1
aI290
aI255
aI268
aI303
aI254
aI305
aI321
aI277
aI322
aI320
aa(lp74
I0
aI247
aI268
aI207
aI297
aI229
aI211
aI254
aI193
aI208
aI239
aa(lp75
I3
aI288
aI316
aI286
aI295
aI240
aI242
aI265
aI229
aI308
aI292
aa(lp76
I2
aI312
aI316
aI291
aI281
aI173
aI220
aI266
aI229
aI290
aI291
aa(lp77
I5
aI271
aI311
aI274
aI240
aI160
aI227
aI251
aI198
aI324
aI234
aa(lp78
I4
aI323
aI234
aI227
aI263
aI206
aI208
aI242
aI195
aI211
aI276
aa(lp79
I5
aI262
aI315
aI286
aI224
aI153
aI209
aI254
aI224
aI324
aI220
aa(lp80
I5
aI294
aI292
aI278
aI231
aI179
aI241
aI252
aI208
aI323
aI285
aa(lp81
I4
aI302
aI313
aI267
aI258
aI180
aI214
aI251
aI185
aI206
aI280
aa(lp82
I5
aI255
aI309
aI262
aI193
aI119
aI207
aI233
aI195
aI320
aI233
aa(lp83
I6
aI335
aI322
aI313
aI342
aI333
aI306
aI324
aI285
aI322
aI317
aa(lp84
I6
aI335
aI324
aI314
aI343
aI334
aI306
aI324
aI284
aI323
aI316
aa(lp85
I6
aI326
aI315
aI314
aI341
aI327
aI305
aI321
aI280
aI321
aI312
aa(lp86
I6
aI332
aI321
aI317
aI343
aI333
aI307
aI325
aI284
aI322
aI316
aa(lp87
I5
aI240
aI303
aI280
aI207
aI120
aI244
aI269
aI207
aI306
aI224
aa(lp88
I5
aI242
aI295
aI282
aI203
aI121
aI230
aI266
aI224
aI308
aI211
aa(lp89
I5
aI250
aI295
aI289
aI229
aI129
aI258
aI267
aI206
aI308
aI224
aa(lp90
I6
aI324
aI293
aI311
aI336
aI329
aI307
aI329
aI287
aI318
aI316
aa(lp91
I6
aI326
aI302
aI312
aI339
aI329
aI306
aI328
aI287
aI318
aI318
aa(lp92
I6
aI293
aI265
aI294
aI307
aI296
aI302
aI321
aI276
aI315
aI294
aa(lp93
I0
aI276
aI272
aI244
aI201
aI118
aI242
aI254
aI201
aI225
aI231
aa(lp94
I0
aI276
aI263
aI223
aI223
aI147
aI217
aI247
aI203
aI235
aI203
aa(lp95
I0
aI287
aI226
aI234
aI256
aI107
aI215
aI254
aI210
aI240
aI256
aa(lp96
I0
aI259
aI250
aI182
aI199
aI138
aI209
aI223
aI191
aI234
aI199
aa(lp97
I1
aI271
aI244
aI241
aI320
aI264
aI299
aI319
aI282
aI323
aI315
aa(lp98
I1
aI277
aI242
aI295
aI322
aI257
aI305
aI324
aI271
aI322
aI319
aa(lp99
I1
aI298
aI281
aI272
aI294
aI240
aI302
aI324
aI280
aI311
aI314
aa(lp100
I1
aI282
aI250
aI279
aI304
aI239
aI299
aI318
aI277
aI323
aI0
aa(lp101
I1
aI266
aI258
aI238
aI316
aI266
aI306
aI328
aI283
aI322
aI0
aa(lp102
I2
aI308
aI298
aI291
aI269
aI205
aI286
aI299
aI253
aI318
aI0
aa(lp103
I2
aI315
aI306
aI245
aI195
aI135
aI244
aI278
aI231
aI295
aI0
aa(lp104
I2
aI299
aI309
aI262
aI203
aI136
aI242
aI279
aI231
aI293
aI0
aa(lp105
I1
aI291
aI250
aI303
aI305
aI256
aI290
aI320
aI275
aI310
aI0
aa(lp106
I3
aI253
aI307
aI301
aI289
aI192
aI259
aI299
aI242
aI313
aI0
aa(lp107
I3
aI305
aI306
aI280
aI259
aI181
aI283
aI307
aI258
aI304
aI0
aa(lp108
I3
aI318
aI293
aI248
aI214
aI160
aI265
aI281
aI220
aI310
aI0
aa(lp109
I4
aI308
aI300
aI307
aI272
aI205
aI241
aI280
aI222
aI288
aI0
aa(lp110
I4
aI289
aI278
aI242
aI229
aI264
aI234
aI236
aI198
aI216
aI0
aa(lp111
I4
aI307
aI297
aI262
aI202
aI259
aI214
aI249
aI188
aI212
aI0
aa(lp112
I4
aI285
aI243
aI184
aI245
aI301
aI237
aI240
aI190
aI215
aI0
aa(lp113
I4
aI300
aI293
aI252
aI223
aI209
aI252
aI266
aI208
aI251
aI0
aa(lp114
I5
aI275
aI322
aI295
aI208
aI145
aI226
aI268
aI229
aI319
aI0
aa(lp115
I6
aI298
aI279
aI302
aI316
aI304
aI297
aI323
aI276
aI315
aI0
aa(lp116
I6
aI312
aI321
aI314
aI342
aI334
aI311
aI333
aI289
aI326
aI315
aa(lp117
I0
aI231
aI229
aI167
aI194
aI121
aI196
aI226
aI183
aI198
aI227
aa(lp118
I0
aI249
aI234
aI169
aI195
aI129
aI205
aI230
aI182
aI201
aI231
aa(lp119
I0
aI259
aI300
aI283
aI283
aI225
aI229
aI261
aI219
aI236
aI260
aa(lp120
I0
aI269
aI299
aI281
aI295
aI264
aI232
aI287
aI234
aI258
aI269
aa(lp121
I0
aI271
aI242
aI189
aI190
aI90
aI197
aI225
aI180
aI196
aI223
aa(lp122
I0
aI247
aI239
aI186
aI190
aI97
aI195
aI221
aI177
aI186
aI237
aa(lp123
I0
aI243
aI256
aI183
aI193
aI107
aI198
aI224
aI184
aI200
aI218
aa(lp124
I1
aI264
aI267
aI249
aI250
aI205
aI287
aI320
aI272
aI320
aI306
aa(lp125
I1
aI289
aI262
aI266
aI271
aI208
aI275
aI307
aI254
aI304
aI321
aa(lp126
I1
aI269
aI256
aI265
aI256
aI251
aI267
aI283
aI245
aI316
aI315
aa(lp127
I1
aI260
aI263
aI255
aI263
aI204
aI274
aI305
aI256
aI314
aI319
aa(lp128
I1
aI266
aI260
aI274
aI282
aI263
aI281
aI302
aI243
aI285
aI315
aa(lp129
I1
aI281
aI271
aI266
aI260
aI169
aI264
aI289
aI223
aI305
aI323
aa(lp130
I2
aI288
aI314
aI307
aI331
aI321
aI299
aI315
aI237
aI253
aI250
aa(lp131
I2
aI274
aI255
aI288
aI313
aI283
aI282
aI314
aI248
aI294
aI307
aa(lp132
I2
aI282
aI248
aI266
aI302
aI260
aI272
aI288
aI226
aI255
aI320
aa(lp133
I2
aI264
aI255
aI259
aI274
aI233
aI269
aI299
aI243
aI312
aI316
aa(lp134
I3
aI275
aI297
aI279
aI290
aI247
aI298
aI316
aI261
aI284
aI296
aa(lp135
I3
aI267
aI267
aI236
aI264
aI205
aI273
aI309
aI252
aI305
aI318
aa(lp136
I3
aI268
aI267
aI263
aI262
aI190
aI271
aI314
aI274
aI303
aI311
aa(lp137
I3
aI266
aI273
aI250
aI253
aI174
aI269
aI305
aI249
aI301
aI316
aa(lp138
I3
aI276
aI287
aI272
aI259
aI189
aI279
aI308
aI231
aI283
aI320
aa(lp139
I3
aI262
aI290
aI274
aI273
aI209
aI288
aI309
aI267
aI290
aI321
aa(lp140
I4
aI328
aI318
aI300
aI244
aI176
aI198
aI237
aI196
aI206
aI317
aa(lp141
I4
aI337
aI278
aI238
aI244
aI146
aI227
aI238
aI192
aI223
aI325
aa(lp142
I4
aI318
aI265
aI259
aI219
aI153
aI193
aI217
aI176
aI198
aI315
aa(lp143
I4
aI293
aI296
aI275
aI272
aI164
aI208
aI222
aI179
aI199
aI308
aa(lp144
I5
aI252
aI312
aI240
aI209
aI109
aI212
aI242
aI208
aI325
aI268
aa(lp145
I5
aI234
aI322
aI231
aI196
aI113
aI209
aI235
aI191
aI326
aI171
aa(lp146
I5
aI228
aI311
aI237
aI199
aI112
aI217
aI248
aI198
aI326
aI213
aa(lp147
I5
aI229
aI312
aI242
aI206
aI116
aI217
aI248
aI202
aI326
aI207
aa(lp148
I5
aI246
aI306
aI229
aI204
aI124
aI227
aI270
aI223
aI327
aI224
aa(lp149
I5
aI221
aI311
aI212
aI186
aI115
aI218
aI252
aI203
aI326
aI191
aa(lp150
I6
aI288
aI292
aI304
aI327
aI310
aI306
aI329
aI280
aI321
aI296
aa(lp151
I6
aI299
aI295
aI306
aI328
aI313
aI306
aI329
aI280
aI322
aI299
aa(lp152
I6
aI309
aI316
aI314
aI342
aI331
aI309
aI332
aI285
aI324
aI311
aa(lp153
I6
aI258
aI311
aI313
aI342
aI330
aI309
aI333
aI288
aI325
aI274
aa(lp154
I6
aI319
aI321
aI318
aI343
aI333
aI309
aI333
aI287
aI326
aI314
aa(lp155
I6
aI303
aI296
aI306
aI329
aI315
aI307
aI330
aI284
aI323
aI300
aa(lp156
I6
aI304
aI297
aI304
aI327
aI307
aI303
aI326
aI277
aI318
aI301
aa(lp157
I0
aI281
aI257
aI181
aI199
aI126
aI212
aI233
aI189
aI216
aI242
aa(lp158
I0
aI253
aI300
aI283
aI293
aI280
aI188
aI219
aI180
aI210
aI187
aa(lp159
I0
aI309
aI270
aI167
aI195
aI119
aI195
aI228
aI186
aI209
aI251
aa(lp160
I0
aI280
aI244
aI165
aI181
aI121
aI191
aI223
aI183
aI203
aI217
aa(lp161
I1
aI268
aI249
aI263
aI301
aI235
aI297
aI303
aI251
aI324
aI299
aa(lp162
I1
aI274
aI280
aI300
aI333
aI281
aI303
aI292
aI235
aI300
aI302
aa(lp163
I1
aI279
aI251
aI285
aI319
aI269
aI296
aI299
aI247
aI315
aI305
aa(lp164
I1
aI285
aI260
aI287
aI327
aI282
aI304
aI308
aI263
aI325
aI307
aa(lp165
I1
aI276
aI251
aI288
aI324
aI270
aI297
aI297
aI255
aI319
aI298
aa(lp166
I2
aI272
aI290
aI252
aI269
aI240
aI294
aI286
aI250
aI300
aI264
aa(lp167
I2
aI291
aI277
aI267
aI258
aI202
aI301
aI311
aI253
aI323
aI304
aa(lp168
I2
aI281
aI272
aI258
aI274
aI183
aI246
aI295
aI245
aI322
aI304
aa(lp169
I2
aI275
aI261
aI249
aI249
aI197
aI232
aI267
aI254
aI318
aI302
aa(lp170
I2
aI291
aI273
aI256
aI250
aI218
aI294
aI281
aI237
aI320
aI304
aa(lp171
I2
aI280
aI288
aI261
aI274
aI248
aI301
aI320
aI270
aI320
aI303
aa(lp172
I3
aI313
aI309
aI272
aI240
aI158
aI214
aI249
aI212
aI282
aI304
aa(lp173
I3
aI307
aI307
aI271
aI220
aI149
aI184
aI238
aI201
aI239
aI309
aa(lp174
I3
aI271
aI300
aI294
aI304
aI281
aI305
aI321
aI273
aI289
aI301
aa(lp175
I4
aI292
aI257
aI213
aI226
aI248
aI196
aI235
aI198
aI234
aI287
aa(lp176
I4
aI304
aI246
aI234
aI219
aI177
aI184
aI219
aI187
aI213
aI295
aa(lp177
I4
aI311
aI253
aI208
aI219
aI206
aI210
aI234
aI203
aI264
aI298
aa(lp178
I5
aI290
aI304
aI258
aI215
aI157
aI202
aI240
aI230
aI323
aI277
aa(lp179
I5
aI289
aI301
aI239
aI196
aI127
aI187
aI237
aI227
aI322
aI287
aa(lp180
I5
aI293
aI301
aI242
aI199
aI134
aI198
aI244
aI236
aI323
aI285
aa(lp181
I5
aI268
aI315
aI276
aI225
aI137
aI201
aI232
aI227
aI321
aI245
aa(lp182
I5
aI285
aI310
aI231
aI182
aI131
aI188
aI231
aI213
aI321
aI291
aa(lp183
I6
aI311
aI285
aI289
aI309
aI292
aI285
aI310
aI268
aI311
aI294
aa(lp184
I6
aI311
aI278
aI281
aI309
aI299
aI298
aI318
aI271
aI312
aI295
aa(lp185
I6
aI308
aI275
aI276
aI298
aI280
aI280
aI298
aI258
aI299
aI290
aa(lp186
I6
aI313
aI281
aI284
aI308
aI296
aI298
aI320
aI274
aI316
aI295
aa(lp187
I0
aI289
aI262
aI200
aI207
aI170
aI195
aI241
aI210
aI208
aI262
aa(lp188
I0
aI293
aI267
aI208
aI204
aI161
aI207
aI235
aI199
aI201
aI232
aa(lp189
I0
aI254
aI248
aI192
aI210
aI180
aI203
aI231
aI200
aI201
aI222
aa(lp190
I0
aI239
aI327
aI312
aI278
aI252
aI196
aI219
aI188
aI197
aI196
aa(lp191
I1
aI272
aI282
aI252
aI262
aI266
aI290
aI285
aI259
aI312
aI313
aa(lp192
I2
aI284
aI294
aI264
aI238
aI195
aI256
aI246
aI203
aI246
aI213
aa(lp193
I2
aI265
aI260
aI271
aI249
aI183
aI245
aI279
aI225
aI253
aI218
aa(lp194
I2
aI269
aI266
aI252
aI266
aI248
aI288
aI261
aI215
aI272
aI211
aa(lp195
I3
aI305
aI265
aI201
aI190
aI159
aI214
aI247
aI215
aI231
aI224
aa(lp196
I4
aI304
aI267
aI238
aI303
aI323
aI214
aI243
aI212
aI221
aI300
aa(lp197
I4
aI322
aI315
aI230
aI212
aI192
aI192
aI232
aI200
aI196
aI311
aa(lp198
I5
aI253
aI313
aI242
aI224
aI168
aI195
aI237
aI211
aI325
aI229
aa(lp199
I5
aI256
aI294
aI254
aI232
aI158
aI207
aI227
aI204
aI324
aI230
aa(lp200
I5
aI242
aI290
aI252
aI223
aI166
aI208
aI230
aI198
aI326
aI233
aa(lp201
I5
aI255
aI313
aI269
aI233
aI167
aI214
aI238
aI195
aI326
aI241
aa(lp202
I6
aI320
aI317
aI312
aI338
aI331
aI305
aI333
aI289
aI329
aI306
aa(lp203
I6
aI320
aI314
aI306
aI335
aI329
aI303
aI328
aI286
aI320
aI295
aa(lp204
I6
aI314
aI311
aI304
aI334
aI333
aI302
aI328
aI287
aI324
aI299
aa(lp205
I6
aI309
aI314
aI312
aI341
aI329
aI299
aI333
aI288
aI327
aI303
aa(lp206
I0
aI277
aI255
aI232
aI201
aI118
aI198
aI220
aI191
aI197
aI225
aa(lp207
I0
aI283
aI253
aI223
aI208
aI149
aI222
aI214
aI191
aI203
aI230
aa(lp208
I0
aI292
aI282
aI200
aI198
aI161
aI246
aI254
aI204
aI215
aI225
aa(lp209
I1
aI287
aI241
aI288
aI300
aI298
aI281
aI273
aI249
aI315
aI307
aa(lp210
I1
aI283
aI261
aI238
aI297
aI319
aI291
aI285
aI253
aI313
aI310
aa(lp211
I1
aI291
aI252
aI213
aI287
aI267
aI272
aI276
aI244
aI308
aI274
aa(lp212
I1
aI298
aI258
aI216
aI260
aI252
aI276
aI280
aI250
aI314
aI309
aa(lp213
I2
aI291
aI275
aI225
aI285
aI291
aI278
aI263
aI261
aI311
aI316
aa(lp214
I2
aI290
aI265
aI251
aI288
aI293
aI286
aI290
aI257
aI296
aI313
aa(lp215
I3
aI298
aI293
aI291
aI309
aI243
aI292
aI322
aI273
aI306
aI287
aa(lp216
I3
aI294
aI272
aI271
aI280
aI205
aI287
aI319
aI273
aI313
aI302
aa(lp217
I3
aI288
aI282
aI262
aI261
aI233
aI292
aI326
aI281
aI319
aI270
aa(lp218
I4
aI316
aI279
aI256
aI285
aI287
aI242
aI238
aI189
aI208
aI304
aa(lp219
I4
aI294
aI312
aI269
aI266
aI240
aI213
aI259
aI205
aI216
aI255
aa(lp220
I4
aI278
aI303
aI297
aI267
aI259
aI207
aI240
aI209
aI222
aI296
aa(lp221
I5
aI289
aI314
aI273
aI202
aI176
aI264
aI252
aI203
aI323
aI240
aa(lp222
I5
aI288
aI310
aI276
aI215
aI213
aI251
aI242
aI195
aI323
aI235
aa(lp223
I6
aI307
aI320
aI320
aI344
aI335
aI299
aI335
aI292
aI326
aI277
aa(lp224
I6
aI323
aI310
aI312
aI338
aI325
aI295
aI328
aI284
aI322
aI301
aa(lp225
I1
aI293
aI270
aI264
aI240
aI148
aI209
aI245
aI228
aI271
aI0
aa(lp226
I0
aI282
aI301
aI269
aI281
aI265
aI249
aI272
aI216
aI232
aI0
aa(lp227
I2
aI302
aI287
aI258
aI288
aI261
aI245
aI230
aI194
aI254
aI0
aa(lp228
I2
aI286
aI290
aI217
aI189
aI126
aI208
aI241
aI201
aI225
aI0
aa(lp229
I2
aI297
aI304
aI248
aI241
aI157
aI219
aI237
aI214
aI270
aI0
aa(lp230
I3
aI321
aI272
aI204
aI224
aI179
aI277
aI253
aI221
aI256
aI0
aa(lp231
I3
aI268
aI316
aI287
aI243
aI237
aI281
aI243
aI216
aI273
aI0
aa(lp232
I3
aI320
aI268
aI253
aI236
aI119
aI160
aI218
aI194
aI242
aI0
aa(lp233
I4
aI290
aI311
aI246
aI228
aI144
aI264
aI279
aI226
aI222
aI0
aa(lp234
I4
aI335
aI298
aI240
aI234
aI163
aI240
aI252
aI201
aI230
aI0
aa(lp235
I4
aI326
aI310
aI286
aI295
aI259
aI270
aI286
aI228
aI250
aI0
aa(lp236
I4
aI324
aI320
aI301
aI297
aI258
aI223
aI252
aI218
aI250
aI0
aa(lp237
I5
aI272
aI284
aI243
aI208
aI142
aI221
aI221
aI190
aI325
aI0
aa(lp238
I5
aI287
aI316
aI265
aI229
aI169
aI237
aI233
aI202
aI325
aI0
aa(lp239
I6
aI314
aI296
aI292
aI312
aI289
aI287
aI313
aI269
aI308
aI0
aa(lp240
I6
aI313
aI297
aI298
aI318
aI299
aI287
aI314
aI270
aI311
aI0
aa(lp241
I6
aI318
aI292
aI289
aI315
aI298
aI287
aI314
aI270
aI310
aI0
aa(lp242
I6
aI321
aI288
aI302
aI326
aI289
aI284
aI312
aI253
aI296
aI273
aa(lp243
I0
aI292
aI260
aI241
aI222
aI157
aI215
aI214
aI187
aI192
aI252
aa(lp244
I0
aI294
aI248
aI236
aI213
aI152
aI204
aI216
aI189
aI202
aI228
aa(lp245
I0
aI311
aI274
aI244
aI203
aI130
aI197
aI214
aI185
aI187
aI241
aa(lp246
I0
aI284
aI300
aI261
aI271
aI169
aI262
aI268
aI197
aI185
aI194
aa(lp247
I0
aI320
aI290
aI296
aI236
aI149
aI202
aI213
aI187
aI214
aI307
aa(lp248
I0
aI300
aI283
aI259
aI225
aI155
aI203
aI222
aI191
aI210
aI246
aa(lp249
I1
aI293
aI273
aI288
aI293
aI238
aI276
aI307
aI251
aI297
aI282
aa(lp250
I1
aI283
aI256
aI297
aI293
aI205
aI287
aI309
aI256
aI306
aI289
aa(lp251
I1
aI301
aI276
aI266
aI273
aI226
aI295
aI304
aI255
aI305
aI294
aa(lp252
I1
aI313
aI308
aI282
aI279
aI223
aI273
aI289
aI223
aI255
aI314
aa(lp253
I2
aI301
aI306
aI293
aI266
aI182
aI265
aI276
aI220
aI232
aI211
aa(lp254
I2
aI300
aI291
aI257
aI252
aI170
aI253
aI279
aI223
aI224
aI216
aa(lp255
I2
aI311
aI281
aI260
aI258
aI194
aI269
aI289
aI233
aI278
aI247
aa(lp256
I2
aI308
aI298
aI210
aI206
aI121
aI194
aI240
aI215
aI232
aI183
aa(lp257
I3
aI284
aI310
aI294
aI285
aI217
aI292
aI299
aI235
aI229
aI236
aa(lp258
I3
aI284
aI273
aI276
aI284
aI219
aI292
aI319
aI263
aI296
aI295
aa(lp259
I4
aI307
aI296
aI273
aI238
aI217
aI183
aI215
aI176
aI177
aI258
aa(lp260
I4
aI333
aI310
aI288
aI238
aI181
aI251
aI265
aI212
aI214
aI271
aa(lp261
I4
aI326
aI291
aI253
aI230
aI235
aI198
aI212
aI179
aI188
aI255
aa(lp262
I4
aI322
aI307
aI290
aI304
aI214
aI223
aI231
aI190
aI209
aI285
aa(lp263
I4
aI333
aI307
aI277
aI282
aI294
aI271
aI268
aI205
aI263
aI299
aa(lp264
I5
aI274
aI306
aI284
aI259
aI166
aI172
aI192
aI166
aI323
aI234
aa(lp265
I5
aI293
aI312
aI296
aI304
aI218
aI194
aI202
aI183
aI321
aI252
aa(lp266
I5
aI305
aI316
aI287
aI268
aI174
aI194
aI210
aI185
aI319
aI223
aa(lp267
I5
aI298
aI315
aI286
aI254
aI160
aI194
aI204
aI185
aI317
aI242
aa(lp268
I6
aI316
aI299
aI310
aI326
aI294
aI275
aI309
aI258
aI304
aI268
aa(lp269
I6
aI322
aI290
aI313
aI333
aI318
aI296
aI324
aI269
aI310
aI279
aa(lp270
I6
aI316
aI297
aI311
aI327
aI308
aI288
aI305
aI249
aI298
aI273
aa(lp271
I6
aI302
aI285
aI294
aI308
aI277
aI295
aI308
aI268
aI300
aI290
aa(lp272
I6
aI306
aI282
aI290
aI318
aI273
aI304
aI316
aI267
aI304
aI298
aa(lp273
I0
aI222
aI295
aI300
aI281
aI206
aI236
aI234
aI190
aI201
aI226
aa(lp274
I0
aI297
aI246
aI172
aI167
aI125
aI263
aI252
aI204
aI209
aI300
aa(lp275
I1
aI267
aI275
aI242
aI249
aI217
aI294
aI291
aI256
aI308
aI296
aa(lp276
I1
aI275
aI261
aI211
aI259
aI279
aI299
aI293
aI252
aI308
aI306
aa(lp277
I1
aI299
aI267
aI256
aI255
aI229
aI292
aI295
aI254
aI311
aI306
aa(lp278
I2
aI289
aI303
aI271
aI250
aI140
aI275
aI255
aI238
aI280
aI282
aa(lp279
I2
aI296
aI271
aI258
aI254
aI224
aI296
aI292
aI228
aI289
aI273
aa(lp280
I2
aI291
aI297
aI277
aI287
aI200
aI306
aI306
aI239
aI286
aI262
aa(lp281
I3
aI272
aI277
aI274
aI274
aI241
aI297
aI306
aI259
aI295
aI294
aa(lp282
I3
aI285
aI268
aI282
aI275
aI213
aI285
aI293
aI251
aI268
aI287
aa(lp283
I3
aI287
aI309
aI289
aI287
aI224
aI287
aI294
aI265
aI269
aI283
aa(lp284
I3
aI278
aI278
aI279
aI279
aI234
aI288
aI296
aI242
aI270
aI294
aa(lp285
I3
aI277
aI252
aI262
aI276
aI243
aI291
aI297
aI256
aI308
aI282
aa(lp286
I4
aI262
aI268
aI208
aI221
aI251
aI292
aI250
aI192
aI230
aI299
aa(lp287
I4
aI304
aI273
aI226
aI293
aI291
aI300
aI296
aI217
aI217
aI297
aa(lp288
I4
aI305
aI264
aI276
aI278
aI242
aI291
aI283
aI220
aI231
aI295
aa(lp289
I5
aI278
aI309
aI259
aI265
aI215
aI288
aI281
aI217
aI319
aI292
aa(lp290
I5
aI272
aI305
aI255
aI186
aI107
aI259
aI257
aI226
aI323
aI288
aa(lp291
I5
aI256
aI306
aI223
aI168
aI113
aI265
aI257
aI233
aI321
aI274
aa(lp292
I6
aI309
aI287
aI288
aI322
aI295
aI301
aI314
aI264
aI303
aI292
aa(lp293
I6
aI310
aI284
aI288
aI321
aI286
aI300
aI315
aI267
aI304
aI296
aa(lp294
I6
aI309
aI272
aI280
aI314
aI283
aI300
aI313
aI264
aI304
aI300
aa.